

HI-TECH Software PIC LITE Macro Assembler V9.82 build 9453 
                                                                                               Wed Aug 29 17:37:52 2012

HI-TECH Software Omniscient Code Generator (Lite mode) build 9453
     1  0000                     opt subtitle "HI-TECH Software Omniscient Code Generator (Lite mode) build 9453"
     2                           
     3                           opt pagewidth 120
     4                           
     5                           	opt lm
     6                           
     7                           	processor	16F877A
     8                           clrc	macro
     9                           	bcf	3,0
    10  0000                     	endm
    11                           clrz	macro
    12                           	bcf	3,2
    13  0000                     	endm
    14                           setc	macro
    15                           	bsf	3,0
    16  0000                     	endm
    17                           setz	macro
    18                           	bsf	3,2
    19  0000                     	endm
    20                           skipc	macro
    21                           	btfss	3,0
    22  0000                     	endm
    23                           skipz	macro
    24                           	btfss	3,2
    25  0000                     	endm
    26                           skipnc	macro
    27                           	btfsc	3,0
    28  0000                     	endm
    29                           skipnz	macro
    30                           	btfsc	3,2
    31  0000                     	endm
    32  0000                     indf	equ	0
    33  0000                     indf0	equ	0
    34  0002                     pc	equ	2
    35  0002                     pcl	equ	2
    36  0003                     status	equ	3
    37  0004                     fsr	equ	4
    38  0004                     fsr0	equ	4
    39  0001                     c	equ	1
    40  0000                     z	equ	0
    41  000A                     pclath	equ	10
    42                           # 12 "C:\Users\Younce\Desktop\LED Cube 8 x 8 x 8\LED Cube.c"
    43                           	psect config,class=CONFIG,delta=2 ;#
    44                           # 12 "C:\Users\Younce\Desktop\LED Cube 8 x 8 x 8\LED Cube.c"
    45  2007  FF32               	dw 0xFFFE & 0xFFFB & 0xFFF7 & 0xFFBF & 0xFF7F ;#
    46                           	FNCALL	_main,_io_init
    47                           	FNCALL	_main,_choose_mode
    48                           	FNCALL	_main,_moving_point_in_sequence
    49                           	FNCALL	_main,_plane_left_to_right
    50                           	FNCALL	_main,_plane_forward_to_back
    51                           	FNCALL	_main,_plane_bottom_to_top
    52                           	FNCALL	_main,_flying_character_of_a_word
    53                           	FNCALL	_main,_contraction_expansion_square_ri
    54                           	FNCALL	_main,_expansion_box
    55                           	FNCALL	_main,_dice
    56                           	FNCALL	_main,_rotate_plane
    57                           	FNCALL	_dice,_choose_dice
    58                           	FNCALL	_dice,_set_a_plane
    59                           	FNCALL	_choose_mode,_set_a_plane
    60                           	FNCALL	_choose_mode,_show_mode
    61                           	FNCALL	_choose_dice,_show_pattern_on_a_plane
    62                           	FNCALL	_show_mode,_choose_alphabet
    63                           	FNCALL	_show_mode,_show_pattern_on_a_plane
    64                           	FNCALL	_rotate_plane,_show_pattern_on_a_plane
    65                           	FNCALL	_expansion_box,_show_pattern_on_a_plane
    66                           	FNCALL	_contraction_expansion_square_ri,_show_pattern_on_a_plane
    67                           	FNCALL	_flying_character_of_a_word,_choose_alphabet
    68                           	FNCALL	_flying_character_of_a_word,_show_pattern_on_a_plane
    69                           	FNCALL	_plane_bottom_to_top,_set_a_plane
    70                           	FNCALL	_plane_bottom_to_top,_delay_using_adc
    71                           	FNCALL	_plane_forward_to_back,_set_a_plane
    72                           	FNCALL	_plane_forward_to_back,_delay_using_adc
    73                           	FNCALL	_plane_left_to_right,_set_a_plane
    74                           	FNCALL	_plane_left_to_right,_delay_using_adc
    75                           	FNCALL	_moving_point_in_sequence,_set_a_point
    76                           	FNCALL	_moving_point_in_sequence,_delay_using_adc
    77                           	FNCALL	_delay_using_adc,_get_adc_value
    78                           	FNCALL	_delay_using_adc,___wmul
    79                           	FNCALL	_delay_using_adc,_delay
    80                           	FNROOT	_main
    81                           	global	contraction_expansion_square_ri@F1168
    82                           	global	flying_alphabet@F1155
    83                           	global	flying_character_of_a_word@F1162
    84                           	global	show_mode@F1153
    85                           	global	expansion_box@F1188
    86                           	global	rotate_plane@F1204
    87                           	global	choose_dice@F1183
    88                           	global	_ADRESH
    89                           psect	text540,local,class=CODE,delta=2
    90                           global __ptext540
    91  0000                     __ptext540:
    92  001E                     _ADRESH	set	30
    93                           	global	_PORTA
    94  0005                     _PORTA	set	5
    95                           	global	_PORTB
    96  0006                     _PORTB	set	6
    97                           	global	_PORTC
    98  0007                     _PORTC	set	7
    99                           	global	_PORTD
   100  0008                     _PORTD	set	8
   101                           	global	_PORTE
   102  0009                     _PORTE	set	9
   103                           	global	_ADCS0
   104  00FE                     _ADCS0	set	254
   105                           	global	_ADCS1
   106  00FF                     _ADCS1	set	255
   107                           	global	_ADIF
   108  0066                     _ADIF	set	102
   109                           	global	_ADON
   110  00F8                     _ADON	set	248
   111                           	global	_CARRY
   112  0018                     _CARRY	set	24
   113                           	global	_CHS0
   114  00FB                     _CHS0	set	251
   115                           	global	_CHS1
   116  00FC                     _CHS1	set	252
   117                           	global	_CHS2
   118  00FD                     _CHS2	set	253
   119                           	global	_GIE
   120  005F                     _GIE	set	95
   121                           	global	_GO
   122  00FA                     _GO	set	250
   123                           	global	_RA1
   124  0029                     _RA1	set	41
   125                           	global	_RB0
   126  0030                     _RB0	set	48
   127                           	global	_RB1
   128  0031                     _RB1	set	49
   129                           	global	_ADRESL
   130  009E                     _ADRESL	set	158
   131                           	global	_TRISA
   132  0085                     _TRISA	set	133
   133                           	global	_TRISB
   134  0086                     _TRISB	set	134
   135                           	global	_TRISC
   136  0087                     _TRISC	set	135
   137                           	global	_TRISD
   138  0088                     _TRISD	set	136
   139                           	global	_TRISE
   140  0089                     _TRISE	set	137
   141                           	global	_ADFM
   142  04FF                     _ADFM	set	1279
   143                           	global	_PCFG0
   144  04F8                     _PCFG0	set	1272
   145                           	global	_PCFG1
   146  04F9                     _PCFG1	set	1273
   147                           	global	_PCFG2
   148  04FA                     _PCFG2	set	1274
   149                           	global	_PCFG3
   150  04FB                     _PCFG3	set	1275
   151                           	global	_EEADR
   152  010D                     _EEADR	set	269
   153                           	global	_EEDATA
   154  010C                     _EEDATA	set	268
   155                           	global	_EECON1
   156  018C                     _EECON1	set	396
   157                           	global	_EECON2
   158  018D                     _EECON2	set	397
   159                           	global	_RD
   160  0C60                     _RD	set	3168
   161                           	global	_WR
   162  0C61                     _WR	set	3169
   163                           	global	_WREN
   164  0C62                     _WREN	set	3170
   165                           psect	strings,class=STRING,delta=2
   166                           global __pstrings
   167  0003                     __pstrings:
   168                           ;	global	stringdir,stringtab,__stringbase
   169  0003                     stringtab:
   170                           ;	String table - string pointers are 1 byte each
   171  0003                     stringcode:stringdir:
      + 0003                     stringdir:	
   172  0003  3000               movlw high(stringdir)
   173  0004  008A               movwf pclath
   174  0005  0804               movf fsr,w
   175  0006  0A84               incf fsr
   176  0007  0782               	addwf pc
   177  0008                     __stringbase:
   178  0008  3400               	retlw	0
   179                           psect	strings
   180                           	
   181  0009                     STR_1:	
   182  0009  3443               	retlw	67	;'C'
   183  000A  3459               	retlw	89	;'Y'
   184  000B  3454               	retlw	84	;'T'
   185  000C  3452               	retlw	82	;'R'
   186  000D  344F               	retlw	79	;'O'
   187  000E  344E               	retlw	78	;'N'
   188  000F  3400               	retlw	0
   189                           psect	strings
   190                           	file	"LED Cube.as"
   191                           	line	#
   192                           psect cinit,class=CODE,delta=2
   193                           global start_initialization
   194  1CA7                     start_initialization:
   195                           
   196                           psect	bssBANK0,class=BANK0,space=1
   197                           global __pbssBANK0
   198  004C                     __pbssBANK0:
   199  004C                     contraction_expansion_square_ri@F1168:
   200  004C                            ds      8
   201                           
   202  0054                     flying_alphabet@F1155:
   203  0054                            ds      8
   204                           
   205  005C                     flying_character_of_a_word@F1162:
   206  005C                            ds      8
   207                           
   208  0064                     show_mode@F1153:
   209  0064                            ds      8
   210                           
   211                           psect	bssBANK1,class=BANK1,space=1
   212                           global __pbssBANK1
   213  00E6                     __pbssBANK1:
   214  00E6                     choose_dice@F1183:
   215  00E6                            ds      8
   216                           
   217                           psect	bssBANK3,class=BANK3,space=1
   218                           global __pbssBANK3
   219  0190                     __pbssBANK3:
   220  0190                     expansion_box@F1188:
   221  0190                            ds      8
   222                           
   223  0198                     rotate_plane@F1204:
   224  0198                            ds      8
   225                           
   226                           psect clrtext,class=CODE,delta=2
   227                           global clear_ram
   228                           ;	Called with FSR containing the base address, and
   229                           ;	W with the last address+1
   230  1C9F                     clear_ram:
   231  1C9F  0064               	clrwdt			;clear the watchdog before getting into this loop
   232  1CA0                     clrloop:
   233  1CA0  0180               	clrf	indf		;clear RAM location pointed to by FSR
   234  1CA1  0A84               	incf	fsr,f		;increment pointer
   235  1CA2  0604               	xorwf	fsr,w		;XOR with final address
   236  1CA3  1903               	btfsc	status,2	;have we reached the end yet?
   237  1CA4  3400               	retlw	0		;all done for this memory range, return
   238  1CA5  0604               	xorwf	fsr,w		;XOR again to restore value
   239  1CA6  2CA0               	goto	clrloop		;do the next byte
   240                           
   241                           ; Clear objects allocated to BANK0
   242                           psect cinit,class=CODE,delta=2
   243  1CA7  1383               	bcf	status, 7	;select IRP bank0
   244  1CA8  304C               	movlw	low(__pbssBANK0)
   245  1CA9  0084               	movwf	fsr
   246  1CAA  306C               	movlw	low((__pbssBANK0)+020h)
   247  1CAB  160A  158A  249F   	fcall	clear_ram
              160A  158A         
   248                           ; Clear objects allocated to BANK1
   249                           psect cinit,class=CODE,delta=2
   250  1CB0  30E6               	movlw	low(__pbssBANK1)
   251  1CB1  0084               	movwf	fsr
   252  1CB2  30EE               	movlw	low((__pbssBANK1)+08h)
   253  1CB3  160A  158A  249F   	fcall	clear_ram
              160A  158A         
   254                           ; Clear objects allocated to BANK3
   255                           psect cinit,class=CODE,delta=2
   256  1CB8  1783               	bsf	status, 7	;select IRP bank2
   257  1CB9  3090               	movlw	low(__pbssBANK3)
   258  1CBA  0084               	movwf	fsr
   259  1CBB  30A0               	movlw	low((__pbssBANK3)+010h)
   260  1CBC  160A  158A  249F   	fcall	clear_ram
              160A  158A         
   261                           psect cinit,class=CODE,delta=2
   262                           global end_of_initialization
   263                           
   264                           ;End of C runtime variable initialization code
   265                           
   266  1CC1                     end_of_initialization:
   267  1CC1  0183               clrf status
   268  1CC2  160A  118A  2804   ljmp _main	;jump to C main() function
   269                           psect	cstackBANK1,class=BANK1,space=1
   270                           global __pcstackBANK1
   271  00A0                     __pcstackBANK1:
   272                           	global	rotate_plane@i
   273  00A0                     rotate_plane@i:	; 2 bytes @ 0x0
   274  00A0                     	ds	2
   275                           	global	rotate_plane@i_3064
   276  00A2                     rotate_plane@i_3064:	; 2 bytes @ 0x2
   277  00A2                     	ds	2
   278                           	global	rotate_plane@i_3066
   279  00A4                     rotate_plane@i_3066:	; 2 bytes @ 0x4
   280  00A4                     	ds	2
   281                           	global	rotate_plane@i_3068
   282  00A6                     rotate_plane@i_3068:	; 2 bytes @ 0x6
   283  00A6                     	ds	2
   284                           	global	rotate_plane@i_3070
   285  00A8                     rotate_plane@i_3070:	; 2 bytes @ 0x8
   286  00A8                     	ds	2
   287                           	global	rotate_plane@i_3072
   288  00AA                     rotate_plane@i_3072:	; 2 bytes @ 0xA
   289  00AA                     	ds	2
   290                           	global	rotate_plane@i_3074
   291  00AC                     rotate_plane@i_3074:	; 2 bytes @ 0xC
   292  00AC                     	ds	2
   293                           	global	rotate_plane@i_3076
   294  00AE                     rotate_plane@i_3076:	; 2 bytes @ 0xE
   295  00AE                     	ds	2
   296                           	global	rotate_plane@i_3078
   297  00B0                     rotate_plane@i_3078:	; 2 bytes @ 0x10
   298  00B0                     	ds	2
   299                           	global	rotate_plane@i_3080
   300  00B2                     rotate_plane@i_3080:	; 2 bytes @ 0x12
   301  00B2                     	ds	2
   302                           	global	rotate_plane@i_3082
   303  00B4                     rotate_plane@i_3082:	; 2 bytes @ 0x14
   304  00B4                     	ds	2
   305                           	global	rotate_plane@i_3084
   306  00B6                     rotate_plane@i_3084:	; 2 bytes @ 0x16
   307  00B6                     	ds	2
   308                           	global	rotate_plane@i_3086
   309  00B8                     rotate_plane@i_3086:	; 2 bytes @ 0x18
   310  00B8                     	ds	2
   311                           	global	rotate_plane@i_3088
   312  00BA                     rotate_plane@i_3088:	; 2 bytes @ 0x1A
   313  00BA                     	ds	2
   314                           	global	rotate_plane@i_3090
   315  00BC                     rotate_plane@i_3090:	; 2 bytes @ 0x1C
   316  00BC                     	ds	2
   317                           	global	rotate_plane@j
   318  00BE                     rotate_plane@j:	; 2 bytes @ 0x1E
   319  00BE                     	ds	2
   320                           	global	rotate_plane@j_3065
   321  00C0                     rotate_plane@j_3065:	; 2 bytes @ 0x20
   322  00C0                     	ds	2
   323                           	global	rotate_plane@j_3067
   324  00C2                     rotate_plane@j_3067:	; 2 bytes @ 0x22
   325  00C2                     	ds	2
   326                           	global	rotate_plane@j_3069
   327  00C4                     rotate_plane@j_3069:	; 2 bytes @ 0x24
   328  00C4                     	ds	2
   329                           	global	rotate_plane@j_3071
   330  00C6                     rotate_plane@j_3071:	; 2 bytes @ 0x26
   331  00C6                     	ds	2
   332                           	global	rotate_plane@j_3073
   333  00C8                     rotate_plane@j_3073:	; 2 bytes @ 0x28
   334  00C8                     	ds	2
   335                           	global	rotate_plane@j_3075
   336  00CA                     rotate_plane@j_3075:	; 2 bytes @ 0x2A
   337  00CA                     	ds	2
   338                           	global	rotate_plane@j_3077
   339  00CC                     rotate_plane@j_3077:	; 2 bytes @ 0x2C
   340  00CC                     	ds	2
   341                           	global	rotate_plane@j_3079
   342  00CE                     rotate_plane@j_3079:	; 2 bytes @ 0x2E
   343  00CE                     	ds	2
   344                           	global	rotate_plane@j_3081
   345  00D0                     rotate_plane@j_3081:	; 2 bytes @ 0x30
   346  00D0                     	ds	2
   347                           	global	rotate_plane@j_3083
   348  00D2                     rotate_plane@j_3083:	; 2 bytes @ 0x32
   349  00D2                     	ds	2
   350                           	global	rotate_plane@j_3085
   351  00D4                     rotate_plane@j_3085:	; 2 bytes @ 0x34
   352  00D4                     	ds	2
   353                           	global	rotate_plane@j_3087
   354  00D6                     rotate_plane@j_3087:	; 2 bytes @ 0x36
   355  00D6                     	ds	2
   356                           	global	rotate_plane@j_3089
   357  00D8                     rotate_plane@j_3089:	; 2 bytes @ 0x38
   358  00D8                     	ds	2
   359                           	global	rotate_plane@j_3091
   360  00DA                     rotate_plane@j_3091:	; 2 bytes @ 0x3A
   361  00DA                     	ds	2
   362                           	global	rotate_plane@time
   363  00DC                     rotate_plane@time:	; 2 bytes @ 0x3C
   364  00DC                     	ds	2
   365                           	global	rotate_plane@rotate_pattern
   366  00DE                     rotate_plane@rotate_pattern:	; 8 bytes @ 0x3E
   367  00DE                     	ds	8
   368                           psect	cstackCOMMON,class=COMMON,space=1
   369                           global __pcstackCOMMON
   370  0070                     __pcstackCOMMON:
   371                           	global	?_io_init
   372  0070                     ?_io_init:	; 0 bytes @ 0x0
   373                           	global	??_io_init
   374  0070                     ??_io_init:	; 0 bytes @ 0x0
   375                           	global	?_moving_point_in_sequence
   376  0070                     ?_moving_point_in_sequence:	; 0 bytes @ 0x0
   377                           	global	?_plane_left_to_right
   378  0070                     ?_plane_left_to_right:	; 0 bytes @ 0x0
   379                           	global	?_plane_forward_to_back
   380  0070                     ?_plane_forward_to_back:	; 0 bytes @ 0x0
   381                           	global	?_plane_bottom_to_top
   382  0070                     ?_plane_bottom_to_top:	; 0 bytes @ 0x0
   383                           	global	?_flying_character_of_a_word
   384  0070                     ?_flying_character_of_a_word:	; 0 bytes @ 0x0
   385                           	global	?_contraction_expansion_square_ri
   386  0070                     ?_contraction_expansion_square_ri:	; 0 bytes @ 0x0
   387                           	global	?_expansion_box
   388  0070                     ?_expansion_box:	; 0 bytes @ 0x0
   389                           	global	?_dice
   390  0070                     ?_dice:	; 0 bytes @ 0x0
   391                           	global	?_rotate_plane
   392  0070                     ?_rotate_plane:	; 0 bytes @ 0x0
   393                           	global	?_set_a_plane
   394  0070                     ?_set_a_plane:	; 0 bytes @ 0x0
   395                           	global	?_show_mode
   396  0070                     ?_show_mode:	; 0 bytes @ 0x0
   397                           	global	?_choose_alphabet
   398  0070                     ?_choose_alphabet:	; 0 bytes @ 0x0
   399                           	global	?_show_pattern_on_a_plane
   400  0070                     ?_show_pattern_on_a_plane:	; 0 bytes @ 0x0
   401                           	global	?_choose_dice
   402  0070                     ?_choose_dice:	; 0 bytes @ 0x0
   403                           	global	?_main
   404  0070                     ?_main:	; 0 bytes @ 0x0
   405                           	global	?_delay_using_adc
   406  0070                     ?_delay_using_adc:	; 0 bytes @ 0x0
   407                           	global	?_set_a_point
   408  0070                     ?_set_a_point:	; 0 bytes @ 0x0
   409                           	global	?_choose_mode
   410  0070                     ?_choose_mode:	; 1 bytes @ 0x0
   411                           	global	?_get_adc_value
   412  0070                     ?_get_adc_value:	; 2 bytes @ 0x0
   413                           	global	?___wmul
   414  0070                     ?___wmul:	; 2 bytes @ 0x0
   415                           	global	set_a_plane@plane
   416  0070                     set_a_plane@plane:	; 1 bytes @ 0x0
   417                           	global	show_pattern_on_a_plane@plane
   418  0070                     show_pattern_on_a_plane@plane:	; 1 bytes @ 0x0
   419                           	global	choose_alphabet@alphabet_array
   420  0070                     choose_alphabet@alphabet_array:	; 1 bytes @ 0x0
   421                           	global	set_a_point@x
   422  0070                     set_a_point@x:	; 2 bytes @ 0x0
   423                           	global	___wmul@multiplier
   424  0070                     ___wmul@multiplier:	; 2 bytes @ 0x0
   425  0070                     	ds	1
   426                           	global	??_set_a_plane
   427  0071                     ??_set_a_plane:	; 0 bytes @ 0x1
   428                           	global	??_choose_alphabet
   429  0071                     ??_choose_alphabet:	; 0 bytes @ 0x1
   430                           	global	show_pattern_on_a_plane@pattern_array
   431  0071                     show_pattern_on_a_plane@pattern_array:	; 1 bytes @ 0x1
   432  0071                     	ds	1
   433                           	global	??_show_pattern_on_a_plane
   434  0072                     ??_show_pattern_on_a_plane:	; 0 bytes @ 0x2
   435                           	global	??_get_adc_value
   436  0072                     ??_get_adc_value:	; 0 bytes @ 0x2
   437                           	global	choose_alphabet@alphabet
   438  0072                     choose_alphabet@alphabet:	; 1 bytes @ 0x2
   439                           	global	set_a_point@y
   440  0072                     set_a_point@y:	; 2 bytes @ 0x2
   441                           	global	___wmul@multiplicand
   442  0072                     ___wmul@multiplicand:	; 2 bytes @ 0x2
   443  0072                     	ds	1
   444                           	global	set_a_plane@j
   445  0073                     set_a_plane@j:	; 2 bytes @ 0x3
   446  0073                     	ds	1
   447                           	global	??___wmul
   448  0074                     ??___wmul:	; 0 bytes @ 0x4
   449                           	global	get_adc_value@local_adc_value
   450  0074                     get_adc_value@local_adc_value:	; 2 bytes @ 0x4
   451                           	global	set_a_point@z
   452  0074                     set_a_point@z:	; 2 bytes @ 0x4
   453                           	global	___wmul@product
   454  0074                     ___wmul@product:	; 2 bytes @ 0x4
   455  0074                     	ds	1
   456                           	global	??_flying_character_of_a_word
   457  0075                     ??_flying_character_of_a_word:	; 0 bytes @ 0x5
   458                           	global	??_contraction_expansion_square_ri
   459  0075                     ??_contraction_expansion_square_ri:	; 0 bytes @ 0x5
   460                           	global	??_expansion_box
   461  0075                     ??_expansion_box:	; 0 bytes @ 0x5
   462                           	global	??_rotate_plane
   463  0075                     ??_rotate_plane:	; 0 bytes @ 0x5
   464                           	global	??_show_mode
   465  0075                     ??_show_mode:	; 0 bytes @ 0x5
   466                           	global	??_choose_dice
   467  0075                     ??_choose_dice:	; 0 bytes @ 0x5
   468                           	global	set_a_plane@j_2156
   469  0075                     set_a_plane@j_2156:	; 2 bytes @ 0x5
   470  0075                     	ds	1
   471                           	global	?_delay
   472  0076                     ?_delay:	; 0 bytes @ 0x6
   473                           	global	??_set_a_point
   474  0076                     ??_set_a_point:	; 0 bytes @ 0x6
   475                           	global	delay@time
   476  0076                     delay@time:	; 4 bytes @ 0x6
   477  0076                     	ds	1
   478                           	global	set_a_plane@j_2157
   479  0077                     set_a_plane@j_2157:	; 2 bytes @ 0x7
   480  0077                     	ds	1
   481                           	global	set_a_point@j
   482  0078                     set_a_point@j:	; 2 bytes @ 0x8
   483  0078                     	ds	1
   484                           	global	set_a_plane@j_2158
   485  0079                     set_a_plane@j_2158:	; 2 bytes @ 0x9
   486  0079                     	ds	1
   487                           	global	??_delay
   488  007A                     ??_delay:	; 0 bytes @ 0xA
   489  007A                     	ds	1
   490                           	global	set_a_plane@layer
   491  007B                     set_a_plane@layer:	; 1 bytes @ 0xB
   492  007B                     	ds	1
   493                           	global	??_choose_mode
   494  007C                     ??_choose_mode:	; 0 bytes @ 0xC
   495                           	global	dice@i
   496  007C                     dice@i:	; 2 bytes @ 0xC
   497  007C                     	ds	2
   498                           	global	??_moving_point_in_sequence
   499  007E                     ??_moving_point_in_sequence:	; 0 bytes @ 0xE
   500                           	global	??_plane_left_to_right
   501  007E                     ??_plane_left_to_right:	; 0 bytes @ 0xE
   502                           psect	cstackBANK0,class=BANK0,space=1
   503                           global __pcstackBANK0
   504  0020                     __pcstackBANK0:
   505                           	global	??_delay_using_adc
   506  0020                     ??_delay_using_adc:	; 0 bytes @ 0x0
   507                           	global	show_pattern_on_a_plane@adc_delay
   508  0020                     show_pattern_on_a_plane@adc_delay:	; 2 bytes @ 0x0
   509  0020                     	ds	2
   510                           	global	show_pattern_on_a_plane@scale
   511  0022                     show_pattern_on_a_plane@scale:	; 1 bytes @ 0x2
   512                           	global	delay_using_adc@adc_delay
   513  0022                     delay_using_adc@adc_delay:	; 2 bytes @ 0x2
   514  0022                     	ds	1
   515                           	global	show_pattern_on_a_plane@j_2168
   516  0023                     show_pattern_on_a_plane@j_2168:	; 2 bytes @ 0x3
   517  0023                     	ds	1
   518                           	global	delay_using_adc@scale
   519  0024                     delay_using_adc@scale:	; 1 bytes @ 0x4
   520  0024                     	ds	1
   521                           	global	??_plane_forward_to_back
   522  0025                     ??_plane_forward_to_back:	; 0 bytes @ 0x5
   523                           	global	??_plane_bottom_to_top
   524  0025                     ??_plane_bottom_to_top:	; 0 bytes @ 0x5
   525                           	global	show_pattern_on_a_plane@j_2169
   526  0025                     show_pattern_on_a_plane@j_2169:	; 2 bytes @ 0x5
   527                           	global	moving_point_in_sequence@i
   528  0025                     moving_point_in_sequence@i:	; 2 bytes @ 0x5
   529                           	global	plane_left_to_right@i
   530  0025                     plane_left_to_right@i:	; 2 bytes @ 0x5
   531  0025                     	ds	1
   532                           	global	plane_bottom_to_top@i
   533  0026                     plane_bottom_to_top@i:	; 2 bytes @ 0x6
   534                           	global	plane_forward_to_back@i
   535  0026                     plane_forward_to_back@i:	; 2 bytes @ 0x6
   536  0026                     	ds	1
   537                           	global	show_pattern_on_a_plane@j
   538  0027                     show_pattern_on_a_plane@j:	; 2 bytes @ 0x7
   539                           	global	moving_point_in_sequence@j
   540  0027                     moving_point_in_sequence@j:	; 2 bytes @ 0x7
   541                           	global	plane_left_to_right@i_3012
   542  0027                     plane_left_to_right@i_3012:	; 2 bytes @ 0x7
   543  0027                     	ds	1
   544                           	global	plane_bottom_to_top@i_3015
   545  0028                     plane_bottom_to_top@i_3015:	; 2 bytes @ 0x8
   546                           	global	plane_forward_to_back@i_3018
   547  0028                     plane_forward_to_back@i_3018:	; 2 bytes @ 0x8
   548  0028                     	ds	1
   549                           	global	show_pattern_on_a_plane@j_2170
   550  0029                     show_pattern_on_a_plane@j_2170:	; 2 bytes @ 0x9
   551                           	global	moving_point_in_sequence@k
   552  0029                     moving_point_in_sequence@k:	; 2 bytes @ 0x9
   553  0029                     	ds	2
   554                           	global	show_pattern_on_a_plane@layer
   555  002B                     show_pattern_on_a_plane@layer:	; 1 bytes @ 0xB
   556  002B                     	ds	1
   557                           	global	show_pattern_on_a_plane@i
   558  002C                     show_pattern_on_a_plane@i:	; 2 bytes @ 0xC
   559  002C                     	ds	2
   560                           	global	show_pattern_on_a_plane@i_2167
   561  002E                     show_pattern_on_a_plane@i_2167:	; 2 bytes @ 0xE
   562  002E                     	ds	2
   563                           	global	show_mode@mode
   564  0030                     show_mode@mode:	; 1 bytes @ 0x10
   565                           	global	flying_character_of_a_word@word
   566  0030                     flying_character_of_a_word@word:	; 1 bytes @ 0x10
   567                           	global	choose_dice@temp_switch
   568  0030                     choose_dice@temp_switch:	; 1 bytes @ 0x10
   569                           	global	contraction_expansion_square_ri@i
   570  0030                     contraction_expansion_square_ri@i:	; 2 bytes @ 0x10
   571                           	global	expansion_box@i
   572  0030                     expansion_box@i:	; 2 bytes @ 0x10
   573  0030                     	ds	1
   574                           	global	choose_dice@number
   575  0031                     choose_dice@number:	; 1 bytes @ 0x11
   576                           	global	flying_character_of_a_word@i
   577  0031                     flying_character_of_a_word@i:	; 2 bytes @ 0x11
   578                           	global	show_mode@mode_pattern
   579  0031                     show_mode@mode_pattern:	; 8 bytes @ 0x11
   580  0031                     	ds	1
   581                           	global	expansion_box@i_3052
   582  0032                     expansion_box@i_3052:	; 2 bytes @ 0x12
   583                           	global	contraction_expansion_square_ri@square_ring_pattern
   584  0032                     contraction_expansion_square_ri@square_ring_pattern:	; 8 bytes @ 0x12
   585                           	global	choose_dice@dice_pattern
   586  0032                     choose_dice@dice_pattern:	; 8 bytes @ 0x12
   587  0032                     	ds	1
   588                           	global	flying_character_of_a_word@j
   589  0033                     flying_character_of_a_word@j:	; 2 bytes @ 0x13
   590  0033                     	ds	1
   591                           	global	expansion_box@i_3054
   592  0034                     expansion_box@i_3054:	; 2 bytes @ 0x14
   593  0034                     	ds	1
   594                           	global	flying_character_of_a_word@alphabet_pattern
   595  0035                     flying_character_of_a_word@alphabet_pattern:	; 8 bytes @ 0x15
   596  0035                     	ds	1
   597                           	global	expansion_box@i_3056
   598  0036                     expansion_box@i_3056:	; 2 bytes @ 0x16
   599  0036                     	ds	2
   600                           	global	expansion_box@j
   601  0038                     expansion_box@j:	; 2 bytes @ 0x18
   602  0038                     	ds	1
   603                           	global	choose_mode@i
   604  0039                     choose_mode@i:	; 2 bytes @ 0x19
   605  0039                     	ds	1
   606                           	global	??_dice
   607  003A                     ??_dice:	; 0 bytes @ 0x1A
   608                           	global	expansion_box@j_3053
   609  003A                     expansion_box@j_3053:	; 2 bytes @ 0x1A
   610  003A                     	ds	1
   611                           	global	choose_mode@temp_mode
   612  003B                     choose_mode@temp_mode:	; 1 bytes @ 0x1B
   613  003B                     	ds	1
   614                           	global	expansion_box@j_3055
   615  003C                     expansion_box@j_3055:	; 2 bytes @ 0x1C
   616  003C                     	ds	2
   617                           	global	expansion_box@j_3057
   618  003E                     expansion_box@j_3057:	; 2 bytes @ 0x1E
   619  003E                     	ds	2
   620                           	global	expansion_box@time
   621  0040                     expansion_box@time:	; 2 bytes @ 0x20
   622  0040                     	ds	2
   623                           	global	expansion_box@box_pattern
   624  0042                     expansion_box@box_pattern:	; 8 bytes @ 0x22
   625  0042                     	ds	8
   626                           	global	??_main
   627  004A                     ??_main:	; 0 bytes @ 0x2A
   628  004A                     	ds	1
   629                           	global	main@mode
   630  004B                     main@mode:	; 1 bytes @ 0x2B
   631  004B                     	ds	1
   632 ;;Data sizes: Strings 7, constant 0, data 0, bss 56, persistent 0 stack 0
   633 ;;Auto spaces:   Size  Autos    Used
   634 ;; COMMON          14     14      14
   635 ;; BANK0           80     44      76
   636 ;; BANK1           80     70      78
   637 ;; BANK3           96      0      16
   638 ;; BANK2           96      0       0
   639                           
   640 ;;
   641 ;; Pointer list with targets:
   642                           
   643 ;; ?___wmul	unsigned int  size(1) Largest target is 0
   644 ;;
   645 ;; ?_get_adc_value	unsigned int  size(1) Largest target is 0
   646 ;;
   647 ;; flying_character_of_a_word@word	PTR unsigned char  size(1) Largest target is 7
   648 ;;		 -> STR_1(CODE[7]), 
   649 ;;
   650 ;; choose_alphabet@alphabet_array	PTR unsigned char  size(1) Largest target is 8
   651 ;;		 -> flying_character_of_a_word@alphabet_pattern(BANK0[8]), flying_alphabet@temp_alphabet_array(COMMON[8]), show_mode
       @mode_pattern(BANK0[8]), 
   652 ;;
   653 ;; show_pattern_on_a_plane@pattern_array	PTR unsigned char  size(1) Largest target is 8
   654 ;;		 -> rotate_plane@rotate_pattern(BANK1[8]), expansion_box@box_pattern(BANK0[8]), choose_dice@dice_pattern(BANK0[8]), 
       contraction_expansion_square_ri@square_ring_pattern(BANK0[8]), 
   655 ;;		 -> flying_character_of_a_word@alphabet_pattern(BANK0[8]), flying_alphabet@temp_alphabet_array(COMMON[8]), show_mode
       @mode_pattern(BANK0[8]), 
   656 ;;
   657                           
   658                           
   659 ;;
   660 ;; Critical Paths under _main in COMMON
   661 ;;
   662 ;;   _main->_dice
   663 ;;   _dice->_set_a_plane
   664 ;;   _choose_mode->_set_a_plane
   665 ;;   _choose_dice->_show_pattern_on_a_plane
   666 ;;   _show_mode->_show_pattern_on_a_plane
   667 ;;   _rotate_plane->_show_pattern_on_a_plane
   668 ;;   _expansion_box->_show_pattern_on_a_plane
   669 ;;   _contraction_expansion_square_ri->_show_pattern_on_a_plane
   670 ;;   _flying_character_of_a_word->_show_pattern_on_a_plane
   671 ;;   _delay_using_adc->_delay
   672 ;;   _delay->___wmul
   673 ;;
   674 ;; Critical Paths under _main in BANK0
   675 ;;
   676 ;;   _main->_expansion_box
   677 ;;   _dice->_choose_dice
   678 ;;   _choose_mode->_show_mode
   679 ;;   _choose_dice->_show_pattern_on_a_plane
   680 ;;   _show_mode->_show_pattern_on_a_plane
   681 ;;   _rotate_plane->_show_pattern_on_a_plane
   682 ;;   _expansion_box->_show_pattern_on_a_plane
   683 ;;   _contraction_expansion_square_ri->_show_pattern_on_a_plane
   684 ;;   _flying_character_of_a_word->_show_pattern_on_a_plane
   685 ;;   _plane_bottom_to_top->_delay_using_adc
   686 ;;   _plane_forward_to_back->_delay_using_adc
   687 ;;   _plane_left_to_right->_delay_using_adc
   688 ;;   _moving_point_in_sequence->_delay_using_adc
   689 ;;
   690 ;; Critical Paths under _main in BANK1
   691 ;;
   692 ;;   _main->_rotate_plane
   693 ;;
   694 ;; Critical Paths under _main in BANK3
   695 ;;
   696 ;;   None.
   697 ;;
   698 ;; Critical Paths under _main in BANK2
   699 ;;
   700 ;;   None.
   701                           
   702 ;;
   703 ;;Main: autosize = 0, tempsize = 1, incstack = 0, save=0
   704 ;;
   705                           
   706 ;;
   707 ;;Call Graph Tables:
   708 ;;
   709 ;; ---------------------------------------------------------------------------------
   710 ;; (Depth) Function   	        Calls       Base Space   Used Autos Params    Refs
   711 ;; ---------------------------------------------------------------------------------
   712 ;; (0) _main                                                 2     2      0   26665
   713 ;;                                             42 BANK0      2     2      0
   714 ;;                            _io_init
   715 ;;                        _choose_mode
   716 ;;           _moving_point_in_sequence
   717 ;;                _plane_left_to_right
   718 ;;              _plane_forward_to_back
   719 ;;                _plane_bottom_to_top
   720 ;;         _flying_character_of_a_word
   721 ;;    _contraction_expansion_square_ri
   722 ;;                      _expansion_box
   723 ;;                               _dice
   724 ;;                       _rotate_plane
   725 ;; ---------------------------------------------------------------------------------
   726 ;; (1) _dice                                                 5     5      0    2231
   727 ;;                                             12 COMMON     2     2      0
   728 ;;                                             26 BANK0      3     3      0
   729 ;;                        _choose_dice
   730 ;;                        _set_a_plane
   731 ;; ---------------------------------------------------------------------------------
   732 ;; (1) _choose_mode                                          4     4      0    6497
   733 ;;                                             12 COMMON     1     1      0
   734 ;;                                             25 BANK0      3     3      0
   735 ;;                        _set_a_plane
   736 ;;                          _show_mode
   737 ;; ---------------------------------------------------------------------------------
   738 ;; (2) _choose_dice                                         14    14      0    1803
   739 ;;                                              5 COMMON     4     4      0
   740 ;;                                             16 BANK0     10    10      0
   741 ;;            _show_pattern_on_a_plane
   742 ;; ---------------------------------------------------------------------------------
   743 ;; (2) _show_mode                                           13    13      0    5978
   744 ;;                                              5 COMMON     4     4      0
   745 ;;                                             16 BANK0      9     9      0
   746 ;;                    _choose_alphabet
   747 ;;            _show_pattern_on_a_plane
   748 ;; ---------------------------------------------------------------------------------
   749 ;; (1) _rotate_plane                                        74    74      0    5210
   750 ;;                                              5 COMMON     4     4      0
   751 ;;                                              0 BANK1     70    70      0
   752 ;;            _show_pattern_on_a_plane
   753 ;; ---------------------------------------------------------------------------------
   754 ;; (1) _expansion_box                                       30    30      0    1855
   755 ;;                                              5 COMMON     4     4      0
   756 ;;                                             16 BANK0     26    26      0
   757 ;;            _show_pattern_on_a_plane
   758 ;; ---------------------------------------------------------------------------------
   759 ;; (1) _contraction_expansion_square_ri                     14    14      0    2230
   760 ;;                                              5 COMMON     4     4      0
   761 ;;                                             16 BANK0     10    10      0
   762 ;;            _show_pattern_on_a_plane
   763 ;; ---------------------------------------------------------------------------------
   764 ;; (1) _flying_character_of_a_word                          17    17      0    5850
   765 ;;                                              5 COMMON     4     4      0
   766 ;;                                             16 BANK0     13    13      0
   767 ;;                    _choose_alphabet
   768 ;;            _show_pattern_on_a_plane
   769 ;; ---------------------------------------------------------------------------------
   770 ;; (1) _plane_bottom_to_top                                  5     5      0     726
   771 ;;                                              5 BANK0      5     5      0
   772 ;;                        _set_a_plane
   773 ;;                    _delay_using_adc
   774 ;; ---------------------------------------------------------------------------------
   775 ;; (1) _plane_forward_to_back                                5     5      0     726
   776 ;;                                              5 BANK0      5     5      0
   777 ;;                        _set_a_plane
   778 ;;                    _delay_using_adc
   779 ;; ---------------------------------------------------------------------------------
   780 ;; (1) _plane_left_to_right                                  4     4      0     726
   781 ;;                                              5 BANK0      4     4      0
   782 ;;                        _set_a_plane
   783 ;;                    _delay_using_adc
   784 ;; ---------------------------------------------------------------------------------
   785 ;; (1) _moving_point_in_sequence                             6     6      0     590
   786 ;;                                              5 BANK0      6     6      0
   787 ;;                        _set_a_point
   788 ;;                    _delay_using_adc
   789 ;; ---------------------------------------------------------------------------------
   790 ;; (2) _set_a_point                                         10     4      6     134
   791 ;;                                              0 COMMON    10     4      6
   792 ;; ---------------------------------------------------------------------------------
   793 ;; (2) _show_pattern_on_a_plane                             21    19      2     630
   794 ;;                                              0 COMMON     5     3      2
   795 ;;                                              0 BANK0     16    16      0
   796 ;; ---------------------------------------------------------------------------------
   797 ;; (2) _set_a_plane                                         12    11      1     338
   798 ;;                                              0 COMMON    12    11      1
   799 ;; ---------------------------------------------------------------------------------
   800 ;; (2) _delay_using_adc                                      5     5      0     252
   801 ;;                                              0 BANK0      5     5      0
   802 ;;                      _get_adc_value
   803 ;;                             ___wmul
   804 ;;                              _delay
   805 ;; ---------------------------------------------------------------------------------
   806 ;; (3) ___wmul                                               6     2      4      92
   807 ;;                                              0 COMMON     6     2      4
   808 ;; ---------------------------------------------------------------------------------
   809 ;; (2) _choose_alphabet                                      3     2      1    4598
   810 ;;                                              0 COMMON     3     2      1
   811 ;; ---------------------------------------------------------------------------------
   812 ;; (3) _delay                                                8     4      4      22
   813 ;;                                              6 COMMON     8     4      4
   814 ;;                             ___wmul (ARG)
   815 ;; ---------------------------------------------------------------------------------
   816 ;; (3) _get_adc_value                                        6     4      2      70
   817 ;;                                              0 COMMON     6     4      2
   818 ;; ---------------------------------------------------------------------------------
   819 ;; (1) _io_init                                              0     0      0       0
   820 ;; ---------------------------------------------------------------------------------
   821 ;; Estimated maximum stack depth 3
   822 ;; ---------------------------------------------------------------------------------
   823                           
   824 ;; Call Graph Graphs:
   825                           
   826 ;; _main (ROOT)
   827 ;;   _io_init
   828 ;;   _choose_mode
   829 ;;     _set_a_plane
   830 ;;     _show_mode
   831 ;;       _choose_alphabet
   832 ;;       _show_pattern_on_a_plane
   833 ;;   _moving_point_in_sequence
   834 ;;     _set_a_point
   835 ;;     _delay_using_adc
   836 ;;       _get_adc_value
   837 ;;       ___wmul
   838 ;;       _delay
   839 ;;         ___wmul (ARG)
   840 ;;   _plane_left_to_right
   841 ;;     _set_a_plane
   842 ;;     _delay_using_adc
   843 ;;       _get_adc_value
   844 ;;       ___wmul
   845 ;;       _delay
   846 ;;         ___wmul (ARG)
   847 ;;   _plane_forward_to_back
   848 ;;     _set_a_plane
   849 ;;     _delay_using_adc
   850 ;;       _get_adc_value
   851 ;;       ___wmul
   852 ;;       _delay
   853 ;;         ___wmul (ARG)
   854 ;;   _plane_bottom_to_top
   855 ;;     _set_a_plane
   856 ;;     _delay_using_adc
   857 ;;       _get_adc_value
   858 ;;       ___wmul
   859 ;;       _delay
   860 ;;         ___wmul (ARG)
   861 ;;   _flying_character_of_a_word
   862 ;;     _choose_alphabet
   863 ;;     _show_pattern_on_a_plane
   864 ;;   _contraction_expansion_square_ri
   865 ;;     _show_pattern_on_a_plane
   866 ;;   _expansion_box
   867 ;;     _show_pattern_on_a_plane
   868 ;;   _dice
   869 ;;     _choose_dice
   870 ;;       _show_pattern_on_a_plane
   871 ;;     _set_a_plane
   872 ;;   _rotate_plane
   873 ;;     _show_pattern_on_a_plane
   874 ;;
   875                           
   876 ;; Address spaces:
   877                           
   878 ;;Name               Size   Autos  Total    Cost      Usage
   879 ;;BITCOMMON            E      0       0       0        0.0%
   880 ;;EEDATA             100      0       0       0        0.0%
   881 ;;NULL                 0      0       0       0        0.0%
   882 ;;CODE                 0      0       0       0        0.0%
   883 ;;COMMON               E      E       E       1      100.0%
   884 ;;BITSFR0              0      0       0       1        0.0%
   885 ;;SFR0                 0      0       0       1        0.0%
   886 ;;BITSFR1              0      0       0       2        0.0%
   887 ;;SFR1                 0      0       0       2        0.0%
   888 ;;STACK                0      0       3       2        0.0%
   889 ;;ABS                  0      0      B8       3        0.0%
   890 ;;BITBANK0            50      0       0       4        0.0%
   891 ;;BITSFR3              0      0       0       4        0.0%
   892 ;;SFR3                 0      0       0       4        0.0%
   893 ;;BANK0               50     2C      4C       5       95.0%
   894 ;;BITSFR2              0      0       0       5        0.0%
   895 ;;SFR2                 0      0       0       5        0.0%
   896 ;;BITBANK1            50      0       0       6        0.0%
   897 ;;BANK1               50     46      4E       7       97.5%
   898 ;;BITBANK3            60      0       0       8        0.0%
   899 ;;BANK3               60      0      10       9       16.7%
   900 ;;BITBANK2            60      0       0      10        0.0%
   901 ;;BANK2               60      0       0      11        0.0%
   902 ;;DATA                 0      0      BB      12        0.0%
   903                           
   904                           	global	_main
   905                           psect	maintext,global,class=CODE,delta=2
   906                           global __pmaintext
   907  1004                     __pmaintext:
   908                           
   909 ;; *************** function _main *****************
   910 ;; Defined at:
   911 ;;		line 20 in file "C:\Users\Younce\Desktop\LED Cube 8 x 8 x 8\LED Cube.c"
   912 ;; Parameters:    Size  Location     Type
   913 ;;		None
   914 ;; Auto vars:     Size  Location     Type
   915 ;;  mode            1   43[BANK0 ] unsigned char 
   916 ;; Return value:  Size  Location     Type
   917 ;;		None               void
   918 ;; Registers used:
   919 ;;		wreg, fsr0l, fsr0h, status,2, status,0, btemp+1, pclath, cstack
   920 ;; Tracked objects:
   921 ;;		On entry : 17F/0
   922 ;;		On exit  : 0/0
   923 ;;		Unchanged: 0/0
   924 ;; Data sizes:     COMMON   BANK0   BANK1   BANK3   BANK2
   925 ;;      Params:         0       0       0       0       0
   926 ;;      Locals:         0       1       0       0       0
   927 ;;      Temps:          0       1       0       0       0
   928 ;;      Totals:         0       2       0       0       0
   929 ;;Total ram usage:        2 bytes
   930 ;; Hardware stack levels required when called:    3
   931 ;; This function calls:
   932 ;;		_io_init
   933 ;;		_choose_mode
   934 ;;		_moving_point_in_sequence
   935 ;;		_plane_left_to_right
   936 ;;		_plane_forward_to_back
   937 ;;		_plane_bottom_to_top
   938 ;;		_flying_character_of_a_word
   939 ;;		_contraction_expansion_square_ri
   940 ;;		_expansion_box
   941 ;;		_dice
   942 ;;		_rotate_plane
   943 ;; This function is called by:
   944 ;;		Startup code after reset
   945 ;; This function uses a non-reentrant model
   946 ;;
   947                           psect	maintext
   948                           	file	"C:\Users\Younce\Desktop\LED Cube 8 x 8 x 8\LED Cube.c"
   949                           	line	20
   950                           	global	__size_of_main
   951  0069                     	__size_of_main	equ	__end_of_main-_main
   952                           	
   953  1004                     _main:	
   954                           	opt	stack 5
   955                           ; Regs used in _main: [wreg-fsr0h+status,2+status,0+btemp+1+pclath+cstack]
   956                           	line	21
   957                           	
   958  1004                     l6950:	
   959                           ;LED Cube.c: 21: char mode = 0;
   960  1004  1283               	bcf	status, 5	;RP0=0, select bank0
   961  1005  1303               	bcf	status, 6	;RP1=0, select bank0
   962  1006  01CB               	clrf	(main@mode)
   963                           	line	22
   964                           	
   965  1007                     l6952:	
   966                           ;LED Cube.c: 22: io_init();
   967  1007  160A  158A  24C5   	fcall	_io_init
              160A  118A         
   968                           	line	23
   969                           	
   970  100C                     l6954:	
   971                           ;LED Cube.c: 23: mode = choose_mode();
   972  100C  160A  158A  2697   	fcall	_choose_mode
              160A  118A         
   973  1011  1283               	bcf	status, 5	;RP0=0, select bank0
   974  1012  1303               	bcf	status, 6	;RP1=0, select bank0
   975  1013  00CA               	movwf	(??_main+0)+0
   976  1014  084A               	movf	(??_main+0)+0,w
   977  1015  00CB               	movwf	(main@mode)
   978  1016  284F               	goto	l6972
   979                           	line	24
   980                           ;LED Cube.c: 24: while(1)
   981                           	
   982  1017                     l717:	
   983                           	line	26
   984                           ;LED Cube.c: 25: {
   985                           ;LED Cube.c: 26: switch(mode)
   986  1017  284F               	goto	l6972
   987                           	line	28
   988                           ;LED Cube.c: 27: {
   989                           ;LED Cube.c: 28: case 1: moving_point_in_sequence();
   990                           	
   991  1018                     l719:	
   992                           	
   993  1018                     l6956:	
   994  1018  120A  118A  204A   	fcall	_moving_point_in_sequence
              160A  118A         
   995                           	line	29
   996                           ;LED Cube.c: 29: break;
   997  101D  284F               	goto	l6972
   998                           	line	31
   999                           ;LED Cube.c: 31: case 2: plane_left_to_right();
  1000                           	
  1001  101E                     l721:	
  1002                           	
  1003  101E                     l6958:	
  1004  101E  160A  158A  2620   	fcall	_plane_left_to_right
              160A  118A         
  1005                           	line	32
  1006                           ;LED Cube.c: 32: plane_forward_to_back();
  1007  1023  160A  158A  270E   	fcall	_plane_forward_to_back
              160A  118A         
  1008                           	line	33
  1009                           ;LED Cube.c: 33: plane_bottom_to_top();
  1010  1028  160A  158A  2787   	fcall	_plane_bottom_to_top
              160A  118A         
  1011                           	line	34
  1012                           ;LED Cube.c: 34: break;
  1013  102D  284F               	goto	l6972
  1014                           	line	36
  1015                           ;LED Cube.c: 36: case 3: flying_character_of_a_word("CYTRON");
  1016                           	
  1017  102E                     l722:	
  1018                           	
  1019  102E                     l6960:	
  1020  102E  3001               	movlw	((STR_1-__stringbase))&0ffh
  1021  102F  160A  118A  206D   	fcall	_flying_character_of_a_word
              160A  118A         
  1022                           	line	37
  1023                           ;LED Cube.c: 37: break;
  1024  1034  284F               	goto	l6972
  1025                           	line	39
  1026                           ;LED Cube.c: 39: case 4: contraction_expansion_square_ri();
  1027                           	
  1028  1035                     l723:	
  1029                           	
  1030  1035                     l6962:	
  1031  1035  120A  158A  2002   	fcall	_contraction_expansion_square_ri
              160A  118A         
  1032                           	line	40
  1033                           ;LED Cube.c: 40: break;
  1034  103A  284F               	goto	l6972
  1035                           	line	42
  1036                           ;LED Cube.c: 42: case 5: expansion_box();
  1037                           	
  1038  103B                     l724:	
  1039                           	
  1040  103B                     l6964:	
  1041  103B  160A  118A  25F6   	fcall	_expansion_box
              160A  118A         
  1042                           	line	43
  1043                           ;LED Cube.c: 43: break;
  1044  1040  284F               	goto	l6972
  1045                           	line	45
  1046                           ;LED Cube.c: 45: case 6: dice();
  1047                           	
  1048  1041                     l725:	
  1049                           	
  1050  1041                     l6966:	
  1051  1041  160A  158A  256D   	fcall	_dice
              160A  118A         
  1052                           	line	46
  1053                           ;LED Cube.c: 46: break;
  1054  1046  284F               	goto	l6972
  1055                           	line	48
  1056                           ;LED Cube.c: 48: case 7: rotate_plane();
  1057                           	
  1058  1047                     l726:	
  1059                           	
  1060  1047                     l6968:	
  1061  1047  120A  118A  20E5   	fcall	_rotate_plane
              160A  118A         
  1062                           	line	49
  1063                           ;LED Cube.c: 49: break;
  1064  104C  284F               	goto	l6972
  1065                           	line	51
  1066                           ;LED Cube.c: 51: default: break;
  1067                           	
  1068  104D                     l727:	
  1069  104D  284F               	goto	l6972
  1070                           	line	52
  1071                           	
  1072  104E                     l6970:	
  1073                           ;LED Cube.c: 52: }
  1074  104E  284F               	goto	l6972
  1075                           	line	26
  1076                           	
  1077  104F                     l718:	
  1078                           	
  1079  104F                     l6972:	
  1080  104F  1283               	bcf	status, 5	;RP0=0, select bank0
  1081  1050  1303               	bcf	status, 6	;RP1=0, select bank0
  1082  1051  084B               	movf	(main@mode),w
  1083                           	; Switch size 1, requested type "space"
  1084                           ; Number of cases is 7, Range of values is 1 to 7
  1085                           ; switch strategies available:
  1086                           ; Name         Instructions Cycles
  1087                           ; simple_byte           22    12 (average)
  1088                           ; direct_byte           32    11 (fixed)
  1089                           ; jumptable            263     9 (fixed)
  1090                           ;	Chosen strategy is simple_byte
  1091                           
  1092                           	opt asmopt_off
  1093  1052  3A01               	xorlw	1^0	; case 1
  1094  1053  1903               	skipnz
  1095  1054  2818               	goto	l6956
  1096  1055  3A03               	xorlw	2^1	; case 2
  1097  1056  1903               	skipnz
  1098  1057  281E               	goto	l6958
  1099  1058  3A01               	xorlw	3^2	; case 3
  1100  1059  1903               	skipnz
  1101  105A  282E               	goto	l6960
  1102  105B  3A07               	xorlw	4^3	; case 4
  1103  105C  1903               	skipnz
  1104  105D  2835               	goto	l6962
  1105  105E  3A01               	xorlw	5^4	; case 5
  1106  105F  1903               	skipnz
  1107  1060  283B               	goto	l6964
  1108  1061  3A03               	xorlw	6^5	; case 6
  1109  1062  1903               	skipnz
  1110  1063  2841               	goto	l6966
  1111  1064  3A01               	xorlw	7^6	; case 7
  1112  1065  1903               	skipnz
  1113  1066  2847               	goto	l6968
  1114  1067  284F               	goto	l6972
  1115                           	opt asmopt_on
  1116                           
  1117                           	line	52
  1118                           	
  1119  1068                     l720:	
  1120  1068  284F               	goto	l6972
  1121                           	line	53
  1122                           	
  1123  1069                     l728:	
  1124                           	line	24
  1125  1069  284F               	goto	l6972
  1126                           	
  1127  106A                     l729:	
  1128                           	line	54
  1129                           	
  1130  106A                     l730:	
  1131                           	global	start
  1132  106A  120A  118A  2800   	ljmp	start
  1133                           	opt stack 0
  1134                           GLOBAL	__end_of_main
  1135  106D                     	__end_of_main:
  1136 ;; =============== function _main ends ============
  1137                           
  1138                           	signat	_main,88
  1139                           	global	_dice
  1140                           psect	text541,local,class=CODE,delta=2
  1141                           global __ptext541
  1142  1D6D                     __ptext541:
  1143                           
  1144 ;; *************** function _dice *****************
  1145 ;; Defined at:
  1146 ;;		line 477 in file "C:\Users\Younce\Desktop\LED Cube 8 x 8 x 8\Effect.c"
  1147 ;; Parameters:    Size  Location     Type
  1148 ;;		None
  1149 ;; Auto vars:     Size  Location     Type
  1150 ;;  i               2   12[COMMON] int 
  1151 ;; Return value:  Size  Location     Type
  1152 ;;		None               void
  1153 ;; Registers used:
  1154 ;;		wreg, fsr0l, fsr0h, status,2, status,0, btemp+1, pclath, cstack
  1155 ;; Tracked objects:
  1156 ;;		On entry : 0/0
  1157 ;;		On exit  : 0/0
  1158 ;;		Unchanged: 0/0
  1159 ;; Data sizes:     COMMON   BANK0   BANK1   BANK3   BANK2
  1160 ;;      Params:         0       0       0       0       0
  1161 ;;      Locals:         2       0       0       0       0
  1162 ;;      Temps:          0       3       0       0       0
  1163 ;;      Totals:         2       3       0       0       0
  1164 ;;Total ram usage:        5 bytes
  1165 ;; Hardware stack levels used:    1
  1166 ;; Hardware stack levels required when called:    2
  1167 ;; This function calls:
  1168 ;;		_choose_dice
  1169 ;;		_set_a_plane
  1170 ;; This function is called by:
  1171 ;;		_main
  1172 ;; This function uses a non-reentrant model
  1173 ;;
  1174                           psect	text541
  1175                           	file	"C:\Users\Younce\Desktop\LED Cube 8 x 8 x 8\Effect.c"
  1176                           	line	477
  1177                           	global	__size_of_dice
  1178  0057                     	__size_of_dice	equ	__end_of_dice-_dice
  1179                           	
  1180  1D6D                     _dice:	
  1181                           	opt	stack 5
  1182                           ; Regs used in _dice: [wreg-fsr0h+status,2+status,0+btemp+1+pclath+cstack]
  1183                           	line	478
  1184                           	
  1185  1D6D                     l6932:	
  1186                           ;Effect.c: 478: for(int i = 1; i < 7; i++)
  1187  1D6D  3001               	movlw	low(01h)
  1188  1D6E  00FC               	movwf	(dice@i)
  1189  1D6F  3000               	movlw	high(01h)
  1190  1D70  00FD               	movwf	((dice@i))+1
  1191                           	
  1192  1D71                     l6934:	
  1193  1D71  087D               	movf	(dice@i+1),w
  1194  1D72  3A80               	xorlw	80h
  1195  1D73  00FF               	movwf	btemp+1
  1196  1D74  3080               	movlw	(high(07h))^80h
  1197  1D75  027F               	subwf	btemp+1,w
  1198  1D76  1D03               	skipz
  1199  1D77  2D7A               	goto	u5245
  1200  1D78  3007               	movlw	low(07h)
  1201  1D79  027C               	subwf	(dice@i),w
  1202  1D7A                     u5245:
  1203                           
  1204  1D7A  1C03               	skipc
  1205  1D7B  2D7D               	goto	u5241
  1206  1D7C  2D7E               	goto	u5240
  1207  1D7D                     u5241:
  1208  1D7D  2D80               	goto	l2303
  1209  1D7E                     u5240:
  1210  1D7E  2DC3               	goto	l2309
  1211                           	
  1212  1D7F                     l6936:	
  1213  1D7F  2DC3               	goto	l2309
  1214                           	line	479
  1215                           	
  1216  1D80                     l2303:	
  1217                           	line	480
  1218                           ;Effect.c: 479: {
  1219                           ;Effect.c: 480: if(RB0 == 0)
  1220  1D80  1283               	bcf	status, 5	;RP0=0, select bank0
  1221  1D81  1303               	bcf	status, 6	;RP1=0, select bank0
  1222  1D82  1806               	btfsc	(48/8),(48)&7
  1223  1D83  2D85               	goto	u5251
  1224  1D84  2D86               	goto	u5250
  1225  1D85                     u5251:
  1226  1D85  2D94               	goto	l6942
  1227  1D86                     u5250:
  1228  1D86  2D88               	goto	l2306
  1229                           	line	482
  1230                           	
  1231  1D87                     l6938:	
  1232                           ;Effect.c: 481: {
  1233                           ;Effect.c: 482: while(RB0 == 0);
  1234  1D87  2D88               	goto	l2306
  1235                           	
  1236  1D88                     l2307:	
  1237                           	
  1238  1D88                     l2306:	
  1239  1D88  1C06               	btfss	(48/8),(48)&7
  1240  1D89  2D8B               	goto	u5261
  1241  1D8A  2D8C               	goto	u5260
  1242  1D8B                     u5261:
  1243  1D8B  2D88               	goto	l2306
  1244  1D8C                     u5260:
  1245  1D8C  2D8D               	goto	l6940
  1246                           	
  1247  1D8D                     l2308:	
  1248                           	line	483
  1249                           	
  1250  1D8D                     l6940:	
  1251                           ;Effect.c: 483: choose_dice(i);
  1252  1D8D  087C               	movf	(dice@i),w
  1253  1D8E  160A  118A  22ED   	fcall	_choose_dice
              160A  158A         
  1254  1D93  2D94               	goto	l6942
  1255                           	line	484
  1256                           	
  1257  1D94                     l2305:	
  1258                           	line	485
  1259                           	
  1260  1D94                     l6942:	
  1261                           ;Effect.c: 484: }
  1262                           ;Effect.c: 485: set_a_plane(i,3);
  1263  1D94  3003               	movlw	(03h)
  1264  1D95  1283               	bcf	status, 5	;RP0=0, select bank0
  1265  1D96  1303               	bcf	status, 6	;RP1=0, select bank0
  1266  1D97  00BA               	movwf	(??_dice+0)+0
  1267  1D98  083A               	movf	(??_dice+0)+0,w
  1268  1D99  00F0               	movwf	(?_set_a_plane)
  1269  1D9A  087C               	movf	(dice@i),w
  1270  1D9B  160A  118A  21DB   	fcall	_set_a_plane
              160A  158A         
  1271                           	line	486
  1272                           	
  1273  1DA0                     l6944:	
  1274                           ;Effect.c: 486: _delay((unsigned long)((40)*(20000000/4000.0)));
  1275                           	opt asmopt_off
  1276  1DA0  3002               movlw  2
  1277  1DA1  1283               	bcf	status, 5	;RP0=0, select bank0
  1278  1DA2  1303               	bcf	status, 6	;RP1=0, select bank0
  1279  1DA3  00BC               movwf	((??_dice+0)+0+2),f
  1280  1DA4  3004               movlw	4
  1281  1DA5  00BB               movwf	((??_dice+0)+0+1),f
  1282  1DA6  30BA               	movlw	186
  1283  1DA7  00BA               movwf	((??_dice+0)+0),f
  1284  1DA8                     u5287:
  1285  1DA8  0BBA               	decfsz	((??_dice+0)+0),f
  1286  1DA9  2DA8               	goto	u5287
  1287  1DAA  0BBB               	decfsz	((??_dice+0)+0+1),f
  1288  1DAB  2DA8               	goto	u5287
  1289  1DAC  0BBC               	decfsz	((??_dice+0)+0+2),f
  1290  1DAD  2DA8               	goto	u5287
  1291  1DAE  0064               	clrwdt
  1292                           opt asmopt_on
  1293                           
  1294                           	line	478
  1295                           	
  1296  1DAF                     l6946:	
  1297  1DAF  3001               	movlw	low(01h)
  1298  1DB0  07FC               	addwf	(dice@i),f
  1299  1DB1  1803               	skipnc
  1300  1DB2  0AFD               	incf	(dice@i+1),f
  1301  1DB3  3000               	movlw	high(01h)
  1302  1DB4  07FD               	addwf	(dice@i+1),f
  1303                           	
  1304  1DB5                     l6948:	
  1305  1DB5  087D               	movf	(dice@i+1),w
  1306  1DB6  3A80               	xorlw	80h
  1307  1DB7  00FF               	movwf	btemp+1
  1308  1DB8  3080               	movlw	(high(07h))^80h
  1309  1DB9  027F               	subwf	btemp+1,w
  1310  1DBA  1D03               	skipz
  1311  1DBB  2DBE               	goto	u5275
  1312  1DBC  3007               	movlw	low(07h)
  1313  1DBD  027C               	subwf	(dice@i),w
  1314  1DBE                     u5275:
  1315                           
  1316  1DBE  1C03               	skipc
  1317  1DBF  2DC1               	goto	u5271
  1318  1DC0  2DC2               	goto	u5270
  1319  1DC1                     u5271:
  1320  1DC1  2D80               	goto	l2303
  1321  1DC2                     u5270:
  1322  1DC2  2DC3               	goto	l2309
  1323                           	
  1324  1DC3                     l2304:	
  1325                           	line	488
  1326                           	
  1327  1DC3                     l2309:	
  1328  1DC3  0008               	return
  1329                           	opt stack 0
  1330                           GLOBAL	__end_of_dice
  1331  1DC4                     	__end_of_dice:
  1332 ;; =============== function _dice ends ============
  1333                           
  1334                           	signat	_dice,88
  1335                           	global	_choose_mode
  1336                           psect	text542,local,class=CODE,delta=2
  1337                           global __ptext542
  1338  1E97                     __ptext542:
  1339                           
  1340 ;; *************** function _choose_mode *****************
  1341 ;; Defined at:
  1342 ;;		line 119 in file "C:\Users\Younce\Desktop\LED Cube 8 x 8 x 8\LED Cube.c"
  1343 ;; Parameters:    Size  Location     Type
  1344 ;;		None
  1345 ;; Auto vars:     Size  Location     Type
  1346 ;;  i               2   25[BANK0 ] int 
  1347 ;;  temp_mode       1   27[BANK0 ] unsigned char 
  1348 ;; Return value:  Size  Location     Type
  1349 ;;                  1    wreg      unsigned char 
  1350 ;; Registers used:
  1351 ;;		wreg, fsr0l, fsr0h, status,2, status,0, btemp+1, pclath, cstack
  1352 ;; Tracked objects:
  1353 ;;		On entry : 0/0
  1354 ;;		On exit  : 0/0
  1355 ;;		Unchanged: 0/0
  1356 ;; Data sizes:     COMMON   BANK0   BANK1   BANK3   BANK2
  1357 ;;      Params:         0       0       0       0       0
  1358 ;;      Locals:         0       3       0       0       0
  1359 ;;      Temps:          1       0       0       0       0
  1360 ;;      Totals:         1       3       0       0       0
  1361 ;;Total ram usage:        4 bytes
  1362 ;; Hardware stack levels used:    1
  1363 ;; Hardware stack levels required when called:    2
  1364 ;; This function calls:
  1365 ;;		_set_a_plane
  1366 ;;		_show_mode
  1367 ;; This function is called by:
  1368 ;;		_main
  1369 ;; This function uses a non-reentrant model
  1370 ;;
  1371                           psect	text542
  1372                           	file	"C:\Users\Younce\Desktop\LED Cube 8 x 8 x 8\LED Cube.c"
  1373                           	line	119
  1374                           	global	__size_of_choose_mode
  1375  0077                     	__size_of_choose_mode	equ	__end_of_choose_mode-_choose_mode
  1376                           	
  1377  1E97                     _choose_mode:	
  1378                           	opt	stack 5
  1379                           ; Regs used in _choose_mode: [wreg-fsr0h+status,2+status,0+btemp+1+pclath+cstack]
  1380                           	line	120
  1381                           	
  1382  1E97                     l6898:	
  1383                           ;LED Cube.c: 120: char temp_mode = 0;
  1384  1E97  1283               	bcf	status, 5	;RP0=0, select bank0
  1385  1E98  1303               	bcf	status, 6	;RP1=0, select bank0
  1386  1E99  01BB               	clrf	(choose_mode@temp_mode)
  1387                           	line	121
  1388                           ;LED Cube.c: 121: while(temp_mode == 0)
  1389  1E9A  2F06               	goto	l6926
  1390                           	
  1391  1E9B                     l753:	
  1392                           	line	123
  1393                           ;LED Cube.c: 122: {
  1394                           ;LED Cube.c: 123: while(RB1 == 1)
  1395  1E9B  2EF8               	goto	l6924
  1396                           	
  1397  1E9C                     l755:	
  1398                           	line	125
  1399                           	
  1400  1E9C                     l6900:	
  1401                           ;LED Cube.c: 124: {
  1402                           ;LED Cube.c: 125: if(temp_mode == 0)
  1403  1E9C  08BB               	movf	(choose_mode@temp_mode),f
  1404  1E9D  1D03               	skipz
  1405  1E9E  2EA0               	goto	u5151
  1406  1E9F  2EA1               	goto	u5150
  1407  1EA0                     u5151:
  1408  1EA0  2ED4               	goto	l756
  1409  1EA1                     u5150:
  1410                           	line	127
  1411                           	
  1412  1EA1                     l6902:	
  1413                           ;LED Cube.c: 126: {
  1414                           ;LED Cube.c: 127: for(int i = 0; i<8; i ++)
  1415  1EA1  01B9               	clrf	(choose_mode@i)
  1416  1EA2  01BA               	clrf	(choose_mode@i+1)
  1417                           	
  1418  1EA3                     l6904:	
  1419  1EA3  083A               	movf	(choose_mode@i+1),w
  1420  1EA4  3A80               	xorlw	80h
  1421  1EA5  00FF               	movwf	btemp+1
  1422  1EA6  3080               	movlw	(high(08h))^80h
  1423  1EA7  027F               	subwf	btemp+1,w
  1424  1EA8  1D03               	skipz
  1425  1EA9  2EAC               	goto	u5165
  1426  1EAA  3008               	movlw	low(08h)
  1427  1EAB  0239               	subwf	(choose_mode@i),w
  1428  1EAC                     u5165:
  1429                           
  1430  1EAC  1C03               	skipc
  1431  1EAD  2EAF               	goto	u5161
  1432  1EAE  2EB0               	goto	u5160
  1433  1EAF                     u5161:
  1434  1EAF  2EB2               	goto	l6908
  1435  1EB0                     u5160:
  1436  1EB0  2ED4               	goto	l756
  1437                           	
  1438  1EB1                     l6906:	
  1439  1EB1  2ED4               	goto	l756
  1440                           	line	128
  1441                           	
  1442  1EB2                     l757:	
  1443                           	line	129
  1444                           	
  1445  1EB2                     l6908:	
  1446                           ;LED Cube.c: 128: {
  1447                           ;LED Cube.c: 129: set_a_plane(i,3);
  1448  1EB2  3003               	movlw	(03h)
  1449  1EB3  00FC               	movwf	(??_choose_mode+0)+0
  1450  1EB4  087C               	movf	(??_choose_mode+0)+0,w
  1451  1EB5  00F0               	movwf	(?_set_a_plane)
  1452  1EB6  1283               	bcf	status, 5	;RP0=0, select bank0
  1453  1EB7  1303               	bcf	status, 6	;RP1=0, select bank0
  1454  1EB8  0839               	movf	(choose_mode@i),w
  1455  1EB9  160A  118A  21DB   	fcall	_set_a_plane
              160A  158A         
  1456                           	line	127
  1457                           	
  1458  1EBE                     l6910:	
  1459  1EBE  3001               	movlw	low(01h)
  1460  1EBF  1283               	bcf	status, 5	;RP0=0, select bank0
  1461  1EC0  1303               	bcf	status, 6	;RP1=0, select bank0
  1462  1EC1  07B9               	addwf	(choose_mode@i),f
  1463  1EC2  1803               	skipnc
  1464  1EC3  0ABA               	incf	(choose_mode@i+1),f
  1465  1EC4  3000               	movlw	high(01h)
  1466  1EC5  07BA               	addwf	(choose_mode@i+1),f
  1467                           	
  1468  1EC6                     l6912:	
  1469  1EC6  083A               	movf	(choose_mode@i+1),w
  1470  1EC7  3A80               	xorlw	80h
  1471  1EC8  00FF               	movwf	btemp+1
  1472  1EC9  3080               	movlw	(high(08h))^80h
  1473  1ECA  027F               	subwf	btemp+1,w
  1474  1ECB  1D03               	skipz
  1475  1ECC  2ECF               	goto	u5175
  1476  1ECD  3008               	movlw	low(08h)
  1477  1ECE  0239               	subwf	(choose_mode@i),w
  1478  1ECF                     u5175:
  1479                           
  1480  1ECF  1C03               	skipc
  1481  1ED0  2ED2               	goto	u5171
  1482  1ED1  2ED3               	goto	u5170
  1483  1ED2                     u5171:
  1484  1ED2  2EB2               	goto	l6908
  1485  1ED3                     u5170:
  1486  1ED3  2ED4               	goto	l756
  1487                           	
  1488  1ED4                     l758:	
  1489                           	line	131
  1490                           	
  1491  1ED4                     l756:	
  1492                           	line	133
  1493                           ;LED Cube.c: 130: }
  1494                           ;LED Cube.c: 131: }
  1495                           ;LED Cube.c: 133: if(RB0 == 0)
  1496  1ED4  1283               	bcf	status, 5	;RP0=0, select bank0
  1497  1ED5  1303               	bcf	status, 6	;RP1=0, select bank0
  1498  1ED6  1806               	btfsc	(48/8),(48)&7
  1499  1ED7  2ED9               	goto	u5181
  1500  1ED8  2EDA               	goto	u5180
  1501  1ED9                     u5181:
  1502  1ED9  2EF8               	goto	l6924
  1503  1EDA                     u5180:
  1504  1EDA  2EDC               	goto	l760
  1505                           	line	135
  1506                           	
  1507  1EDB                     l6914:	
  1508                           ;LED Cube.c: 134: {
  1509                           ;LED Cube.c: 135: while(RB0 == 0) continue;
  1510  1EDB  2EDC               	goto	l760
  1511                           	
  1512  1EDC                     l761:	
  1513                           	
  1514  1EDC                     l760:	
  1515  1EDC  1C06               	btfss	(48/8),(48)&7
  1516  1EDD  2EDF               	goto	u5191
  1517  1EDE  2EE0               	goto	u5190
  1518  1EDF                     u5191:
  1519  1EDF  2EDC               	goto	l760
  1520  1EE0                     u5190:
  1521  1EE0  2EE1               	goto	l6916
  1522                           	
  1523  1EE1                     l762:	
  1524                           	line	137
  1525                           	
  1526  1EE1                     l6916:	
  1527                           ;LED Cube.c: 137: if (temp_mode<7)
  1528  1EE1  3007               	movlw	(07h)
  1529  1EE2  023B               	subwf	(choose_mode@temp_mode),w
  1530  1EE3  1803               	skipnc
  1531  1EE4  2EE6               	goto	u5201
  1532  1EE5  2EE7               	goto	u5200
  1533  1EE6                     u5201:
  1534  1EE6  2EEC               	goto	l6920
  1535  1EE7                     u5200:
  1536                           	line	139
  1537                           	
  1538  1EE7                     l6918:	
  1539                           ;LED Cube.c: 138: {
  1540                           ;LED Cube.c: 139: temp_mode++;
  1541  1EE7  3001               	movlw	(01h)
  1542  1EE8  00FC               	movwf	(??_choose_mode+0)+0
  1543  1EE9  087C               	movf	(??_choose_mode+0)+0,w
  1544  1EEA  07BB               	addwf	(choose_mode@temp_mode),f
  1545                           	line	140
  1546                           ;LED Cube.c: 140: }
  1547  1EEB  2EF0               	goto	l6922
  1548                           	line	142
  1549                           	
  1550  1EEC                     l763:	
  1551                           	line	144
  1552                           	
  1553  1EEC                     l6920:	
  1554                           ;LED Cube.c: 142: else
  1555                           ;LED Cube.c: 143: {
  1556                           ;LED Cube.c: 144: temp_mode = 1;
  1557  1EEC  01BB               	clrf	(choose_mode@temp_mode)
  1558  1EED  1403               	bsf	status,0
  1559  1EEE  0DBB               	rlf	(choose_mode@temp_mode),f
  1560  1EEF  2EF0               	goto	l6922
  1561                           	line	145
  1562                           	
  1563  1EF0                     l764:	
  1564                           	line	146
  1565                           	
  1566  1EF0                     l6922:	
  1567                           ;LED Cube.c: 145: }
  1568                           ;LED Cube.c: 146: show_mode(temp_mode);
  1569  1EF0  083B               	movf	(choose_mode@temp_mode),w
  1570  1EF1  160A  118A  20F7   	fcall	_show_mode
              160A  158A         
  1571  1EF6  2EF8               	goto	l6924
  1572                           	line	147
  1573                           	
  1574  1EF7                     l759:	
  1575  1EF7  2EF8               	goto	l6924
  1576                           	line	148
  1577                           	
  1578  1EF8                     l754:	
  1579                           	line	123
  1580                           	
  1581  1EF8                     l6924:	
  1582  1EF8  1283               	bcf	status, 5	;RP0=0, select bank0
  1583  1EF9  1303               	bcf	status, 6	;RP1=0, select bank0
  1584  1EFA  1886               	btfsc	(49/8),(49)&7
  1585  1EFB  2EFD               	goto	u5211
  1586  1EFC  2EFE               	goto	u5210
  1587  1EFD                     u5211:
  1588  1EFD  2E9C               	goto	l6900
  1589  1EFE                     u5210:
  1590  1EFE  2F00               	goto	l766
  1591                           	
  1592  1EFF                     l765:	
  1593                           	line	149
  1594                           ;LED Cube.c: 147: }
  1595                           ;LED Cube.c: 148: }
  1596                           ;LED Cube.c: 149: while(RB1 == 0) continue;
  1597  1EFF  2F00               	goto	l766
  1598                           	
  1599  1F00                     l767:	
  1600                           	
  1601  1F00                     l766:	
  1602  1F00  1C86               	btfss	(49/8),(49)&7
  1603  1F01  2F03               	goto	u5221
  1604  1F02  2F04               	goto	u5220
  1605  1F03                     u5221:
  1606  1F03  2F00               	goto	l766
  1607  1F04                     u5220:
  1608  1F04  2F06               	goto	l6926
  1609                           	
  1610  1F05                     l768:	
  1611  1F05  2F06               	goto	l6926
  1612                           	line	150
  1613                           	
  1614  1F06                     l752:	
  1615                           	line	121
  1616                           	
  1617  1F06                     l6926:	
  1618  1F06  083B               	movf	(choose_mode@temp_mode),w
  1619  1F07  1D03               	skipz
  1620  1F08  2F0A               	goto	u5230
  1621  1F09  2EF8               	goto	l6924
  1622  1F0A                     u5230:
  1623  1F0A  2F0B               	goto	l6928
  1624                           	
  1625  1F0B                     l769:	
  1626                           	line	151
  1627                           	
  1628  1F0B                     l6928:	
  1629                           ;LED Cube.c: 150: }
  1630                           ;LED Cube.c: 151: return temp_mode;
  1631  1F0B  083B               	movf	(choose_mode@temp_mode),w
  1632  1F0C  2F0D               	goto	l770
  1633                           	
  1634  1F0D                     l6930:	
  1635                           	line	152
  1636                           	
  1637  1F0D                     l770:	
  1638  1F0D  0008               	return
  1639                           	opt stack 0
  1640                           GLOBAL	__end_of_choose_mode
  1641  1F0E                     	__end_of_choose_mode:
  1642 ;; =============== function _choose_mode ends ============
  1643                           
  1644                           	signat	_choose_mode,89
  1645                           	global	_choose_dice
  1646                           psect	text543,local,class=CODE,delta=2
  1647                           global __ptext543
  1648  12ED                     __ptext543:
  1649                           
  1650 ;; *************** function _choose_dice *****************
  1651 ;; Defined at:
  1652 ;;		line 491 in file "C:\Users\Younce\Desktop\LED Cube 8 x 8 x 8\Effect.c"
  1653 ;; Parameters:    Size  Location     Type
  1654 ;;  number          1    wreg     unsigned char 
  1655 ;; Auto vars:     Size  Location     Type
  1656 ;;  number          1   17[BANK0 ] unsigned char 
  1657 ;;  dice_pattern    8   18[BANK0 ] unsigned char [8]
  1658 ;;  temp_switch     1   16[BANK0 ] unsigned char 
  1659 ;; Return value:  Size  Location     Type
  1660 ;;		None               void
  1661 ;; Registers used:
  1662 ;;		wreg, fsr0l, fsr0h, status,2, status,0, btemp+1, pclath, cstack
  1663 ;; Tracked objects:
  1664 ;;		On entry : 0/0
  1665 ;;		On exit  : 0/0
  1666 ;;		Unchanged: 0/0
  1667 ;; Data sizes:     COMMON   BANK0   BANK1   BANK3   BANK2
  1668 ;;      Params:         0       0       0       0       0
  1669 ;;      Locals:         0      10       0       0       0
  1670 ;;      Temps:          4       0       0       0       0
  1671 ;;      Totals:         4      10       0       0       0
  1672 ;;Total ram usage:       14 bytes
  1673 ;; Hardware stack levels used:    1
  1674 ;; Hardware stack levels required when called:    1
  1675 ;; This function calls:
  1676 ;;		_show_pattern_on_a_plane
  1677 ;; This function is called by:
  1678 ;;		_dice
  1679 ;; This function uses a non-reentrant model
  1680 ;;
  1681                           psect	text543
  1682                           	file	"C:\Users\Younce\Desktop\LED Cube 8 x 8 x 8\Effect.c"
  1683                           	line	491
  1684                           	global	__size_of_choose_dice
  1685  0164                     	__size_of_choose_dice	equ	__end_of_choose_dice-_choose_dice
  1686                           	
  1687  12ED                     _choose_dice:	
  1688                           	opt	stack 5
  1689                           ; Regs used in _choose_dice: [wreg-fsr0h+status,2+status,0+btemp+1+pclath+cstack]
  1690                           ;choose_dice@number stored from wreg
  1691                           	line	492
  1692  12ED  1283               	bcf	status, 5	;RP0=0, select bank0
  1693  12EE  1303               	bcf	status, 6	;RP1=0, select bank0
  1694  12EF  00B1               	movwf	(choose_dice@number)
  1695                           	
  1696  12F0                     l6866:	
  1697                           ;Effect.c: 492: unsigned char dice_pattern[8] = {{0}};
  1698  12F0  3032               	movlw	(choose_dice@dice_pattern)&0ffh
  1699  12F1  0084               	movwf	fsr0
  1700  12F2  30E6               	movlw	low(choose_dice@F1183)
  1701  12F3  00F5               	movwf	(??_choose_dice+0)+0
  1702  12F4  0804               	movf	fsr0,w
  1703  12F5  00F6               	movwf	((??_choose_dice+0)+0+1)
  1704  12F6  3008               	movlw	8
  1705  12F7  00F7               	movwf	((??_choose_dice+0)+0+2)
  1706  12F8                     u5120:
  1707  12F8  0875               	movf	(??_choose_dice+0)+0,w
  1708  12F9  0084               	movwf	fsr0
  1709  12FA  1383               	bcf	status, 7	;select IRP bank1
  1710                           	
  1711  12FB  0800               	movf	indf,w
  1712  12FC  00F8               	movwf	((??_choose_dice+0)+0+3)
  1713  12FD  0AF5               	incf	(??_choose_dice+0)+0,f
  1714  12FE  0876               	movf	((??_choose_dice+0)+0+1),w
  1715  12FF  0084               	movwf	fsr0
  1716                           	
  1717  1300  0878               	movf	((??_choose_dice+0)+0+3),w
  1718  1301  0080               	movwf	indf
  1719  1302  0AF6               	incf	((??_choose_dice+0)+0+1),f
  1720  1303  0BF7               	decfsz	((??_choose_dice+0)+0+2),f
  1721  1304  2AF8               	goto	u5120
  1722                           	line	493
  1723                           	
  1724  1305                     l6868:	
  1725                           ;Effect.c: 493: unsigned char temp_switch = 0;
  1726  1305  01B0               	clrf	(choose_dice@temp_switch)
  1727                           	line	494
  1728                           ;Effect.c: 494: switch(number)
  1729  1306  2C2C               	goto	l6896
  1730                           	line	496
  1731                           ;Effect.c: 495: {
  1732                           ;Effect.c: 496: case 1: dice_pattern[0] = 0xff;
  1733                           	
  1734  1307                     l2315:	
  1735                           	
  1736  1307                     l6870:	
  1737  1307  30FF               	movlw	(0FFh)
  1738  1308  00F5               	movwf	(??_choose_dice+0)+0
  1739  1309  0875               	movf	(??_choose_dice+0)+0,w
  1740  130A  00B2               	movwf	(choose_dice@dice_pattern)
  1741                           	line	497
  1742                           ;Effect.c: 497: dice_pattern[1] = 0x81;
  1743  130B  3081               	movlw	(081h)
  1744  130C  00F5               	movwf	(??_choose_dice+0)+0
  1745  130D  0875               	movf	(??_choose_dice+0)+0,w
  1746  130E  00B3               	movwf	0+(choose_dice@dice_pattern)+01h
  1747                           	line	498
  1748                           ;Effect.c: 498: dice_pattern[2] = 0x81;
  1749  130F  3081               	movlw	(081h)
  1750  1310  00F5               	movwf	(??_choose_dice+0)+0
  1751  1311  0875               	movf	(??_choose_dice+0)+0,w
  1752  1312  00B4               	movwf	0+(choose_dice@dice_pattern)+02h
  1753                           	line	499
  1754                           ;Effect.c: 499: dice_pattern[3] = 0x99;
  1755  1313  3099               	movlw	(099h)
  1756  1314  00F5               	movwf	(??_choose_dice+0)+0
  1757  1315  0875               	movf	(??_choose_dice+0)+0,w
  1758  1316  00B5               	movwf	0+(choose_dice@dice_pattern)+03h
  1759                           	line	500
  1760                           ;Effect.c: 500: dice_pattern[4] = 0x99;
  1761  1317  3099               	movlw	(099h)
  1762  1318  00F5               	movwf	(??_choose_dice+0)+0
  1763  1319  0875               	movf	(??_choose_dice+0)+0,w
  1764  131A  00B6               	movwf	0+(choose_dice@dice_pattern)+04h
  1765                           	line	501
  1766                           ;Effect.c: 501: dice_pattern[5] = 0x81;
  1767  131B  3081               	movlw	(081h)
  1768  131C  00F5               	movwf	(??_choose_dice+0)+0
  1769  131D  0875               	movf	(??_choose_dice+0)+0,w
  1770  131E  00B7               	movwf	0+(choose_dice@dice_pattern)+05h
  1771                           	line	502
  1772                           ;Effect.c: 502: dice_pattern[6] = 0x81;
  1773  131F  3081               	movlw	(081h)
  1774  1320  00F5               	movwf	(??_choose_dice+0)+0
  1775  1321  0875               	movf	(??_choose_dice+0)+0,w
  1776  1322  00B8               	movwf	0+(choose_dice@dice_pattern)+06h
  1777                           	line	503
  1778                           ;Effect.c: 503: dice_pattern[7] = 0xff;
  1779  1323  30FF               	movlw	(0FFh)
  1780  1324  00F5               	movwf	(??_choose_dice+0)+0
  1781  1325  0875               	movf	(??_choose_dice+0)+0,w
  1782  1326  00B9               	movwf	0+(choose_dice@dice_pattern)+07h
  1783                           	line	504
  1784                           	
  1785  1327                     l6872:	
  1786                           ;Effect.c: 504: show_pattern_on_a_plane(7,3,dice_pattern);
  1787  1327  3003               	movlw	(03h)
  1788  1328  00F5               	movwf	(??_choose_dice+0)+0
  1789  1329  0875               	movf	(??_choose_dice+0)+0,w
  1790  132A  00F0               	movwf	(?_show_pattern_on_a_plane)
  1791  132B  3032               	movlw	(choose_dice@dice_pattern)&0ffh
  1792  132C  00F6               	movwf	(??_choose_dice+1)+0
  1793  132D  0876               	movf	(??_choose_dice+1)+0,w
  1794  132E  00F1               	movwf	0+(?_show_pattern_on_a_plane)+01h
  1795  132F  3007               	movlw	(07h)
  1796  1330  160A  118A  2451   	fcall	_show_pattern_on_a_plane
              160A  118A         
  1797                           	line	505
  1798                           ;Effect.c: 505: break;
  1799  1335  2C43               	goto	l2322
  1800                           	line	507
  1801                           ;Effect.c: 507: case 2: dice_pattern[0] = 0xff;
  1802                           	
  1803  1336                     l2317:	
  1804                           	
  1805  1336                     l6874:	
  1806  1336  30FF               	movlw	(0FFh)
  1807  1337  00F5               	movwf	(??_choose_dice+0)+0
  1808  1338  0875               	movf	(??_choose_dice+0)+0,w
  1809  1339  1283               	bcf	status, 5	;RP0=0, select bank0
  1810  133A  1303               	bcf	status, 6	;RP1=0, select bank0
  1811  133B  00B2               	movwf	(choose_dice@dice_pattern)
  1812                           	line	508
  1813                           ;Effect.c: 508: dice_pattern[1] = 0x81;
  1814  133C  3081               	movlw	(081h)
  1815  133D  00F5               	movwf	(??_choose_dice+0)+0
  1816  133E  0875               	movf	(??_choose_dice+0)+0,w
  1817  133F  00B3               	movwf	0+(choose_dice@dice_pattern)+01h
  1818                           	line	509
  1819                           ;Effect.c: 509: dice_pattern[2] = 0x81;
  1820  1340  3081               	movlw	(081h)
  1821  1341  00F5               	movwf	(??_choose_dice+0)+0
  1822  1342  0875               	movf	(??_choose_dice+0)+0,w
  1823  1343  00B4               	movwf	0+(choose_dice@dice_pattern)+02h
  1824                           	line	510
  1825                           ;Effect.c: 510: dice_pattern[3] = 0xe7;
  1826  1344  30E7               	movlw	(0E7h)
  1827  1345  00F5               	movwf	(??_choose_dice+0)+0
  1828  1346  0875               	movf	(??_choose_dice+0)+0,w
  1829  1347  00B5               	movwf	0+(choose_dice@dice_pattern)+03h
  1830                           	line	511
  1831                           ;Effect.c: 511: dice_pattern[4] = 0xe7;
  1832  1348  30E7               	movlw	(0E7h)
  1833  1349  00F5               	movwf	(??_choose_dice+0)+0
  1834  134A  0875               	movf	(??_choose_dice+0)+0,w
  1835  134B  00B6               	movwf	0+(choose_dice@dice_pattern)+04h
  1836                           	line	512
  1837                           ;Effect.c: 512: dice_pattern[5] = 0x81;
  1838  134C  3081               	movlw	(081h)
  1839  134D  00F5               	movwf	(??_choose_dice+0)+0
  1840  134E  0875               	movf	(??_choose_dice+0)+0,w
  1841  134F  00B7               	movwf	0+(choose_dice@dice_pattern)+05h
  1842                           	line	513
  1843                           ;Effect.c: 513: dice_pattern[6] = 0x81;
  1844  1350  3081               	movlw	(081h)
  1845  1351  00F5               	movwf	(??_choose_dice+0)+0
  1846  1352  0875               	movf	(??_choose_dice+0)+0,w
  1847  1353  00B8               	movwf	0+(choose_dice@dice_pattern)+06h
  1848                           	line	514
  1849                           ;Effect.c: 514: dice_pattern[7] = 0xff;
  1850  1354  30FF               	movlw	(0FFh)
  1851  1355  00F5               	movwf	(??_choose_dice+0)+0
  1852  1356  0875               	movf	(??_choose_dice+0)+0,w
  1853  1357  00B9               	movwf	0+(choose_dice@dice_pattern)+07h
  1854                           	line	515
  1855                           	
  1856  1358                     l6876:	
  1857                           ;Effect.c: 515: show_pattern_on_a_plane(7,3,dice_pattern);
  1858  1358  3003               	movlw	(03h)
  1859  1359  00F5               	movwf	(??_choose_dice+0)+0
  1860  135A  0875               	movf	(??_choose_dice+0)+0,w
  1861  135B  00F0               	movwf	(?_show_pattern_on_a_plane)
  1862  135C  3032               	movlw	(choose_dice@dice_pattern)&0ffh
  1863  135D  00F6               	movwf	(??_choose_dice+1)+0
  1864  135E  0876               	movf	(??_choose_dice+1)+0,w
  1865  135F  00F1               	movwf	0+(?_show_pattern_on_a_plane)+01h
  1866  1360  3007               	movlw	(07h)
  1867  1361  160A  118A  2451   	fcall	_show_pattern_on_a_plane
              160A  118A         
  1868                           	line	516
  1869                           ;Effect.c: 516: break;
  1870  1366  2C43               	goto	l2322
  1871                           	line	518
  1872                           ;Effect.c: 518: case 3: dice_pattern[0] = 0xff;
  1873                           	
  1874  1367                     l2318:	
  1875                           	
  1876  1367                     l6878:	
  1877  1367  30FF               	movlw	(0FFh)
  1878  1368  00F5               	movwf	(??_choose_dice+0)+0
  1879  1369  0875               	movf	(??_choose_dice+0)+0,w
  1880  136A  1283               	bcf	status, 5	;RP0=0, select bank0
  1881  136B  1303               	bcf	status, 6	;RP1=0, select bank0
  1882  136C  00B2               	movwf	(choose_dice@dice_pattern)
  1883                           	line	519
  1884                           ;Effect.c: 519: dice_pattern[1] = 0x87;
  1885  136D  3087               	movlw	(087h)
  1886  136E  00F5               	movwf	(??_choose_dice+0)+0
  1887  136F  0875               	movf	(??_choose_dice+0)+0,w
  1888  1370  00B3               	movwf	0+(choose_dice@dice_pattern)+01h
  1889                           	line	520
  1890                           ;Effect.c: 520: dice_pattern[2] = 0x87;
  1891  1371  3087               	movlw	(087h)
  1892  1372  00F5               	movwf	(??_choose_dice+0)+0
  1893  1373  0875               	movf	(??_choose_dice+0)+0,w
  1894  1374  00B4               	movwf	0+(choose_dice@dice_pattern)+02h
  1895                           	line	521
  1896                           ;Effect.c: 521: dice_pattern[3] = 0x99;
  1897  1375  3099               	movlw	(099h)
  1898  1376  00F5               	movwf	(??_choose_dice+0)+0
  1899  1377  0875               	movf	(??_choose_dice+0)+0,w
  1900  1378  00B5               	movwf	0+(choose_dice@dice_pattern)+03h
  1901                           	line	522
  1902                           ;Effect.c: 522: dice_pattern[4] = 0x99;
  1903  1379  3099               	movlw	(099h)
  1904  137A  00F5               	movwf	(??_choose_dice+0)+0
  1905  137B  0875               	movf	(??_choose_dice+0)+0,w
  1906  137C  00B6               	movwf	0+(choose_dice@dice_pattern)+04h
  1907                           	line	523
  1908                           ;Effect.c: 523: dice_pattern[5] = 0xe1;
  1909  137D  30E1               	movlw	(0E1h)
  1910  137E  00F5               	movwf	(??_choose_dice+0)+0
  1911  137F  0875               	movf	(??_choose_dice+0)+0,w
  1912  1380  00B7               	movwf	0+(choose_dice@dice_pattern)+05h
  1913                           	line	524
  1914                           ;Effect.c: 524: dice_pattern[6] = 0xe1;
  1915  1381  30E1               	movlw	(0E1h)
  1916  1382  00F5               	movwf	(??_choose_dice+0)+0
  1917  1383  0875               	movf	(??_choose_dice+0)+0,w
  1918  1384  00B8               	movwf	0+(choose_dice@dice_pattern)+06h
  1919                           	line	525
  1920                           ;Effect.c: 525: dice_pattern[7] = 0xff;
  1921  1385  30FF               	movlw	(0FFh)
  1922  1386  00F5               	movwf	(??_choose_dice+0)+0
  1923  1387  0875               	movf	(??_choose_dice+0)+0,w
  1924  1388  00B9               	movwf	0+(choose_dice@dice_pattern)+07h
  1925                           	line	526
  1926                           	
  1927  1389                     l6880:	
  1928                           ;Effect.c: 526: show_pattern_on_a_plane(7,3,dice_pattern);
  1929  1389  3003               	movlw	(03h)
  1930  138A  00F5               	movwf	(??_choose_dice+0)+0
  1931  138B  0875               	movf	(??_choose_dice+0)+0,w
  1932  138C  00F0               	movwf	(?_show_pattern_on_a_plane)
  1933  138D  3032               	movlw	(choose_dice@dice_pattern)&0ffh
  1934  138E  00F6               	movwf	(??_choose_dice+1)+0
  1935  138F  0876               	movf	(??_choose_dice+1)+0,w
  1936  1390  00F1               	movwf	0+(?_show_pattern_on_a_plane)+01h
  1937  1391  3007               	movlw	(07h)
  1938  1392  160A  118A  2451   	fcall	_show_pattern_on_a_plane
              160A  118A         
  1939                           	line	527
  1940                           ;Effect.c: 527: break;
  1941  1397  2C43               	goto	l2322
  1942                           	line	529
  1943                           ;Effect.c: 529: case 4: dice_pattern[0] = 0xff;
  1944                           	
  1945  1398                     l2319:	
  1946                           	
  1947  1398                     l6882:	
  1948  1398  30FF               	movlw	(0FFh)
  1949  1399  00F5               	movwf	(??_choose_dice+0)+0
  1950  139A  0875               	movf	(??_choose_dice+0)+0,w
  1951  139B  1283               	bcf	status, 5	;RP0=0, select bank0
  1952  139C  1303               	bcf	status, 6	;RP1=0, select bank0
  1953  139D  00B2               	movwf	(choose_dice@dice_pattern)
  1954                           	line	530
  1955                           ;Effect.c: 530: dice_pattern[1] = 0xe7;
  1956  139E  30E7               	movlw	(0E7h)
  1957  139F  00F5               	movwf	(??_choose_dice+0)+0
  1958  13A0  0875               	movf	(??_choose_dice+0)+0,w
  1959  13A1  00B3               	movwf	0+(choose_dice@dice_pattern)+01h
  1960                           	line	531
  1961                           ;Effect.c: 531: dice_pattern[2] = 0xe7;
  1962  13A2  30E7               	movlw	(0E7h)
  1963  13A3  00F5               	movwf	(??_choose_dice+0)+0
  1964  13A4  0875               	movf	(??_choose_dice+0)+0,w
  1965  13A5  00B4               	movwf	0+(choose_dice@dice_pattern)+02h
  1966                           	line	532
  1967                           ;Effect.c: 532: dice_pattern[3] = 0x81;
  1968  13A6  3081               	movlw	(081h)
  1969  13A7  00F5               	movwf	(??_choose_dice+0)+0
  1970  13A8  0875               	movf	(??_choose_dice+0)+0,w
  1971  13A9  00B5               	movwf	0+(choose_dice@dice_pattern)+03h
  1972                           	line	533
  1973                           ;Effect.c: 533: dice_pattern[4] = 0x81;
  1974  13AA  3081               	movlw	(081h)
  1975  13AB  00F5               	movwf	(??_choose_dice+0)+0
  1976  13AC  0875               	movf	(??_choose_dice+0)+0,w
  1977  13AD  00B6               	movwf	0+(choose_dice@dice_pattern)+04h
  1978                           	line	534
  1979                           ;Effect.c: 534: dice_pattern[5] = 0xe7;
  1980  13AE  30E7               	movlw	(0E7h)
  1981  13AF  00F5               	movwf	(??_choose_dice+0)+0
  1982  13B0  0875               	movf	(??_choose_dice+0)+0,w
  1983  13B1  00B7               	movwf	0+(choose_dice@dice_pattern)+05h
  1984                           	line	535
  1985                           ;Effect.c: 535: dice_pattern[6] = 0xe7;
  1986  13B2  30E7               	movlw	(0E7h)
  1987  13B3  00F5               	movwf	(??_choose_dice+0)+0
  1988  13B4  0875               	movf	(??_choose_dice+0)+0,w
  1989  13B5  00B8               	movwf	0+(choose_dice@dice_pattern)+06h
  1990                           	line	536
  1991                           ;Effect.c: 536: dice_pattern[7] = 0xff;
  1992  13B6  30FF               	movlw	(0FFh)
  1993  13B7  00F5               	movwf	(??_choose_dice+0)+0
  1994  13B8  0875               	movf	(??_choose_dice+0)+0,w
  1995  13B9  00B9               	movwf	0+(choose_dice@dice_pattern)+07h
  1996                           	line	537
  1997                           	
  1998  13BA                     l6884:	
  1999                           ;Effect.c: 537: show_pattern_on_a_plane(7,3,dice_pattern);
  2000  13BA  3003               	movlw	(03h)
  2001  13BB  00F5               	movwf	(??_choose_dice+0)+0
  2002  13BC  0875               	movf	(??_choose_dice+0)+0,w
  2003  13BD  00F0               	movwf	(?_show_pattern_on_a_plane)
  2004  13BE  3032               	movlw	(choose_dice@dice_pattern)&0ffh
  2005  13BF  00F6               	movwf	(??_choose_dice+1)+0
  2006  13C0  0876               	movf	(??_choose_dice+1)+0,w
  2007  13C1  00F1               	movwf	0+(?_show_pattern_on_a_plane)+01h
  2008  13C2  3007               	movlw	(07h)
  2009  13C3  160A  118A  2451   	fcall	_show_pattern_on_a_plane
              160A  118A         
  2010                           	line	538
  2011                           ;Effect.c: 538: break;
  2012  13C8  2C43               	goto	l2322
  2013                           	line	540
  2014                           ;Effect.c: 540: case 5: dice_pattern[0] = 0xff;
  2015                           	
  2016  13C9                     l2320:	
  2017                           	
  2018  13C9                     l6886:	
  2019  13C9  30FF               	movlw	(0FFh)
  2020  13CA  00F5               	movwf	(??_choose_dice+0)+0
  2021  13CB  0875               	movf	(??_choose_dice+0)+0,w
  2022  13CC  1283               	bcf	status, 5	;RP0=0, select bank0
  2023  13CD  1303               	bcf	status, 6	;RP1=0, select bank0
  2024  13CE  00B2               	movwf	(choose_dice@dice_pattern)
  2025                           	line	541
  2026                           ;Effect.c: 541: dice_pattern[1] = 0xe7;
  2027  13CF  30E7               	movlw	(0E7h)
  2028  13D0  00F5               	movwf	(??_choose_dice+0)+0
  2029  13D1  0875               	movf	(??_choose_dice+0)+0,w
  2030  13D2  00B3               	movwf	0+(choose_dice@dice_pattern)+01h
  2031                           	line	542
  2032                           ;Effect.c: 542: dice_pattern[2] = 0xe7;
  2033  13D3  30E7               	movlw	(0E7h)
  2034  13D4  00F5               	movwf	(??_choose_dice+0)+0
  2035  13D5  0875               	movf	(??_choose_dice+0)+0,w
  2036  13D6  00B4               	movwf	0+(choose_dice@dice_pattern)+02h
  2037                           	line	543
  2038                           ;Effect.c: 543: dice_pattern[3] = 0x99;
  2039  13D7  3099               	movlw	(099h)
  2040  13D8  00F5               	movwf	(??_choose_dice+0)+0
  2041  13D9  0875               	movf	(??_choose_dice+0)+0,w
  2042  13DA  00B5               	movwf	0+(choose_dice@dice_pattern)+03h
  2043                           	line	544
  2044                           ;Effect.c: 544: dice_pattern[4] = 0x99;
  2045  13DB  3099               	movlw	(099h)
  2046  13DC  00F5               	movwf	(??_choose_dice+0)+0
  2047  13DD  0875               	movf	(??_choose_dice+0)+0,w
  2048  13DE  00B6               	movwf	0+(choose_dice@dice_pattern)+04h
  2049                           	line	545
  2050                           ;Effect.c: 545: dice_pattern[5] = 0xe7;
  2051  13DF  30E7               	movlw	(0E7h)
  2052  13E0  00F5               	movwf	(??_choose_dice+0)+0
  2053  13E1  0875               	movf	(??_choose_dice+0)+0,w
  2054  13E2  00B7               	movwf	0+(choose_dice@dice_pattern)+05h
  2055                           	line	546
  2056                           ;Effect.c: 546: dice_pattern[6] = 0xe7;
  2057  13E3  30E7               	movlw	(0E7h)
  2058  13E4  00F5               	movwf	(??_choose_dice+0)+0
  2059  13E5  0875               	movf	(??_choose_dice+0)+0,w
  2060  13E6  00B8               	movwf	0+(choose_dice@dice_pattern)+06h
  2061                           	line	547
  2062                           ;Effect.c: 547: dice_pattern[7] = 0xff;
  2063  13E7  30FF               	movlw	(0FFh)
  2064  13E8  00F5               	movwf	(??_choose_dice+0)+0
  2065  13E9  0875               	movf	(??_choose_dice+0)+0,w
  2066  13EA  00B9               	movwf	0+(choose_dice@dice_pattern)+07h
  2067                           	line	548
  2068                           	
  2069  13EB                     l6888:	
  2070                           ;Effect.c: 548: show_pattern_on_a_plane(7,3,dice_pattern);
  2071  13EB  3003               	movlw	(03h)
  2072  13EC  00F5               	movwf	(??_choose_dice+0)+0
  2073  13ED  0875               	movf	(??_choose_dice+0)+0,w
  2074  13EE  00F0               	movwf	(?_show_pattern_on_a_plane)
  2075  13EF  3032               	movlw	(choose_dice@dice_pattern)&0ffh
  2076  13F0  00F6               	movwf	(??_choose_dice+1)+0
  2077  13F1  0876               	movf	(??_choose_dice+1)+0,w
  2078  13F2  00F1               	movwf	0+(?_show_pattern_on_a_plane)+01h
  2079  13F3  3007               	movlw	(07h)
  2080  13F4  160A  118A  2451   	fcall	_show_pattern_on_a_plane
              160A  118A         
  2081                           	line	549
  2082                           ;Effect.c: 549: break;
  2083  13F9  2C43               	goto	l2322
  2084                           	line	551
  2085                           ;Effect.c: 551: case 6: dice_pattern[0] = 0xff;
  2086                           	
  2087  13FA                     l2321:	
  2088                           	
  2089  13FA                     l6890:	
  2090  13FA  30FF               	movlw	(0FFh)
  2091  13FB  00F5               	movwf	(??_choose_dice+0)+0
  2092  13FC  0875               	movf	(??_choose_dice+0)+0,w
  2093  13FD  1283               	bcf	status, 5	;RP0=0, select bank0
  2094  13FE  1303               	bcf	status, 6	;RP1=0, select bank0
  2095  13FF  00B2               	movwf	(choose_dice@dice_pattern)
  2096                           	line	552
  2097                           ;Effect.c: 552: dice_pattern[1] = 0xe7;
  2098  1400  30E7               	movlw	(0E7h)
  2099  1401  00F5               	movwf	(??_choose_dice+0)+0
  2100  1402  0875               	movf	(??_choose_dice+0)+0,w
  2101  1403  00B3               	movwf	0+(choose_dice@dice_pattern)+01h
  2102                           	line	553
  2103                           ;Effect.c: 553: dice_pattern[2] = 0xe7;
  2104  1404  30E7               	movlw	(0E7h)
  2105  1405  00F5               	movwf	(??_choose_dice+0)+0
  2106  1406  0875               	movf	(??_choose_dice+0)+0,w
  2107  1407  00B4               	movwf	0+(choose_dice@dice_pattern)+02h
  2108                           	line	554
  2109                           ;Effect.c: 554: dice_pattern[3] = 0xe7;
  2110  1408  30E7               	movlw	(0E7h)
  2111  1409  00F5               	movwf	(??_choose_dice+0)+0
  2112  140A  0875               	movf	(??_choose_dice+0)+0,w
  2113  140B  00B5               	movwf	0+(choose_dice@dice_pattern)+03h
  2114                           	line	555
  2115                           ;Effect.c: 555: dice_pattern[4] = 0xe7;
  2116  140C  30E7               	movlw	(0E7h)
  2117  140D  00F5               	movwf	(??_choose_dice+0)+0
  2118  140E  0875               	movf	(??_choose_dice+0)+0,w
  2119  140F  00B6               	movwf	0+(choose_dice@dice_pattern)+04h
  2120                           	line	556
  2121                           ;Effect.c: 556: dice_pattern[5] = 0xe7;
  2122  1410  30E7               	movlw	(0E7h)
  2123  1411  00F5               	movwf	(??_choose_dice+0)+0
  2124  1412  0875               	movf	(??_choose_dice+0)+0,w
  2125  1413  00B7               	movwf	0+(choose_dice@dice_pattern)+05h
  2126                           	line	557
  2127                           ;Effect.c: 557: dice_pattern[6] = 0xe7;
  2128  1414  30E7               	movlw	(0E7h)
  2129  1415  00F5               	movwf	(??_choose_dice+0)+0
  2130  1416  0875               	movf	(??_choose_dice+0)+0,w
  2131  1417  00B8               	movwf	0+(choose_dice@dice_pattern)+06h
  2132                           	line	558
  2133                           ;Effect.c: 558: dice_pattern[7] = 0xff;
  2134  1418  30FF               	movlw	(0FFh)
  2135  1419  00F5               	movwf	(??_choose_dice+0)+0
  2136  141A  0875               	movf	(??_choose_dice+0)+0,w
  2137  141B  00B9               	movwf	0+(choose_dice@dice_pattern)+07h
  2138                           	line	559
  2139                           	
  2140  141C                     l6892:	
  2141                           ;Effect.c: 559: show_pattern_on_a_plane(7,3,dice_pattern);
  2142  141C  3003               	movlw	(03h)
  2143  141D  00F5               	movwf	(??_choose_dice+0)+0
  2144  141E  0875               	movf	(??_choose_dice+0)+0,w
  2145  141F  00F0               	movwf	(?_show_pattern_on_a_plane)
  2146  1420  3032               	movlw	(choose_dice@dice_pattern)&0ffh
  2147  1421  00F6               	movwf	(??_choose_dice+1)+0
  2148  1422  0876               	movf	(??_choose_dice+1)+0,w
  2149  1423  00F1               	movwf	0+(?_show_pattern_on_a_plane)+01h
  2150  1424  3007               	movlw	(07h)
  2151  1425  160A  118A  2451   	fcall	_show_pattern_on_a_plane
              160A  118A         
  2152                           	line	560
  2153                           ;Effect.c: 560: break;
  2154  142A  2C43               	goto	l2322
  2155                           	line	561
  2156                           	
  2157  142B                     l6894:	
  2158                           ;Effect.c: 561: }
  2159  142B  2C43               	goto	l2322
  2160                           	line	494
  2161                           	
  2162  142C                     l2314:	
  2163                           	
  2164  142C                     l6896:	
  2165  142C  1283               	bcf	status, 5	;RP0=0, select bank0
  2166  142D  1303               	bcf	status, 6	;RP1=0, select bank0
  2167  142E  0831               	movf	(choose_dice@number),w
  2168                           	; Switch size 1, requested type "space"
  2169                           ; Number of cases is 6, Range of values is 1 to 6
  2170                           ; switch strategies available:
  2171                           ; Name         Instructions Cycles
  2172                           ; simple_byte           19    10 (average)
  2173                           ; direct_byte           29    11 (fixed)
  2174                           ; jumptable            263     9 (fixed)
  2175                           ;	Chosen strategy is simple_byte
  2176                           
  2177                           	opt asmopt_off
  2178  142F  3A01               	xorlw	1^0	; case 1
  2179  1430  1903               	skipnz
  2180  1431  2B07               	goto	l6870
  2181  1432  3A03               	xorlw	2^1	; case 2
  2182  1433  1903               	skipnz
  2183  1434  2B36               	goto	l6874
  2184  1435  3A01               	xorlw	3^2	; case 3
  2185  1436  1903               	skipnz
  2186  1437  2B67               	goto	l6878
  2187  1438  3A07               	xorlw	4^3	; case 4
  2188  1439  1903               	skipnz
  2189  143A  2B98               	goto	l6882
  2190  143B  3A01               	xorlw	5^4	; case 5
  2191  143C  1903               	skipnz
  2192  143D  2BC9               	goto	l6886
  2193  143E  3A03               	xorlw	6^5	; case 6
  2194  143F  1903               	skipnz
  2195  1440  2BFA               	goto	l6890
  2196  1441  2C43               	goto	l2322
  2197                           	opt asmopt_on
  2198                           
  2199                           	line	561
  2200                           	
  2201  1442                     l2316:	
  2202                           	line	562
  2203                           ;Effect.c: 562: while(RB0 == 1);
  2204  1442  2C43               	goto	l2322
  2205                           	
  2206  1443                     l2323:	
  2207                           	
  2208  1443                     l2322:	
  2209  1443  1283               	bcf	status, 5	;RP0=0, select bank0
  2210  1444  1303               	bcf	status, 6	;RP1=0, select bank0
  2211  1445  1806               	btfsc	(48/8),(48)&7
  2212  1446  2C48               	goto	u5131
  2213  1447  2C49               	goto	u5130
  2214  1448                     u5131:
  2215  1448  2C43               	goto	l2322
  2216  1449                     u5130:
  2217  1449  2C4B               	goto	l2325
  2218                           	
  2219  144A                     l2324:	
  2220                           	line	563
  2221                           ;Effect.c: 563: while(RB0 == 0);
  2222  144A  2C4B               	goto	l2325
  2223                           	
  2224  144B                     l2326:	
  2225                           	
  2226  144B                     l2325:	
  2227  144B  1C06               	btfss	(48/8),(48)&7
  2228  144C  2C4E               	goto	u5141
  2229  144D  2C4F               	goto	u5140
  2230  144E                     u5141:
  2231  144E  2C4B               	goto	l2325
  2232  144F                     u5140:
  2233  144F  2C50               	goto	l2328
  2234                           	
  2235  1450                     l2327:	
  2236                           	line	564
  2237                           	
  2238  1450                     l2328:	
  2239  1450  0008               	return
  2240                           	opt stack 0
  2241                           GLOBAL	__end_of_choose_dice
  2242  1451                     	__end_of_choose_dice:
  2243 ;; =============== function _choose_dice ends ============
  2244                           
  2245                           	signat	_choose_dice,4216
  2246                           	global	_show_mode
  2247                           psect	text544,local,class=CODE,delta=2
  2248                           global __ptext544
  2249  10F7                     __ptext544:
  2250                           
  2251 ;; *************** function _show_mode *****************
  2252 ;; Defined at:
  2253 ;;		line 156 in file "C:\Users\Younce\Desktop\LED Cube 8 x 8 x 8\LED Cube.c"
  2254 ;; Parameters:    Size  Location     Type
  2255 ;;  mode            1    wreg     unsigned char 
  2256 ;; Auto vars:     Size  Location     Type
  2257 ;;  mode            1   16[BANK0 ] unsigned char 
  2258 ;;  mode_pattern    8   17[BANK0 ] unsigned char [8]
  2259 ;; Return value:  Size  Location     Type
  2260 ;;		None               void
  2261 ;; Registers used:
  2262 ;;		wreg, fsr0l, fsr0h, status,2, status,0, btemp+1, pclath, cstack
  2263 ;; Tracked objects:
  2264 ;;		On entry : 0/0
  2265 ;;		On exit  : 0/0
  2266 ;;		Unchanged: 0/0
  2267 ;; Data sizes:     COMMON   BANK0   BANK1   BANK3   BANK2
  2268 ;;      Params:         0       0       0       0       0
  2269 ;;      Locals:         0       9       0       0       0
  2270 ;;      Temps:          4       0       0       0       0
  2271 ;;      Totals:         4       9       0       0       0
  2272 ;;Total ram usage:       13 bytes
  2273 ;; Hardware stack levels used:    1
  2274 ;; Hardware stack levels required when called:    1
  2275 ;; This function calls:
  2276 ;;		_choose_alphabet
  2277 ;;		_show_pattern_on_a_plane
  2278 ;; This function is called by:
  2279 ;;		_choose_mode
  2280 ;; This function uses a non-reentrant model
  2281 ;;
  2282                           psect	text544
  2283                           	file	"C:\Users\Younce\Desktop\LED Cube 8 x 8 x 8\LED Cube.c"
  2284                           	line	156
  2285                           	global	__size_of_show_mode
  2286  00E4                     	__size_of_show_mode	equ	__end_of_show_mode-_show_mode
  2287                           	
  2288  10F7                     _show_mode:	
  2289                           	opt	stack 5
  2290                           ; Regs used in _show_mode: [wreg-fsr0h+status,2+status,0+btemp+1+pclath+cstack]
  2291                           ;show_mode@mode stored from wreg
  2292                           	line	157
  2293  10F7  1283               	bcf	status, 5	;RP0=0, select bank0
  2294  10F8  1303               	bcf	status, 6	;RP1=0, select bank0
  2295  10F9  00B0               	movwf	(show_mode@mode)
  2296                           	
  2297  10FA                     l6832:	
  2298                           ;LED Cube.c: 157: unsigned char mode_pattern[8] = {{0}};
  2299  10FA  3031               	movlw	(show_mode@mode_pattern)&0ffh
  2300  10FB  0084               	movwf	fsr0
  2301  10FC  3064               	movlw	low(show_mode@F1153)
  2302  10FD  00F5               	movwf	(??_show_mode+0)+0
  2303  10FE  0804               	movf	fsr0,w
  2304  10FF  00F6               	movwf	((??_show_mode+0)+0+1)
  2305  1100  3008               	movlw	8
  2306  1101  00F7               	movwf	((??_show_mode+0)+0+2)
  2307  1102                     u5110:
  2308  1102  0875               	movf	(??_show_mode+0)+0,w
  2309  1103  0084               	movwf	fsr0
  2310  1104  1383               	bcf	status, 7	;select IRP bank0
  2311                           	
  2312  1105  0800               	movf	indf,w
  2313  1106  00F8               	movwf	((??_show_mode+0)+0+3)
  2314  1107  0AF5               	incf	(??_show_mode+0)+0,f
  2315  1108  0876               	movf	((??_show_mode+0)+0+1),w
  2316  1109  0084               	movwf	fsr0
  2317                           	
  2318  110A  0878               	movf	((??_show_mode+0)+0+3),w
  2319  110B  0080               	movwf	indf
  2320  110C  0AF6               	incf	((??_show_mode+0)+0+1),f
  2321  110D  0BF7               	decfsz	((??_show_mode+0)+0+2),f
  2322  110E  2902               	goto	u5110
  2323                           	line	158
  2324                           ;LED Cube.c: 158: switch(mode)
  2325  110F  29C1               	goto	l6864
  2326                           	line	160
  2327                           ;LED Cube.c: 159: {
  2328                           ;LED Cube.c: 160: case 1: choose_alphabet('A',mode_pattern);
  2329                           	
  2330  1110                     l776:	
  2331                           	
  2332  1110                     l6834:	
  2333  1110  3031               	movlw	(show_mode@mode_pattern)&0ffh
  2334  1111  00F5               	movwf	(??_show_mode+0)+0
  2335  1112  0875               	movf	(??_show_mode+0)+0,w
  2336  1113  00F0               	movwf	(?_choose_alphabet)
  2337  1114  3041               	movlw	(041h)
  2338  1115  120A  158A  21E3   	fcall	_choose_alphabet
              160A  118A         
  2339                           	line	161
  2340                           	
  2341  111A                     l6836:	
  2342                           ;LED Cube.c: 161: show_pattern_on_a_plane(7,3,mode_pattern);
  2343  111A  3003               	movlw	(03h)
  2344  111B  00F5               	movwf	(??_show_mode+0)+0
  2345  111C  0875               	movf	(??_show_mode+0)+0,w
  2346  111D  00F0               	movwf	(?_show_pattern_on_a_plane)
  2347  111E  3031               	movlw	(show_mode@mode_pattern)&0ffh
  2348  111F  00F6               	movwf	(??_show_mode+1)+0
  2349  1120  0876               	movf	(??_show_mode+1)+0,w
  2350  1121  00F1               	movwf	0+(?_show_pattern_on_a_plane)+01h
  2351  1122  3007               	movlw	(07h)
  2352  1123  160A  118A  2451   	fcall	_show_pattern_on_a_plane
              160A  118A         
  2353                           	line	162
  2354                           ;LED Cube.c: 162: break;
  2355  1128  29DA               	goto	l785
  2356                           	line	164
  2357                           ;LED Cube.c: 164: case 2: choose_alphabet('B',mode_pattern);
  2358                           	
  2359  1129                     l778:	
  2360                           	
  2361  1129                     l6838:	
  2362  1129  3031               	movlw	(show_mode@mode_pattern)&0ffh
  2363  112A  00F5               	movwf	(??_show_mode+0)+0
  2364  112B  0875               	movf	(??_show_mode+0)+0,w
  2365  112C  00F0               	movwf	(?_choose_alphabet)
  2366  112D  3042               	movlw	(042h)
  2367  112E  120A  158A  21E3   	fcall	_choose_alphabet
              160A  118A         
  2368                           	line	165
  2369                           	
  2370  1133                     l6840:	
  2371                           ;LED Cube.c: 165: show_pattern_on_a_plane(7,3,mode_pattern);
  2372  1133  3003               	movlw	(03h)
  2373  1134  00F5               	movwf	(??_show_mode+0)+0
  2374  1135  0875               	movf	(??_show_mode+0)+0,w
  2375  1136  00F0               	movwf	(?_show_pattern_on_a_plane)
  2376  1137  3031               	movlw	(show_mode@mode_pattern)&0ffh
  2377  1138  00F6               	movwf	(??_show_mode+1)+0
  2378  1139  0876               	movf	(??_show_mode+1)+0,w
  2379  113A  00F1               	movwf	0+(?_show_pattern_on_a_plane)+01h
  2380  113B  3007               	movlw	(07h)
  2381  113C  160A  118A  2451   	fcall	_show_pattern_on_a_plane
              160A  118A         
  2382                           	line	166
  2383                           ;LED Cube.c: 166: break;
  2384  1141  29DA               	goto	l785
  2385                           	line	168
  2386                           ;LED Cube.c: 168: case 3: choose_alphabet('C',mode_pattern);
  2387                           	
  2388  1142                     l779:	
  2389                           	
  2390  1142                     l6842:	
  2391  1142  3031               	movlw	(show_mode@mode_pattern)&0ffh
  2392  1143  00F5               	movwf	(??_show_mode+0)+0
  2393  1144  0875               	movf	(??_show_mode+0)+0,w
  2394  1145  00F0               	movwf	(?_choose_alphabet)
  2395  1146  3043               	movlw	(043h)
  2396  1147  120A  158A  21E3   	fcall	_choose_alphabet
              160A  118A         
  2397                           	line	169
  2398                           	
  2399  114C                     l6844:	
  2400                           ;LED Cube.c: 169: show_pattern_on_a_plane(7,3,mode_pattern);
  2401  114C  3003               	movlw	(03h)
  2402  114D  00F5               	movwf	(??_show_mode+0)+0
  2403  114E  0875               	movf	(??_show_mode+0)+0,w
  2404  114F  00F0               	movwf	(?_show_pattern_on_a_plane)
  2405  1150  3031               	movlw	(show_mode@mode_pattern)&0ffh
  2406  1151  00F6               	movwf	(??_show_mode+1)+0
  2407  1152  0876               	movf	(??_show_mode+1)+0,w
  2408  1153  00F1               	movwf	0+(?_show_pattern_on_a_plane)+01h
  2409  1154  3007               	movlw	(07h)
  2410  1155  160A  118A  2451   	fcall	_show_pattern_on_a_plane
              160A  118A         
  2411                           	line	170
  2412                           ;LED Cube.c: 170: break;
  2413  115A  29DA               	goto	l785
  2414                           	line	172
  2415                           ;LED Cube.c: 172: case 4: choose_alphabet('D',mode_pattern);
  2416                           	
  2417  115B                     l780:	
  2418                           	
  2419  115B                     l6846:	
  2420  115B  3031               	movlw	(show_mode@mode_pattern)&0ffh
  2421  115C  00F5               	movwf	(??_show_mode+0)+0
  2422  115D  0875               	movf	(??_show_mode+0)+0,w
  2423  115E  00F0               	movwf	(?_choose_alphabet)
  2424  115F  3044               	movlw	(044h)
  2425  1160  120A  158A  21E3   	fcall	_choose_alphabet
              160A  118A         
  2426                           	line	173
  2427                           	
  2428  1165                     l6848:	
  2429                           ;LED Cube.c: 173: show_pattern_on_a_plane(7,3,mode_pattern);
  2430  1165  3003               	movlw	(03h)
  2431  1166  00F5               	movwf	(??_show_mode+0)+0
  2432  1167  0875               	movf	(??_show_mode+0)+0,w
  2433  1168  00F0               	movwf	(?_show_pattern_on_a_plane)
  2434  1169  3031               	movlw	(show_mode@mode_pattern)&0ffh
  2435  116A  00F6               	movwf	(??_show_mode+1)+0
  2436  116B  0876               	movf	(??_show_mode+1)+0,w
  2437  116C  00F1               	movwf	0+(?_show_pattern_on_a_plane)+01h
  2438  116D  3007               	movlw	(07h)
  2439  116E  160A  118A  2451   	fcall	_show_pattern_on_a_plane
              160A  118A         
  2440                           	line	174
  2441                           ;LED Cube.c: 174: break;
  2442  1173  29DA               	goto	l785
  2443                           	line	176
  2444                           ;LED Cube.c: 176: case 5: choose_alphabet('E',mode_pattern);
  2445                           	
  2446  1174                     l781:	
  2447                           	
  2448  1174                     l6850:	
  2449  1174  3031               	movlw	(show_mode@mode_pattern)&0ffh
  2450  1175  00F5               	movwf	(??_show_mode+0)+0
  2451  1176  0875               	movf	(??_show_mode+0)+0,w
  2452  1177  00F0               	movwf	(?_choose_alphabet)
  2453  1178  3045               	movlw	(045h)
  2454  1179  120A  158A  21E3   	fcall	_choose_alphabet
              160A  118A         
  2455                           	line	177
  2456                           	
  2457  117E                     l6852:	
  2458                           ;LED Cube.c: 177: show_pattern_on_a_plane(7,3,mode_pattern);
  2459  117E  3003               	movlw	(03h)
  2460  117F  00F5               	movwf	(??_show_mode+0)+0
  2461  1180  0875               	movf	(??_show_mode+0)+0,w
  2462  1181  00F0               	movwf	(?_show_pattern_on_a_plane)
  2463  1182  3031               	movlw	(show_mode@mode_pattern)&0ffh
  2464  1183  00F6               	movwf	(??_show_mode+1)+0
  2465  1184  0876               	movf	(??_show_mode+1)+0,w
  2466  1185  00F1               	movwf	0+(?_show_pattern_on_a_plane)+01h
  2467  1186  3007               	movlw	(07h)
  2468  1187  160A  118A  2451   	fcall	_show_pattern_on_a_plane
              160A  118A         
  2469                           	line	178
  2470                           ;LED Cube.c: 178: break;
  2471  118C  29DA               	goto	l785
  2472                           	line	180
  2473                           ;LED Cube.c: 180: case 6: choose_alphabet('F',mode_pattern);
  2474                           	
  2475  118D                     l782:	
  2476                           	
  2477  118D                     l6854:	
  2478  118D  3031               	movlw	(show_mode@mode_pattern)&0ffh
  2479  118E  00F5               	movwf	(??_show_mode+0)+0
  2480  118F  0875               	movf	(??_show_mode+0)+0,w
  2481  1190  00F0               	movwf	(?_choose_alphabet)
  2482  1191  3046               	movlw	(046h)
  2483  1192  120A  158A  21E3   	fcall	_choose_alphabet
              160A  118A         
  2484                           	line	181
  2485                           	
  2486  1197                     l6856:	
  2487                           ;LED Cube.c: 181: show_pattern_on_a_plane(7,3,mode_pattern);
  2488  1197  3003               	movlw	(03h)
  2489  1198  00F5               	movwf	(??_show_mode+0)+0
  2490  1199  0875               	movf	(??_show_mode+0)+0,w
  2491  119A  00F0               	movwf	(?_show_pattern_on_a_plane)
  2492  119B  3031               	movlw	(show_mode@mode_pattern)&0ffh
  2493  119C  00F6               	movwf	(??_show_mode+1)+0
  2494  119D  0876               	movf	(??_show_mode+1)+0,w
  2495  119E  00F1               	movwf	0+(?_show_pattern_on_a_plane)+01h
  2496  119F  3007               	movlw	(07h)
  2497  11A0  160A  118A  2451   	fcall	_show_pattern_on_a_plane
              160A  118A         
  2498                           	line	182
  2499                           ;LED Cube.c: 182: break;
  2500  11A5  29DA               	goto	l785
  2501                           	line	184
  2502                           ;LED Cube.c: 184: case 7: choose_alphabet('G',mode_pattern);
  2503                           	
  2504  11A6                     l783:	
  2505                           	
  2506  11A6                     l6858:	
  2507  11A6  3031               	movlw	(show_mode@mode_pattern)&0ffh
  2508  11A7  00F5               	movwf	(??_show_mode+0)+0
  2509  11A8  0875               	movf	(??_show_mode+0)+0,w
  2510  11A9  00F0               	movwf	(?_choose_alphabet)
  2511  11AA  3047               	movlw	(047h)
  2512  11AB  120A  158A  21E3   	fcall	_choose_alphabet
              160A  118A         
  2513                           	line	185
  2514                           	
  2515  11B0                     l6860:	
  2516                           ;LED Cube.c: 185: show_pattern_on_a_plane(7,3,mode_pattern);
  2517  11B0  3003               	movlw	(03h)
  2518  11B1  00F5               	movwf	(??_show_mode+0)+0
  2519  11B2  0875               	movf	(??_show_mode+0)+0,w
  2520  11B3  00F0               	movwf	(?_show_pattern_on_a_plane)
  2521  11B4  3031               	movlw	(show_mode@mode_pattern)&0ffh
  2522  11B5  00F6               	movwf	(??_show_mode+1)+0
  2523  11B6  0876               	movf	(??_show_mode+1)+0,w
  2524  11B7  00F1               	movwf	0+(?_show_pattern_on_a_plane)+01h
  2525  11B8  3007               	movlw	(07h)
  2526  11B9  160A  118A  2451   	fcall	_show_pattern_on_a_plane
              160A  118A         
  2527                           	line	186
  2528                           ;LED Cube.c: 186: break;
  2529  11BE  29DA               	goto	l785
  2530                           	line	188
  2531                           ;LED Cube.c: 188: default: break;
  2532                           	
  2533  11BF                     l784:	
  2534  11BF  29DA               	goto	l785
  2535                           	line	189
  2536                           	
  2537  11C0                     l6862:	
  2538                           ;LED Cube.c: 189: }
  2539  11C0  29DA               	goto	l785
  2540                           	line	158
  2541                           	
  2542  11C1                     l775:	
  2543                           	
  2544  11C1                     l6864:	
  2545  11C1  1283               	bcf	status, 5	;RP0=0, select bank0
  2546  11C2  1303               	bcf	status, 6	;RP1=0, select bank0
  2547  11C3  0830               	movf	(show_mode@mode),w
  2548                           	; Switch size 1, requested type "space"
  2549                           ; Number of cases is 7, Range of values is 1 to 7
  2550                           ; switch strategies available:
  2551                           ; Name         Instructions Cycles
  2552                           ; simple_byte           22    12 (average)
  2553                           ; direct_byte           32    11 (fixed)
  2554                           ; jumptable            263     9 (fixed)
  2555                           ;	Chosen strategy is simple_byte
  2556                           
  2557                           	opt asmopt_off
  2558  11C4  3A01               	xorlw	1^0	; case 1
  2559  11C5  1903               	skipnz
  2560  11C6  2910               	goto	l6834
  2561  11C7  3A03               	xorlw	2^1	; case 2
  2562  11C8  1903               	skipnz
  2563  11C9  2929               	goto	l6838
  2564  11CA  3A01               	xorlw	3^2	; case 3
  2565  11CB  1903               	skipnz
  2566  11CC  2942               	goto	l6842
  2567  11CD  3A07               	xorlw	4^3	; case 4
  2568  11CE  1903               	skipnz
  2569  11CF  295B               	goto	l6846
  2570  11D0  3A01               	xorlw	5^4	; case 5
  2571  11D1  1903               	skipnz
  2572  11D2  2974               	goto	l6850
  2573  11D3  3A03               	xorlw	6^5	; case 6
  2574  11D4  1903               	skipnz
  2575  11D5  298D               	goto	l6854
  2576  11D6  3A01               	xorlw	7^6	; case 7
  2577  11D7  1903               	skipnz
  2578  11D8  29A6               	goto	l6858
  2579  11D9  29DA               	goto	l785
  2580                           	opt asmopt_on
  2581                           
  2582                           	line	189
  2583                           	
  2584  11DA                     l777:	
  2585                           	line	190
  2586                           	
  2587  11DA                     l785:	
  2588  11DA  0008               	return
  2589                           	opt stack 0
  2590                           GLOBAL	__end_of_show_mode
  2591  11DB                     	__end_of_show_mode:
  2592 ;; =============== function _show_mode ends ============
  2593                           
  2594                           	signat	_show_mode,4216
  2595                           	global	_rotate_plane
  2596                           psect	text545,local,class=CODE,delta=2
  2597                           global __ptext545
  2598  00E5                     __ptext545:
  2599                           
  2600 ;; *************** function _rotate_plane *****************
  2601 ;; Defined at:
  2602 ;;		line 644 in file "C:\Users\Younce\Desktop\LED Cube 8 x 8 x 8\Effect.c"
  2603 ;; Parameters:    Size  Location     Type
  2604 ;;		None
  2605 ;; Auto vars:     Size  Location     Type
  2606 ;;  j               2   58[BANK1 ] int 
  2607 ;;  j               2   56[BANK1 ] int 
  2608 ;;  j               2   54[BANK1 ] int 
  2609 ;;  j               2   52[BANK1 ] int 
  2610 ;;  j               2   50[BANK1 ] int 
  2611 ;;  j               2   48[BANK1 ] int 
  2612 ;;  j               2   46[BANK1 ] int 
  2613 ;;  j               2   44[BANK1 ] int 
  2614 ;;  j               2   42[BANK1 ] int 
  2615 ;;  j               2   40[BANK1 ] int 
  2616 ;;  j               2   38[BANK1 ] int 
  2617 ;;  j               2   36[BANK1 ] int 
  2618 ;;  j               2   34[BANK1 ] int 
  2619 ;;  j               2   32[BANK1 ] int 
  2620 ;;  j               2   30[BANK1 ] int 
  2621 ;;  i               2   28[BANK1 ] int 
  2622 ;;  i               2   26[BANK1 ] int 
  2623 ;;  i               2   24[BANK1 ] int 
  2624 ;;  i               2   22[BANK1 ] int 
  2625 ;;  i               2   20[BANK1 ] int 
  2626 ;;  i               2   18[BANK1 ] int 
  2627 ;;  i               2   16[BANK1 ] int 
  2628 ;;  i               2   14[BANK1 ] int 
  2629 ;;  i               2   12[BANK1 ] int 
  2630 ;;  i               2   10[BANK1 ] int 
  2631 ;;  i               2    8[BANK1 ] int 
  2632 ;;  i               2    6[BANK1 ] int 
  2633 ;;  i               2    4[BANK1 ] int 
  2634 ;;  i               2    2[BANK1 ] int 
  2635 ;;  i               2    0[BANK1 ] int 
  2636 ;;  rotate_patte    8   62[BANK1 ] unsigned char [8]
  2637 ;;  time            2   60[BANK1 ] int 
  2638 ;; Return value:  Size  Location     Type
  2639 ;;		None               void
  2640 ;; Registers used:
  2641 ;;		wreg, fsr0l, fsr0h, status,2, status,0, btemp+1, pclath, cstack
  2642 ;; Tracked objects:
  2643 ;;		On entry : 0/0
  2644 ;;		On exit  : 0/0
  2645 ;;		Unchanged: 0/0
  2646 ;; Data sizes:     COMMON   BANK0   BANK1   BANK3   BANK2
  2647 ;;      Params:         0       0       0       0       0
  2648 ;;      Locals:         0       0      70       0       0
  2649 ;;      Temps:          4       0       0       0       0
  2650 ;;      Totals:         4       0      70       0       0
  2651 ;;Total ram usage:       74 bytes
  2652 ;; Hardware stack levels used:    1
  2653 ;; Hardware stack levels required when called:    1
  2654 ;; This function calls:
  2655 ;;		_show_pattern_on_a_plane
  2656 ;; This function is called by:
  2657 ;;		_main
  2658 ;; This function uses a non-reentrant model
  2659 ;;
  2660                           psect	text545
  2661                           	file	"C:\Users\Younce\Desktop\LED Cube 8 x 8 x 8\Effect.c"
  2662                           	line	644
  2663                           	global	__size_of_rotate_plane
  2664  071B                     	__size_of_rotate_plane	equ	__end_of_rotate_plane-_rotate_plane
  2665                           	
  2666  00E5                     _rotate_plane:	
  2667                           	opt	stack 6
  2668                           ; Regs used in _rotate_plane: [wreg-fsr0h+status,2+status,0+btemp+1+pclath+cstack]
  2669                           	line	645
  2670                           	
  2671  00E5                     l6462:	
  2672                           ;Effect.c: 645: int time = 5;
  2673  00E5  3005               	movlw	low(05h)
  2674  00E6  1683               	bsf	status, 5	;RP0=1, select bank1
  2675  00E7  1303               	bcf	status, 6	;RP1=0, select bank1
  2676  00E8  00DC               	movwf	(rotate_plane@time)^080h
  2677  00E9  3000               	movlw	high(05h)
  2678  00EA  00DD               	movwf	((rotate_plane@time)^080h)+1
  2679                           	line	646
  2680                           	
  2681  00EB                     l6464:	
  2682                           ;Effect.c: 646: unsigned char rotate_pattern[8] = {{0}};
  2683  00EB  30DE               	movlw	(rotate_plane@rotate_pattern)&0ffh
  2684  00EC  0084               	movwf	fsr0
  2685  00ED  3098               	movlw	low(rotate_plane@F1204)
  2686  00EE  00F5               	movwf	(??_rotate_plane+0)+0
  2687  00EF  0804               	movf	fsr0,w
  2688  00F0  00F6               	movwf	((??_rotate_plane+0)+0+1)
  2689  00F1  3008               	movlw	8
  2690  00F2  00F7               	movwf	((??_rotate_plane+0)+0+2)
  2691  00F3                     u4650:
  2692  00F3  0875               	movf	(??_rotate_plane+0)+0,w
  2693  00F4  0084               	movwf	fsr0
  2694  00F5  1783               	bsf	status, 7	;select IRP bank3
  2695                           	
  2696  00F6  0800               	movf	indf,w
  2697  00F7  00F8               	movwf	((??_rotate_plane+0)+0+3)
  2698  00F8  0AF5               	incf	(??_rotate_plane+0)+0,f
  2699  00F9  0876               	movf	((??_rotate_plane+0)+0+1),w
  2700  00FA  0084               	movwf	fsr0
  2701  00FB  1383               	bcf	status, 7	;select IRP bank1
  2702                           	
  2703  00FC  0878               	movf	((??_rotate_plane+0)+0+3),w
  2704  00FD  0080               	movwf	indf
  2705  00FE  0AF6               	incf	((??_rotate_plane+0)+0+1),f
  2706  00FF  0BF7               	decfsz	((??_rotate_plane+0)+0+2),f
  2707  0100  28F3               	goto	u4650
  2708                           	line	647
  2709                           	
  2710  0101                     l6466:	
  2711                           ;Effect.c: 647: rotate_pattern[0] = 0x80;
  2712  0101  3080               	movlw	(080h)
  2713  0102  00F5               	movwf	(??_rotate_plane+0)+0
  2714  0103  0875               	movf	(??_rotate_plane+0)+0,w
  2715  0104  00DE               	movwf	(rotate_plane@rotate_pattern)^080h
  2716                           	line	648
  2717                           	
  2718  0105                     l6468:	
  2719                           ;Effect.c: 648: rotate_pattern[1] = 0x40;
  2720  0105  3040               	movlw	(040h)
  2721  0106  00F5               	movwf	(??_rotate_plane+0)+0
  2722  0107  0875               	movf	(??_rotate_plane+0)+0,w
  2723  0108  00DF               	movwf	0+(rotate_plane@rotate_pattern)^080h+01h
  2724                           	line	649
  2725                           	
  2726  0109                     l6470:	
  2727                           ;Effect.c: 649: rotate_pattern[2] = 0x20;
  2728  0109  3020               	movlw	(020h)
  2729  010A  00F5               	movwf	(??_rotate_plane+0)+0
  2730  010B  0875               	movf	(??_rotate_plane+0)+0,w
  2731  010C  00E0               	movwf	0+(rotate_plane@rotate_pattern)^080h+02h
  2732                           	line	650
  2733                           	
  2734  010D                     l6472:	
  2735                           ;Effect.c: 650: rotate_pattern[3] = 0x10;
  2736  010D  3010               	movlw	(010h)
  2737  010E  00F5               	movwf	(??_rotate_plane+0)+0
  2738  010F  0875               	movf	(??_rotate_plane+0)+0,w
  2739  0110  00E1               	movwf	0+(rotate_plane@rotate_pattern)^080h+03h
  2740                           	line	651
  2741                           	
  2742  0111                     l6474:	
  2743                           ;Effect.c: 651: rotate_pattern[4] = 0x08;
  2744  0111  3008               	movlw	(08h)
  2745  0112  00F5               	movwf	(??_rotate_plane+0)+0
  2746  0113  0875               	movf	(??_rotate_plane+0)+0,w
  2747  0114  00E2               	movwf	0+(rotate_plane@rotate_pattern)^080h+04h
  2748                           	line	652
  2749                           	
  2750  0115                     l6476:	
  2751                           ;Effect.c: 652: rotate_pattern[5] = 0x04;
  2752  0115  3004               	movlw	(04h)
  2753  0116  00F5               	movwf	(??_rotate_plane+0)+0
  2754  0117  0875               	movf	(??_rotate_plane+0)+0,w
  2755  0118  00E3               	movwf	0+(rotate_plane@rotate_pattern)^080h+05h
  2756                           	line	653
  2757                           	
  2758  0119                     l6478:	
  2759                           ;Effect.c: 653: rotate_pattern[6] = 0x02;
  2760  0119  3002               	movlw	(02h)
  2761  011A  00F5               	movwf	(??_rotate_plane+0)+0
  2762  011B  0875               	movf	(??_rotate_plane+0)+0,w
  2763  011C  00E4               	movwf	0+(rotate_plane@rotate_pattern)^080h+06h
  2764                           	line	654
  2765                           	
  2766  011D                     l6480:	
  2767                           ;Effect.c: 654: rotate_pattern[7] = 0x01;
  2768  011D  01E5               	clrf	0+(rotate_plane@rotate_pattern)^080h+07h
  2769  011E  1403               	bsf	status,0
  2770  011F  0DE5               	rlf	0+(rotate_plane@rotate_pattern)^080h+07h,f
  2771                           	line	655
  2772                           	
  2773  0120                     l6482:	
  2774                           ;Effect.c: 655: for(int i = 0; i<time; i++)
  2775  0120  01A0               	clrf	(rotate_plane@i)^080h
  2776  0121  01A1               	clrf	(rotate_plane@i+1)^080h
  2777  0122  296C               	goto	l2358
  2778                           	line	656
  2779                           	
  2780  0123                     l2359:	
  2781                           	line	657
  2782                           	
  2783  0123                     l6484:	
  2784                           ;Effect.c: 656: {
  2785                           ;Effect.c: 657: _delay((unsigned long)((1)*(20000000/4000.0)));
  2786                           	opt asmopt_off
  2787  0123  3007               movlw	7
  2788  0124  00F6               movwf	((??_rotate_plane+0)+0+1),f
  2789  0125  307D               	movlw	125
  2790  0126  00F5               movwf	((??_rotate_plane+0)+0),f
  2791  0127                     u5297:
  2792  0127  0BF5               	decfsz	((??_rotate_plane+0)+0),f
  2793  0128  2927               	goto	u5297
  2794  0129  0BF6               	decfsz	((??_rotate_plane+0)+0+1),f
  2795  012A  2927               	goto	u5297
  2796                           opt asmopt_on
  2797                           
  2798                           	line	658
  2799                           	
  2800  012B                     l6486:	
  2801                           ;Effect.c: 658: for(int j = 0; j<8; j++)
  2802  012B  1683               	bsf	status, 5	;RP0=1, select bank1
  2803  012C  1303               	bcf	status, 6	;RP1=0, select bank1
  2804  012D  01BE               	clrf	(rotate_plane@j)^080h
  2805  012E  01BF               	clrf	(rotate_plane@j+1)^080h
  2806                           	
  2807  012F                     l6488:	
  2808  012F  083F               	movf	(rotate_plane@j+1)^080h,w
  2809  0130  3A80               	xorlw	80h
  2810  0131  00FF               	movwf	btemp+1
  2811  0132  3080               	movlw	(high(08h))^80h
  2812  0133  027F               	subwf	btemp+1,w
  2813  0134  1D03               	skipz
  2814  0135  2938               	goto	u4665
  2815  0136  3008               	movlw	low(08h)
  2816  0137  023E               	subwf	(rotate_plane@j)^080h,w
  2817  0138                     u4665:
  2818                           
  2819  0138  1C03               	skipc
  2820  0139  293B               	goto	u4661
  2821  013A  293C               	goto	u4660
  2822  013B                     u4661:
  2823  013B  293E               	goto	l6492
  2824  013C                     u4660:
  2825  013C  2964               	goto	l6498
  2826                           	
  2827  013D                     l6490:	
  2828  013D  2964               	goto	l6498
  2829                           	line	659
  2830                           	
  2831  013E                     l2360:	
  2832                           	line	660
  2833                           	
  2834  013E                     l6492:	
  2835                           ;Effect.c: 659: {
  2836                           ;Effect.c: 660: show_pattern_on_a_plane(j,3,rotate_pattern);
  2837  013E  3003               	movlw	(03h)
  2838  013F  00F5               	movwf	(??_rotate_plane+0)+0
  2839  0140  0875               	movf	(??_rotate_plane+0)+0,w
  2840  0141  00F0               	movwf	(?_show_pattern_on_a_plane)
  2841  0142  30DE               	movlw	(rotate_plane@rotate_pattern)&0ffh
  2842  0143  00F6               	movwf	(??_rotate_plane+1)+0
  2843  0144  0876               	movf	(??_rotate_plane+1)+0,w
  2844  0145  00F1               	movwf	0+(?_show_pattern_on_a_plane)+01h
  2845  0146  1683               	bsf	status, 5	;RP0=1, select bank1
  2846  0147  1303               	bcf	status, 6	;RP1=0, select bank1
  2847  0148  083E               	movf	(rotate_plane@j)^080h,w
  2848  0149  160A  118A  2451   	fcall	_show_pattern_on_a_plane
              120A  118A         
  2849                           	line	658
  2850                           	
  2851  014E                     l6494:	
  2852  014E  3001               	movlw	low(01h)
  2853  014F  1683               	bsf	status, 5	;RP0=1, select bank1
  2854  0150  1303               	bcf	status, 6	;RP1=0, select bank1
  2855  0151  07BE               	addwf	(rotate_plane@j)^080h,f
  2856  0152  1803               	skipnc
  2857  0153  0ABF               	incf	(rotate_plane@j+1)^080h,f
  2858  0154  3000               	movlw	high(01h)
  2859  0155  07BF               	addwf	(rotate_plane@j+1)^080h,f
  2860                           	
  2861  0156                     l6496:	
  2862  0156  083F               	movf	(rotate_plane@j+1)^080h,w
  2863  0157  3A80               	xorlw	80h
  2864  0158  00FF               	movwf	btemp+1
  2865  0159  3080               	movlw	(high(08h))^80h
  2866  015A  027F               	subwf	btemp+1,w
  2867  015B  1D03               	skipz
  2868  015C  295F               	goto	u4675
  2869  015D  3008               	movlw	low(08h)
  2870  015E  023E               	subwf	(rotate_plane@j)^080h,w
  2871  015F                     u4675:
  2872                           
  2873  015F  1C03               	skipc
  2874  0160  2962               	goto	u4671
  2875  0161  2963               	goto	u4670
  2876  0162                     u4671:
  2877  0162  293E               	goto	l6492
  2878  0163                     u4670:
  2879  0163  2964               	goto	l6498
  2880                           	
  2881  0164                     l2361:	
  2882                           	line	655
  2883                           	
  2884  0164                     l6498:	
  2885  0164  3001               	movlw	low(01h)
  2886  0165  1683               	bsf	status, 5	;RP0=1, select bank1
  2887  0166  1303               	bcf	status, 6	;RP1=0, select bank1
  2888  0167  07A0               	addwf	(rotate_plane@i)^080h,f
  2889  0168  1803               	skipnc
  2890  0169  0AA1               	incf	(rotate_plane@i+1)^080h,f
  2891  016A  3000               	movlw	high(01h)
  2892  016B  07A1               	addwf	(rotate_plane@i+1)^080h,f
  2893                           	
  2894  016C                     l2358:	
  2895  016C  0821               	movf	(rotate_plane@i+1)^080h,w
  2896  016D  3A80               	xorlw	80h
  2897  016E  00F5               	movwf	(??_rotate_plane+0)+0
  2898  016F  085D               	movf	(rotate_plane@time+1)^080h,w
  2899  0170  3A80               	xorlw	80h
  2900  0171  0275               	subwf	(??_rotate_plane+0)+0,w
  2901  0172  1D03               	skipz
  2902  0173  2976               	goto	u4685
  2903  0174  085C               	movf	(rotate_plane@time)^080h,w
  2904  0175  0220               	subwf	(rotate_plane@i)^080h,w
  2905  0176                     u4685:
  2906                           
  2907  0176  1C03               	skipc
  2908  0177  2979               	goto	u4681
  2909  0178  297A               	goto	u4680
  2910  0179                     u4681:
  2911  0179  2923               	goto	l6484
  2912  017A                     u4680:
  2913                           	
  2914  017A                     l2362:	
  2915                           	line	664
  2916                           ;Effect.c: 661: }
  2917                           ;Effect.c: 662: }
  2918                           ;Effect.c: 664: rotate_pattern[0] = 0x00;
  2919  017A  1683               	bsf	status, 5	;RP0=1, select bank1
  2920  017B  1303               	bcf	status, 6	;RP1=0, select bank1
  2921  017C  01DE               	clrf	(rotate_plane@rotate_pattern)^080h
  2922                           	line	665
  2923                           	
  2924  017D                     l6500:	
  2925                           ;Effect.c: 665: rotate_pattern[1] = 0x80;
  2926  017D  3080               	movlw	(080h)
  2927  017E  00F5               	movwf	(??_rotate_plane+0)+0
  2928  017F  0875               	movf	(??_rotate_plane+0)+0,w
  2929  0180  00DF               	movwf	0+(rotate_plane@rotate_pattern)^080h+01h
  2930                           	line	666
  2931                           ;Effect.c: 666: rotate_pattern[2] = 0x40;
  2932  0181  3040               	movlw	(040h)
  2933  0182  00F5               	movwf	(??_rotate_plane+0)+0
  2934  0183  0875               	movf	(??_rotate_plane+0)+0,w
  2935  0184  00E0               	movwf	0+(rotate_plane@rotate_pattern)^080h+02h
  2936                           	line	667
  2937                           ;Effect.c: 667: rotate_pattern[3] = 0x30;
  2938  0185  3030               	movlw	(030h)
  2939  0186  00F5               	movwf	(??_rotate_plane+0)+0
  2940  0187  0875               	movf	(??_rotate_plane+0)+0,w
  2941  0188  00E1               	movwf	0+(rotate_plane@rotate_pattern)^080h+03h
  2942                           	line	668
  2943                           ;Effect.c: 668: rotate_pattern[4] = 0x0c;
  2944  0189  300C               	movlw	(0Ch)
  2945  018A  00F5               	movwf	(??_rotate_plane+0)+0
  2946  018B  0875               	movf	(??_rotate_plane+0)+0,w
  2947  018C  00E2               	movwf	0+(rotate_plane@rotate_pattern)^080h+04h
  2948                           	line	669
  2949                           ;Effect.c: 669: rotate_pattern[5] = 0x02;
  2950  018D  3002               	movlw	(02h)
  2951  018E  00F5               	movwf	(??_rotate_plane+0)+0
  2952  018F  0875               	movf	(??_rotate_plane+0)+0,w
  2953  0190  00E3               	movwf	0+(rotate_plane@rotate_pattern)^080h+05h
  2954                           	line	670
  2955                           	
  2956  0191                     l6502:	
  2957                           ;Effect.c: 670: rotate_pattern[6] = 0x01;
  2958  0191  01E4               	clrf	0+(rotate_plane@rotate_pattern)^080h+06h
  2959  0192  1403               	bsf	status,0
  2960  0193  0DE4               	rlf	0+(rotate_plane@rotate_pattern)^080h+06h,f
  2961                           	line	671
  2962                           	
  2963  0194                     l6504:	
  2964                           ;Effect.c: 671: rotate_pattern[7] = 0x00;
  2965  0194  01E5               	clrf	0+(rotate_plane@rotate_pattern)^080h+07h
  2966                           	line	672
  2967                           	
  2968  0195                     l6506:	
  2969                           ;Effect.c: 672: for(int i = 0; i<time; i++)
  2970  0195  01A2               	clrf	(rotate_plane@i_3064)^080h
  2971  0196  01A3               	clrf	(rotate_plane@i_3064+1)^080h
  2972  0197  29E1               	goto	l2363
  2973                           	line	673
  2974                           	
  2975  0198                     l2364:	
  2976                           	line	674
  2977                           	
  2978  0198                     l6508:	
  2979                           ;Effect.c: 673: {
  2980                           ;Effect.c: 674: _delay((unsigned long)((1)*(20000000/4000.0)));
  2981                           	opt asmopt_off
  2982  0198  3007               movlw	7
  2983  0199  00F6               movwf	((??_rotate_plane+0)+0+1),f
  2984  019A  307D               	movlw	125
  2985  019B  00F5               movwf	((??_rotate_plane+0)+0),f
  2986  019C                     u5307:
  2987  019C  0BF5               	decfsz	((??_rotate_plane+0)+0),f
  2988  019D  299C               	goto	u5307
  2989  019E  0BF6               	decfsz	((??_rotate_plane+0)+0+1),f
  2990  019F  299C               	goto	u5307
  2991                           opt asmopt_on
  2992                           
  2993                           	line	675
  2994                           	
  2995  01A0                     l6510:	
  2996                           ;Effect.c: 675: for(int j = 0; j<8; j++)
  2997  01A0  1683               	bsf	status, 5	;RP0=1, select bank1
  2998  01A1  1303               	bcf	status, 6	;RP1=0, select bank1
  2999  01A2  01C0               	clrf	(rotate_plane@j_3065)^080h
  3000  01A3  01C1               	clrf	(rotate_plane@j_3065+1)^080h
  3001                           	
  3002  01A4                     l6512:	
  3003  01A4  0841               	movf	(rotate_plane@j_3065+1)^080h,w
  3004  01A5  3A80               	xorlw	80h
  3005  01A6  00FF               	movwf	btemp+1
  3006  01A7  3080               	movlw	(high(08h))^80h
  3007  01A8  027F               	subwf	btemp+1,w
  3008  01A9  1D03               	skipz
  3009  01AA  29AD               	goto	u4695
  3010  01AB  3008               	movlw	low(08h)
  3011  01AC  0240               	subwf	(rotate_plane@j_3065)^080h,w
  3012  01AD                     u4695:
  3013                           
  3014  01AD  1C03               	skipc
  3015  01AE  29B0               	goto	u4691
  3016  01AF  29B1               	goto	u4690
  3017  01B0                     u4691:
  3018  01B0  29B3               	goto	l6516
  3019  01B1                     u4690:
  3020  01B1  29D9               	goto	l6522
  3021                           	
  3022  01B2                     l6514:	
  3023  01B2  29D9               	goto	l6522
  3024                           	line	676
  3025                           	
  3026  01B3                     l2365:	
  3027                           	line	677
  3028                           	
  3029  01B3                     l6516:	
  3030                           ;Effect.c: 676: {
  3031                           ;Effect.c: 677: show_pattern_on_a_plane(j,3,rotate_pattern);
  3032  01B3  3003               	movlw	(03h)
  3033  01B4  00F5               	movwf	(??_rotate_plane+0)+0
  3034  01B5  0875               	movf	(??_rotate_plane+0)+0,w
  3035  01B6  00F0               	movwf	(?_show_pattern_on_a_plane)
  3036  01B7  30DE               	movlw	(rotate_plane@rotate_pattern)&0ffh
  3037  01B8  00F6               	movwf	(??_rotate_plane+1)+0
  3038  01B9  0876               	movf	(??_rotate_plane+1)+0,w
  3039  01BA  00F1               	movwf	0+(?_show_pattern_on_a_plane)+01h
  3040  01BB  1683               	bsf	status, 5	;RP0=1, select bank1
  3041  01BC  1303               	bcf	status, 6	;RP1=0, select bank1
  3042  01BD  0840               	movf	(rotate_plane@j_3065)^080h,w
  3043  01BE  160A  118A  2451   	fcall	_show_pattern_on_a_plane
              120A  118A         
  3044                           	line	675
  3045                           	
  3046  01C3                     l6518:	
  3047  01C3  3001               	movlw	low(01h)
  3048  01C4  1683               	bsf	status, 5	;RP0=1, select bank1
  3049  01C5  1303               	bcf	status, 6	;RP1=0, select bank1
  3050  01C6  07C0               	addwf	(rotate_plane@j_3065)^080h,f
  3051  01C7  1803               	skipnc
  3052  01C8  0AC1               	incf	(rotate_plane@j_3065+1)^080h,f
  3053  01C9  3000               	movlw	high(01h)
  3054  01CA  07C1               	addwf	(rotate_plane@j_3065+1)^080h,f
  3055                           	
  3056  01CB                     l6520:	
  3057  01CB  0841               	movf	(rotate_plane@j_3065+1)^080h,w
  3058  01CC  3A80               	xorlw	80h
  3059  01CD  00FF               	movwf	btemp+1
  3060  01CE  3080               	movlw	(high(08h))^80h
  3061  01CF  027F               	subwf	btemp+1,w
  3062  01D0  1D03               	skipz
  3063  01D1  29D4               	goto	u4705
  3064  01D2  3008               	movlw	low(08h)
  3065  01D3  0240               	subwf	(rotate_plane@j_3065)^080h,w
  3066  01D4                     u4705:
  3067                           
  3068  01D4  1C03               	skipc
  3069  01D5  29D7               	goto	u4701
  3070  01D6  29D8               	goto	u4700
  3071  01D7                     u4701:
  3072  01D7  29B3               	goto	l6516
  3073  01D8                     u4700:
  3074  01D8  29D9               	goto	l6522
  3075                           	
  3076  01D9                     l2366:	
  3077                           	line	672
  3078                           	
  3079  01D9                     l6522:	
  3080  01D9  3001               	movlw	low(01h)
  3081  01DA  1683               	bsf	status, 5	;RP0=1, select bank1
  3082  01DB  1303               	bcf	status, 6	;RP1=0, select bank1
  3083  01DC  07A2               	addwf	(rotate_plane@i_3064)^080h,f
  3084  01DD  1803               	skipnc
  3085  01DE  0AA3               	incf	(rotate_plane@i_3064+1)^080h,f
  3086  01DF  3000               	movlw	high(01h)
  3087  01E0  07A3               	addwf	(rotate_plane@i_3064+1)^080h,f
  3088                           	
  3089  01E1                     l2363:	
  3090  01E1  0823               	movf	(rotate_plane@i_3064+1)^080h,w
  3091  01E2  3A80               	xorlw	80h
  3092  01E3  00F5               	movwf	(??_rotate_plane+0)+0
  3093  01E4  085D               	movf	(rotate_plane@time+1)^080h,w
  3094  01E5  3A80               	xorlw	80h
  3095  01E6  0275               	subwf	(??_rotate_plane+0)+0,w
  3096  01E7  1D03               	skipz
  3097  01E8  29EB               	goto	u4715
  3098  01E9  085C               	movf	(rotate_plane@time)^080h,w
  3099  01EA  0222               	subwf	(rotate_plane@i_3064)^080h,w
  3100  01EB                     u4715:
  3101                           
  3102  01EB  1C03               	skipc
  3103  01EC  29EE               	goto	u4711
  3104  01ED  29EF               	goto	u4710
  3105  01EE                     u4711:
  3106  01EE  2998               	goto	l6508
  3107  01EF                     u4710:
  3108                           	
  3109  01EF                     l2367:	
  3110                           	line	682
  3111                           ;Effect.c: 678: }
  3112                           ;Effect.c: 679: }
  3113                           ;Effect.c: 682: rotate_pattern[0] = 0x00;
  3114  01EF  1683               	bsf	status, 5	;RP0=1, select bank1
  3115  01F0  1303               	bcf	status, 6	;RP1=0, select bank1
  3116  01F1  01DE               	clrf	(rotate_plane@rotate_pattern)^080h
  3117                           	line	683
  3118                           ;Effect.c: 683: rotate_pattern[1] = 0x00;
  3119  01F2  01DF               	clrf	0+(rotate_plane@rotate_pattern)^080h+01h
  3120                           	line	684
  3121                           	
  3122  01F3                     l6524:	
  3123                           ;Effect.c: 684: rotate_pattern[2] = 0xc0;
  3124  01F3  30C0               	movlw	(0C0h)
  3125  01F4  00F5               	movwf	(??_rotate_plane+0)+0
  3126  01F5  0875               	movf	(??_rotate_plane+0)+0,w
  3127  01F6  00E0               	movwf	0+(rotate_plane@rotate_pattern)^080h+02h
  3128                           	line	685
  3129                           ;Effect.c: 685: rotate_pattern[3] = 0x30;
  3130  01F7  3030               	movlw	(030h)
  3131  01F8  00F5               	movwf	(??_rotate_plane+0)+0
  3132  01F9  0875               	movf	(??_rotate_plane+0)+0,w
  3133  01FA  00E1               	movwf	0+(rotate_plane@rotate_pattern)^080h+03h
  3134                           	line	686
  3135                           ;Effect.c: 686: rotate_pattern[4] = 0x0c;
  3136  01FB  300C               	movlw	(0Ch)
  3137  01FC  00F5               	movwf	(??_rotate_plane+0)+0
  3138  01FD  0875               	movf	(??_rotate_plane+0)+0,w
  3139  01FE  00E2               	movwf	0+(rotate_plane@rotate_pattern)^080h+04h
  3140                           	line	687
  3141                           ;Effect.c: 687: rotate_pattern[5] = 0x03;
  3142  01FF  3003               	movlw	(03h)
  3143  0200  00F5               	movwf	(??_rotate_plane+0)+0
  3144  0201  0875               	movf	(??_rotate_plane+0)+0,w
  3145  0202  00E3               	movwf	0+(rotate_plane@rotate_pattern)^080h+05h
  3146                           	line	688
  3147                           	
  3148  0203                     l6526:	
  3149                           ;Effect.c: 688: rotate_pattern[6] = 0x00;
  3150  0203  01E4               	clrf	0+(rotate_plane@rotate_pattern)^080h+06h
  3151                           	line	689
  3152                           	
  3153  0204                     l6528:	
  3154                           ;Effect.c: 689: rotate_pattern[7] = 0x00;
  3155  0204  01E5               	clrf	0+(rotate_plane@rotate_pattern)^080h+07h
  3156                           	line	690
  3157                           	
  3158  0205                     l6530:	
  3159                           ;Effect.c: 690: for(int i = 0; i<time; i++)
  3160  0205  01A4               	clrf	(rotate_plane@i_3066)^080h
  3161  0206  01A5               	clrf	(rotate_plane@i_3066+1)^080h
  3162  0207  2A51               	goto	l2368
  3163                           	line	691
  3164                           	
  3165  0208                     l2369:	
  3166                           	line	692
  3167                           	
  3168  0208                     l6532:	
  3169                           ;Effect.c: 691: {
  3170                           ;Effect.c: 692: _delay((unsigned long)((1)*(20000000/4000.0)));
  3171                           	opt asmopt_off
  3172  0208  3007               movlw	7
  3173  0209  00F6               movwf	((??_rotate_plane+0)+0+1),f
  3174  020A  307D               	movlw	125
  3175  020B  00F5               movwf	((??_rotate_plane+0)+0),f
  3176  020C                     u5317:
  3177  020C  0BF5               	decfsz	((??_rotate_plane+0)+0),f
  3178  020D  2A0C               	goto	u5317
  3179  020E  0BF6               	decfsz	((??_rotate_plane+0)+0+1),f
  3180  020F  2A0C               	goto	u5317
  3181                           opt asmopt_on
  3182                           
  3183                           	line	693
  3184                           	
  3185  0210                     l6534:	
  3186                           ;Effect.c: 693: for(int j = 0; j<8; j++)
  3187  0210  1683               	bsf	status, 5	;RP0=1, select bank1
  3188  0211  1303               	bcf	status, 6	;RP1=0, select bank1
  3189  0212  01C2               	clrf	(rotate_plane@j_3067)^080h
  3190  0213  01C3               	clrf	(rotate_plane@j_3067+1)^080h
  3191                           	
  3192  0214                     l6536:	
  3193  0214  0843               	movf	(rotate_plane@j_3067+1)^080h,w
  3194  0215  3A80               	xorlw	80h
  3195  0216  00FF               	movwf	btemp+1
  3196  0217  3080               	movlw	(high(08h))^80h
  3197  0218  027F               	subwf	btemp+1,w
  3198  0219  1D03               	skipz
  3199  021A  2A1D               	goto	u4725
  3200  021B  3008               	movlw	low(08h)
  3201  021C  0242               	subwf	(rotate_plane@j_3067)^080h,w
  3202  021D                     u4725:
  3203                           
  3204  021D  1C03               	skipc
  3205  021E  2A20               	goto	u4721
  3206  021F  2A21               	goto	u4720
  3207  0220                     u4721:
  3208  0220  2A23               	goto	l6540
  3209  0221                     u4720:
  3210  0221  2A49               	goto	l6546
  3211                           	
  3212  0222                     l6538:	
  3213  0222  2A49               	goto	l6546
  3214                           	line	694
  3215                           	
  3216  0223                     l2370:	
  3217                           	line	695
  3218                           	
  3219  0223                     l6540:	
  3220                           ;Effect.c: 694: {
  3221                           ;Effect.c: 695: show_pattern_on_a_plane(j,3,rotate_pattern);
  3222  0223  3003               	movlw	(03h)
  3223  0224  00F5               	movwf	(??_rotate_plane+0)+0
  3224  0225  0875               	movf	(??_rotate_plane+0)+0,w
  3225  0226  00F0               	movwf	(?_show_pattern_on_a_plane)
  3226  0227  30DE               	movlw	(rotate_plane@rotate_pattern)&0ffh
  3227  0228  00F6               	movwf	(??_rotate_plane+1)+0
  3228  0229  0876               	movf	(??_rotate_plane+1)+0,w
  3229  022A  00F1               	movwf	0+(?_show_pattern_on_a_plane)+01h
  3230  022B  1683               	bsf	status, 5	;RP0=1, select bank1
  3231  022C  1303               	bcf	status, 6	;RP1=0, select bank1
  3232  022D  0842               	movf	(rotate_plane@j_3067)^080h,w
  3233  022E  160A  118A  2451   	fcall	_show_pattern_on_a_plane
              120A  118A         
  3234                           	line	693
  3235                           	
  3236  0233                     l6542:	
  3237  0233  3001               	movlw	low(01h)
  3238  0234  1683               	bsf	status, 5	;RP0=1, select bank1
  3239  0235  1303               	bcf	status, 6	;RP1=0, select bank1
  3240  0236  07C2               	addwf	(rotate_plane@j_3067)^080h,f
  3241  0237  1803               	skipnc
  3242  0238  0AC3               	incf	(rotate_plane@j_3067+1)^080h,f
  3243  0239  3000               	movlw	high(01h)
  3244  023A  07C3               	addwf	(rotate_plane@j_3067+1)^080h,f
  3245                           	
  3246  023B                     l6544:	
  3247  023B  0843               	movf	(rotate_plane@j_3067+1)^080h,w
  3248  023C  3A80               	xorlw	80h
  3249  023D  00FF               	movwf	btemp+1
  3250  023E  3080               	movlw	(high(08h))^80h
  3251  023F  027F               	subwf	btemp+1,w
  3252  0240  1D03               	skipz
  3253  0241  2A44               	goto	u4735
  3254  0242  3008               	movlw	low(08h)
  3255  0243  0242               	subwf	(rotate_plane@j_3067)^080h,w
  3256  0244                     u4735:
  3257                           
  3258  0244  1C03               	skipc
  3259  0245  2A47               	goto	u4731
  3260  0246  2A48               	goto	u4730
  3261  0247                     u4731:
  3262  0247  2A23               	goto	l6540
  3263  0248                     u4730:
  3264  0248  2A49               	goto	l6546
  3265                           	
  3266  0249                     l2371:	
  3267                           	line	690
  3268                           	
  3269  0249                     l6546:	
  3270  0249  3001               	movlw	low(01h)
  3271  024A  1683               	bsf	status, 5	;RP0=1, select bank1
  3272  024B  1303               	bcf	status, 6	;RP1=0, select bank1
  3273  024C  07A4               	addwf	(rotate_plane@i_3066)^080h,f
  3274  024D  1803               	skipnc
  3275  024E  0AA5               	incf	(rotate_plane@i_3066+1)^080h,f
  3276  024F  3000               	movlw	high(01h)
  3277  0250  07A5               	addwf	(rotate_plane@i_3066+1)^080h,f
  3278                           	
  3279  0251                     l2368:	
  3280  0251  0825               	movf	(rotate_plane@i_3066+1)^080h,w
  3281  0252  3A80               	xorlw	80h
  3282  0253  00F5               	movwf	(??_rotate_plane+0)+0
  3283  0254  085D               	movf	(rotate_plane@time+1)^080h,w
  3284  0255  3A80               	xorlw	80h
  3285  0256  0275               	subwf	(??_rotate_plane+0)+0,w
  3286  0257  1D03               	skipz
  3287  0258  2A5B               	goto	u4745
  3288  0259  085C               	movf	(rotate_plane@time)^080h,w
  3289  025A  0224               	subwf	(rotate_plane@i_3066)^080h,w
  3290  025B                     u4745:
  3291                           
  3292  025B  1C03               	skipc
  3293  025C  2A5E               	goto	u4741
  3294  025D  2A5F               	goto	u4740
  3295  025E                     u4741:
  3296  025E  2A08               	goto	l6532
  3297  025F                     u4740:
  3298                           	
  3299  025F                     l2372:	
  3300                           	line	699
  3301                           ;Effect.c: 696: }
  3302                           ;Effect.c: 697: }
  3303                           ;Effect.c: 699: rotate_pattern[0] = 0x00;
  3304  025F  1683               	bsf	status, 5	;RP0=1, select bank1
  3305  0260  1303               	bcf	status, 6	;RP1=0, select bank1
  3306  0261  01DE               	clrf	(rotate_plane@rotate_pattern)^080h
  3307                           	line	700
  3308                           ;Effect.c: 700: rotate_pattern[1] = 0x00;
  3309  0262  01DF               	clrf	0+(rotate_plane@rotate_pattern)^080h+01h
  3310                           	line	701
  3311                           ;Effect.c: 701: rotate_pattern[2] = 0x00;
  3312  0263  01E0               	clrf	0+(rotate_plane@rotate_pattern)^080h+02h
  3313                           	line	702
  3314                           	
  3315  0264                     l6548:	
  3316                           ;Effect.c: 702: rotate_pattern[3] = 0xf0;
  3317  0264  30F0               	movlw	(0F0h)
  3318  0265  00F5               	movwf	(??_rotate_plane+0)+0
  3319  0266  0875               	movf	(??_rotate_plane+0)+0,w
  3320  0267  00E1               	movwf	0+(rotate_plane@rotate_pattern)^080h+03h
  3321                           	line	703
  3322                           ;Effect.c: 703: rotate_pattern[4] = 0x0f;
  3323  0268  300F               	movlw	(0Fh)
  3324  0269  00F5               	movwf	(??_rotate_plane+0)+0
  3325  026A  0875               	movf	(??_rotate_plane+0)+0,w
  3326  026B  00E2               	movwf	0+(rotate_plane@rotate_pattern)^080h+04h
  3327                           	line	704
  3328                           	
  3329  026C                     l6550:	
  3330                           ;Effect.c: 704: rotate_pattern[5] = 0x00;
  3331  026C  01E3               	clrf	0+(rotate_plane@rotate_pattern)^080h+05h
  3332                           	line	705
  3333                           	
  3334  026D                     l6552:	
  3335                           ;Effect.c: 705: rotate_pattern[6] = 0x00;
  3336  026D  01E4               	clrf	0+(rotate_plane@rotate_pattern)^080h+06h
  3337                           	line	706
  3338                           	
  3339  026E                     l6554:	
  3340                           ;Effect.c: 706: rotate_pattern[7] = 0x00;
  3341  026E  01E5               	clrf	0+(rotate_plane@rotate_pattern)^080h+07h
  3342                           	line	707
  3343                           	
  3344  026F                     l6556:	
  3345                           ;Effect.c: 707: for(int i = 0; i<time; i++)
  3346  026F  01A6               	clrf	(rotate_plane@i_3068)^080h
  3347  0270  01A7               	clrf	(rotate_plane@i_3068+1)^080h
  3348  0271  2ABB               	goto	l2373
  3349                           	line	708
  3350                           	
  3351  0272                     l2374:	
  3352                           	line	709
  3353                           	
  3354  0272                     l6558:	
  3355                           ;Effect.c: 708: {
  3356                           ;Effect.c: 709: _delay((unsigned long)((1)*(20000000/4000.0)));
  3357                           	opt asmopt_off
  3358  0272  3007               movlw	7
  3359  0273  00F6               movwf	((??_rotate_plane+0)+0+1),f
  3360  0274  307D               	movlw	125
  3361  0275  00F5               movwf	((??_rotate_plane+0)+0),f
  3362  0276                     u5327:
  3363  0276  0BF5               	decfsz	((??_rotate_plane+0)+0),f
  3364  0277  2A76               	goto	u5327
  3365  0278  0BF6               	decfsz	((??_rotate_plane+0)+0+1),f
  3366  0279  2A76               	goto	u5327
  3367                           opt asmopt_on
  3368                           
  3369                           	line	710
  3370                           	
  3371  027A                     l6560:	
  3372                           ;Effect.c: 710: for(int j = 0; j<8; j++)
  3373  027A  1683               	bsf	status, 5	;RP0=1, select bank1
  3374  027B  1303               	bcf	status, 6	;RP1=0, select bank1
  3375  027C  01C4               	clrf	(rotate_plane@j_3069)^080h
  3376  027D  01C5               	clrf	(rotate_plane@j_3069+1)^080h
  3377                           	
  3378  027E                     l6562:	
  3379  027E  0845               	movf	(rotate_plane@j_3069+1)^080h,w
  3380  027F  3A80               	xorlw	80h
  3381  0280  00FF               	movwf	btemp+1
  3382  0281  3080               	movlw	(high(08h))^80h
  3383  0282  027F               	subwf	btemp+1,w
  3384  0283  1D03               	skipz
  3385  0284  2A87               	goto	u4755
  3386  0285  3008               	movlw	low(08h)
  3387  0286  0244               	subwf	(rotate_plane@j_3069)^080h,w
  3388  0287                     u4755:
  3389                           
  3390  0287  1C03               	skipc
  3391  0288  2A8A               	goto	u4751
  3392  0289  2A8B               	goto	u4750
  3393  028A                     u4751:
  3394  028A  2A8D               	goto	l6566
  3395  028B                     u4750:
  3396  028B  2AB3               	goto	l6572
  3397                           	
  3398  028C                     l6564:	
  3399  028C  2AB3               	goto	l6572
  3400                           	line	711
  3401                           	
  3402  028D                     l2375:	
  3403                           	line	712
  3404                           	
  3405  028D                     l6566:	
  3406                           ;Effect.c: 711: {
  3407                           ;Effect.c: 712: show_pattern_on_a_plane(j,3,rotate_pattern);
  3408  028D  3003               	movlw	(03h)
  3409  028E  00F5               	movwf	(??_rotate_plane+0)+0
  3410  028F  0875               	movf	(??_rotate_plane+0)+0,w
  3411  0290  00F0               	movwf	(?_show_pattern_on_a_plane)
  3412  0291  30DE               	movlw	(rotate_plane@rotate_pattern)&0ffh
  3413  0292  00F6               	movwf	(??_rotate_plane+1)+0
  3414  0293  0876               	movf	(??_rotate_plane+1)+0,w
  3415  0294  00F1               	movwf	0+(?_show_pattern_on_a_plane)+01h
  3416  0295  1683               	bsf	status, 5	;RP0=1, select bank1
  3417  0296  1303               	bcf	status, 6	;RP1=0, select bank1
  3418  0297  0844               	movf	(rotate_plane@j_3069)^080h,w
  3419  0298  160A  118A  2451   	fcall	_show_pattern_on_a_plane
              120A  118A         
  3420                           	line	710
  3421                           	
  3422  029D                     l6568:	
  3423  029D  3001               	movlw	low(01h)
  3424  029E  1683               	bsf	status, 5	;RP0=1, select bank1
  3425  029F  1303               	bcf	status, 6	;RP1=0, select bank1
  3426  02A0  07C4               	addwf	(rotate_plane@j_3069)^080h,f
  3427  02A1  1803               	skipnc
  3428  02A2  0AC5               	incf	(rotate_plane@j_3069+1)^080h,f
  3429  02A3  3000               	movlw	high(01h)
  3430  02A4  07C5               	addwf	(rotate_plane@j_3069+1)^080h,f
  3431                           	
  3432  02A5                     l6570:	
  3433  02A5  0845               	movf	(rotate_plane@j_3069+1)^080h,w
  3434  02A6  3A80               	xorlw	80h
  3435  02A7  00FF               	movwf	btemp+1
  3436  02A8  3080               	movlw	(high(08h))^80h
  3437  02A9  027F               	subwf	btemp+1,w
  3438  02AA  1D03               	skipz
  3439  02AB  2AAE               	goto	u4765
  3440  02AC  3008               	movlw	low(08h)
  3441  02AD  0244               	subwf	(rotate_plane@j_3069)^080h,w
  3442  02AE                     u4765:
  3443                           
  3444  02AE  1C03               	skipc
  3445  02AF  2AB1               	goto	u4761
  3446  02B0  2AB2               	goto	u4760
  3447  02B1                     u4761:
  3448  02B1  2A8D               	goto	l6566
  3449  02B2                     u4760:
  3450  02B2  2AB3               	goto	l6572
  3451                           	
  3452  02B3                     l2376:	
  3453                           	line	707
  3454                           	
  3455  02B3                     l6572:	
  3456  02B3  3001               	movlw	low(01h)
  3457  02B4  1683               	bsf	status, 5	;RP0=1, select bank1
  3458  02B5  1303               	bcf	status, 6	;RP1=0, select bank1
  3459  02B6  07A6               	addwf	(rotate_plane@i_3068)^080h,f
  3460  02B7  1803               	skipnc
  3461  02B8  0AA7               	incf	(rotate_plane@i_3068+1)^080h,f
  3462  02B9  3000               	movlw	high(01h)
  3463  02BA  07A7               	addwf	(rotate_plane@i_3068+1)^080h,f
  3464                           	
  3465  02BB                     l2373:	
  3466  02BB  0827               	movf	(rotate_plane@i_3068+1)^080h,w
  3467  02BC  3A80               	xorlw	80h
  3468  02BD  00F5               	movwf	(??_rotate_plane+0)+0
  3469  02BE  085D               	movf	(rotate_plane@time+1)^080h,w
  3470  02BF  3A80               	xorlw	80h
  3471  02C0  0275               	subwf	(??_rotate_plane+0)+0,w
  3472  02C1  1D03               	skipz
  3473  02C2  2AC5               	goto	u4775
  3474  02C3  085C               	movf	(rotate_plane@time)^080h,w
  3475  02C4  0226               	subwf	(rotate_plane@i_3068)^080h,w
  3476  02C5                     u4775:
  3477                           
  3478  02C5  1C03               	skipc
  3479  02C6  2AC8               	goto	u4771
  3480  02C7  2AC9               	goto	u4770
  3481  02C8                     u4771:
  3482  02C8  2A72               	goto	l6558
  3483  02C9                     u4770:
  3484                           	
  3485  02C9                     l2377:	
  3486                           	line	717
  3487                           ;Effect.c: 713: }
  3488                           ;Effect.c: 714: }
  3489                           ;Effect.c: 717: rotate_pattern[0] = 0x00;
  3490  02C9  1683               	bsf	status, 5	;RP0=1, select bank1
  3491  02CA  1303               	bcf	status, 6	;RP1=0, select bank1
  3492  02CB  01DE               	clrf	(rotate_plane@rotate_pattern)^080h
  3493                           	line	718
  3494                           ;Effect.c: 718: rotate_pattern[1] = 0x00;
  3495  02CC  01DF               	clrf	0+(rotate_plane@rotate_pattern)^080h+01h
  3496                           	line	719
  3497                           ;Effect.c: 719: rotate_pattern[2] = 0x00;
  3498  02CD  01E0               	clrf	0+(rotate_plane@rotate_pattern)^080h+02h
  3499                           	line	720
  3500                           	
  3501  02CE                     l6574:	
  3502                           ;Effect.c: 720: rotate_pattern[3] = 0x0f;
  3503  02CE  300F               	movlw	(0Fh)
  3504  02CF  00F5               	movwf	(??_rotate_plane+0)+0
  3505  02D0  0875               	movf	(??_rotate_plane+0)+0,w
  3506  02D1  00E1               	movwf	0+(rotate_plane@rotate_pattern)^080h+03h
  3507                           	line	721
  3508                           ;Effect.c: 721: rotate_pattern[4] = 0xf0;
  3509  02D2  30F0               	movlw	(0F0h)
  3510  02D3  00F5               	movwf	(??_rotate_plane+0)+0
  3511  02D4  0875               	movf	(??_rotate_plane+0)+0,w
  3512  02D5  00E2               	movwf	0+(rotate_plane@rotate_pattern)^080h+04h
  3513                           	line	722
  3514                           	
  3515  02D6                     l6576:	
  3516                           ;Effect.c: 722: rotate_pattern[5] = 0x00;
  3517  02D6  01E3               	clrf	0+(rotate_plane@rotate_pattern)^080h+05h
  3518                           	line	723
  3519                           	
  3520  02D7                     l6578:	
  3521                           ;Effect.c: 723: rotate_pattern[6] = 0x00;
  3522  02D7  01E4               	clrf	0+(rotate_plane@rotate_pattern)^080h+06h
  3523                           	line	724
  3524                           	
  3525  02D8                     l6580:	
  3526                           ;Effect.c: 724: rotate_pattern[7] = 0x00;
  3527  02D8  01E5               	clrf	0+(rotate_plane@rotate_pattern)^080h+07h
  3528                           	line	725
  3529                           	
  3530  02D9                     l6582:	
  3531                           ;Effect.c: 725: for(int i = 0; i<time; i++)
  3532  02D9  01A8               	clrf	(rotate_plane@i_3070)^080h
  3533  02DA  01A9               	clrf	(rotate_plane@i_3070+1)^080h
  3534  02DB  2B25               	goto	l2378
  3535                           	line	726
  3536                           	
  3537  02DC                     l2379:	
  3538                           	line	727
  3539                           	
  3540  02DC                     l6584:	
  3541                           ;Effect.c: 726: {
  3542                           ;Effect.c: 727: _delay((unsigned long)((1)*(20000000/4000.0)));
  3543                           	opt asmopt_off
  3544  02DC  3007               movlw	7
  3545  02DD  00F6               movwf	((??_rotate_plane+0)+0+1),f
  3546  02DE  307D               	movlw	125
  3547  02DF  00F5               movwf	((??_rotate_plane+0)+0),f
  3548  02E0                     u5337:
  3549  02E0  0BF5               	decfsz	((??_rotate_plane+0)+0),f
  3550  02E1  2AE0               	goto	u5337
  3551  02E2  0BF6               	decfsz	((??_rotate_plane+0)+0+1),f
  3552  02E3  2AE0               	goto	u5337
  3553                           opt asmopt_on
  3554                           
  3555                           	line	728
  3556                           	
  3557  02E4                     l6586:	
  3558                           ;Effect.c: 728: for(int j = 0; j<8; j++)
  3559  02E4  1683               	bsf	status, 5	;RP0=1, select bank1
  3560  02E5  1303               	bcf	status, 6	;RP1=0, select bank1
  3561  02E6  01C6               	clrf	(rotate_plane@j_3071)^080h
  3562  02E7  01C7               	clrf	(rotate_plane@j_3071+1)^080h
  3563                           	
  3564  02E8                     l6588:	
  3565  02E8  0847               	movf	(rotate_plane@j_3071+1)^080h,w
  3566  02E9  3A80               	xorlw	80h
  3567  02EA  00FF               	movwf	btemp+1
  3568  02EB  3080               	movlw	(high(08h))^80h
  3569  02EC  027F               	subwf	btemp+1,w
  3570  02ED  1D03               	skipz
  3571  02EE  2AF1               	goto	u4785
  3572  02EF  3008               	movlw	low(08h)
  3573  02F0  0246               	subwf	(rotate_plane@j_3071)^080h,w
  3574  02F1                     u4785:
  3575                           
  3576  02F1  1C03               	skipc
  3577  02F2  2AF4               	goto	u4781
  3578  02F3  2AF5               	goto	u4780
  3579  02F4                     u4781:
  3580  02F4  2AF7               	goto	l6592
  3581  02F5                     u4780:
  3582  02F5  2B1D               	goto	l6598
  3583                           	
  3584  02F6                     l6590:	
  3585  02F6  2B1D               	goto	l6598
  3586                           	line	729
  3587                           	
  3588  02F7                     l2380:	
  3589                           	line	730
  3590                           	
  3591  02F7                     l6592:	
  3592                           ;Effect.c: 729: {
  3593                           ;Effect.c: 730: show_pattern_on_a_plane(j,3,rotate_pattern);
  3594  02F7  3003               	movlw	(03h)
  3595  02F8  00F5               	movwf	(??_rotate_plane+0)+0
  3596  02F9  0875               	movf	(??_rotate_plane+0)+0,w
  3597  02FA  00F0               	movwf	(?_show_pattern_on_a_plane)
  3598  02FB  30DE               	movlw	(rotate_plane@rotate_pattern)&0ffh
  3599  02FC  00F6               	movwf	(??_rotate_plane+1)+0
  3600  02FD  0876               	movf	(??_rotate_plane+1)+0,w
  3601  02FE  00F1               	movwf	0+(?_show_pattern_on_a_plane)+01h
  3602  02FF  1683               	bsf	status, 5	;RP0=1, select bank1
  3603  0300  1303               	bcf	status, 6	;RP1=0, select bank1
  3604  0301  0846               	movf	(rotate_plane@j_3071)^080h,w
  3605  0302  160A  118A  2451   	fcall	_show_pattern_on_a_plane
              120A  118A         
  3606                           	line	728
  3607                           	
  3608  0307                     l6594:	
  3609  0307  3001               	movlw	low(01h)
  3610  0308  1683               	bsf	status, 5	;RP0=1, select bank1
  3611  0309  1303               	bcf	status, 6	;RP1=0, select bank1
  3612  030A  07C6               	addwf	(rotate_plane@j_3071)^080h,f
  3613  030B  1803               	skipnc
  3614  030C  0AC7               	incf	(rotate_plane@j_3071+1)^080h,f
  3615  030D  3000               	movlw	high(01h)
  3616  030E  07C7               	addwf	(rotate_plane@j_3071+1)^080h,f
  3617                           	
  3618  030F                     l6596:	
  3619  030F  0847               	movf	(rotate_plane@j_3071+1)^080h,w
  3620  0310  3A80               	xorlw	80h
  3621  0311  00FF               	movwf	btemp+1
  3622  0312  3080               	movlw	(high(08h))^80h
  3623  0313  027F               	subwf	btemp+1,w
  3624  0314  1D03               	skipz
  3625  0315  2B18               	goto	u4795
  3626  0316  3008               	movlw	low(08h)
  3627  0317  0246               	subwf	(rotate_plane@j_3071)^080h,w
  3628  0318                     u4795:
  3629                           
  3630  0318  1C03               	skipc
  3631  0319  2B1B               	goto	u4791
  3632  031A  2B1C               	goto	u4790
  3633  031B                     u4791:
  3634  031B  2AF7               	goto	l6592
  3635  031C                     u4790:
  3636  031C  2B1D               	goto	l6598
  3637                           	
  3638  031D                     l2381:	
  3639                           	line	725
  3640                           	
  3641  031D                     l6598:	
  3642  031D  3001               	movlw	low(01h)
  3643  031E  1683               	bsf	status, 5	;RP0=1, select bank1
  3644  031F  1303               	bcf	status, 6	;RP1=0, select bank1
  3645  0320  07A8               	addwf	(rotate_plane@i_3070)^080h,f
  3646  0321  1803               	skipnc
  3647  0322  0AA9               	incf	(rotate_plane@i_3070+1)^080h,f
  3648  0323  3000               	movlw	high(01h)
  3649  0324  07A9               	addwf	(rotate_plane@i_3070+1)^080h,f
  3650                           	
  3651  0325                     l2378:	
  3652  0325  0829               	movf	(rotate_plane@i_3070+1)^080h,w
  3653  0326  3A80               	xorlw	80h
  3654  0327  00F5               	movwf	(??_rotate_plane+0)+0
  3655  0328  085D               	movf	(rotate_plane@time+1)^080h,w
  3656  0329  3A80               	xorlw	80h
  3657  032A  0275               	subwf	(??_rotate_plane+0)+0,w
  3658  032B  1D03               	skipz
  3659  032C  2B2F               	goto	u4805
  3660  032D  085C               	movf	(rotate_plane@time)^080h,w
  3661  032E  0228               	subwf	(rotate_plane@i_3070)^080h,w
  3662  032F                     u4805:
  3663                           
  3664  032F  1C03               	skipc
  3665  0330  2B32               	goto	u4801
  3666  0331  2B33               	goto	u4800
  3667  0332                     u4801:
  3668  0332  2ADC               	goto	l6584
  3669  0333                     u4800:
  3670                           	
  3671  0333                     l2382:	
  3672                           	line	735
  3673                           ;Effect.c: 731: }
  3674                           ;Effect.c: 732: }
  3675                           ;Effect.c: 735: rotate_pattern[0] = 0x00;
  3676  0333  1683               	bsf	status, 5	;RP0=1, select bank1
  3677  0334  1303               	bcf	status, 6	;RP1=0, select bank1
  3678  0335  01DE               	clrf	(rotate_plane@rotate_pattern)^080h
  3679                           	line	736
  3680                           ;Effect.c: 736: rotate_pattern[1] = 0x00;
  3681  0336  01DF               	clrf	0+(rotate_plane@rotate_pattern)^080h+01h
  3682                           	line	737
  3683                           	
  3684  0337                     l6600:	
  3685                           ;Effect.c: 737: rotate_pattern[2] = 0x03;
  3686  0337  3003               	movlw	(03h)
  3687  0338  00F5               	movwf	(??_rotate_plane+0)+0
  3688  0339  0875               	movf	(??_rotate_plane+0)+0,w
  3689  033A  00E0               	movwf	0+(rotate_plane@rotate_pattern)^080h+02h
  3690                           	line	738
  3691                           ;Effect.c: 738: rotate_pattern[3] = 0x0c;
  3692  033B  300C               	movlw	(0Ch)
  3693  033C  00F5               	movwf	(??_rotate_plane+0)+0
  3694  033D  0875               	movf	(??_rotate_plane+0)+0,w
  3695  033E  00E1               	movwf	0+(rotate_plane@rotate_pattern)^080h+03h
  3696                           	line	739
  3697                           ;Effect.c: 739: rotate_pattern[4] = 0x30;
  3698  033F  3030               	movlw	(030h)
  3699  0340  00F5               	movwf	(??_rotate_plane+0)+0
  3700  0341  0875               	movf	(??_rotate_plane+0)+0,w
  3701  0342  00E2               	movwf	0+(rotate_plane@rotate_pattern)^080h+04h
  3702                           	line	740
  3703                           ;Effect.c: 740: rotate_pattern[5] = 0xc0;
  3704  0343  30C0               	movlw	(0C0h)
  3705  0344  00F5               	movwf	(??_rotate_plane+0)+0
  3706  0345  0875               	movf	(??_rotate_plane+0)+0,w
  3707  0346  00E3               	movwf	0+(rotate_plane@rotate_pattern)^080h+05h
  3708                           	line	741
  3709                           	
  3710  0347                     l6602:	
  3711                           ;Effect.c: 741: rotate_pattern[6] = 0x00;
  3712  0347  01E4               	clrf	0+(rotate_plane@rotate_pattern)^080h+06h
  3713                           	line	742
  3714                           	
  3715  0348                     l6604:	
  3716                           ;Effect.c: 742: rotate_pattern[7] = 0x00;
  3717  0348  01E5               	clrf	0+(rotate_plane@rotate_pattern)^080h+07h
  3718                           	line	743
  3719                           	
  3720  0349                     l6606:	
  3721                           ;Effect.c: 743: for(int i = 0; i<time; i++)
  3722  0349  01AA               	clrf	(rotate_plane@i_3072)^080h
  3723  034A  01AB               	clrf	(rotate_plane@i_3072+1)^080h
  3724  034B  2B95               	goto	l2383
  3725                           	line	744
  3726                           	
  3727  034C                     l2384:	
  3728                           	line	745
  3729                           	
  3730  034C                     l6608:	
  3731                           ;Effect.c: 744: {
  3732                           ;Effect.c: 745: _delay((unsigned long)((1)*(20000000/4000.0)));
  3733                           	opt asmopt_off
  3734  034C  3007               movlw	7
  3735  034D  00F6               movwf	((??_rotate_plane+0)+0+1),f
  3736  034E  307D               	movlw	125
  3737  034F  00F5               movwf	((??_rotate_plane+0)+0),f
  3738  0350                     u5347:
  3739  0350  0BF5               	decfsz	((??_rotate_plane+0)+0),f
  3740  0351  2B50               	goto	u5347
  3741  0352  0BF6               	decfsz	((??_rotate_plane+0)+0+1),f
  3742  0353  2B50               	goto	u5347
  3743                           opt asmopt_on
  3744                           
  3745                           	line	746
  3746                           	
  3747  0354                     l6610:	
  3748                           ;Effect.c: 746: for(int j = 0; j<8; j++)
  3749  0354  1683               	bsf	status, 5	;RP0=1, select bank1
  3750  0355  1303               	bcf	status, 6	;RP1=0, select bank1
  3751  0356  01C8               	clrf	(rotate_plane@j_3073)^080h
  3752  0357  01C9               	clrf	(rotate_plane@j_3073+1)^080h
  3753                           	
  3754  0358                     l6612:	
  3755  0358  0849               	movf	(rotate_plane@j_3073+1)^080h,w
  3756  0359  3A80               	xorlw	80h
  3757  035A  00FF               	movwf	btemp+1
  3758  035B  3080               	movlw	(high(08h))^80h
  3759  035C  027F               	subwf	btemp+1,w
  3760  035D  1D03               	skipz
  3761  035E  2B61               	goto	u4815
  3762  035F  3008               	movlw	low(08h)
  3763  0360  0248               	subwf	(rotate_plane@j_3073)^080h,w
  3764  0361                     u4815:
  3765                           
  3766  0361  1C03               	skipc
  3767  0362  2B64               	goto	u4811
  3768  0363  2B65               	goto	u4810
  3769  0364                     u4811:
  3770  0364  2B67               	goto	l6616
  3771  0365                     u4810:
  3772  0365  2B8D               	goto	l6622
  3773                           	
  3774  0366                     l6614:	
  3775  0366  2B8D               	goto	l6622
  3776                           	line	747
  3777                           	
  3778  0367                     l2385:	
  3779                           	line	748
  3780                           	
  3781  0367                     l6616:	
  3782                           ;Effect.c: 747: {
  3783                           ;Effect.c: 748: show_pattern_on_a_plane(j,3,rotate_pattern);
  3784  0367  3003               	movlw	(03h)
  3785  0368  00F5               	movwf	(??_rotate_plane+0)+0
  3786  0369  0875               	movf	(??_rotate_plane+0)+0,w
  3787  036A  00F0               	movwf	(?_show_pattern_on_a_plane)
  3788  036B  30DE               	movlw	(rotate_plane@rotate_pattern)&0ffh
  3789  036C  00F6               	movwf	(??_rotate_plane+1)+0
  3790  036D  0876               	movf	(??_rotate_plane+1)+0,w
  3791  036E  00F1               	movwf	0+(?_show_pattern_on_a_plane)+01h
  3792  036F  1683               	bsf	status, 5	;RP0=1, select bank1
  3793  0370  1303               	bcf	status, 6	;RP1=0, select bank1
  3794  0371  0848               	movf	(rotate_plane@j_3073)^080h,w
  3795  0372  160A  118A  2451   	fcall	_show_pattern_on_a_plane
              120A  118A         
  3796                           	line	746
  3797                           	
  3798  0377                     l6618:	
  3799  0377  3001               	movlw	low(01h)
  3800  0378  1683               	bsf	status, 5	;RP0=1, select bank1
  3801  0379  1303               	bcf	status, 6	;RP1=0, select bank1
  3802  037A  07C8               	addwf	(rotate_plane@j_3073)^080h,f
  3803  037B  1803               	skipnc
  3804  037C  0AC9               	incf	(rotate_plane@j_3073+1)^080h,f
  3805  037D  3000               	movlw	high(01h)
  3806  037E  07C9               	addwf	(rotate_plane@j_3073+1)^080h,f
  3807                           	
  3808  037F                     l6620:	
  3809  037F  0849               	movf	(rotate_plane@j_3073+1)^080h,w
  3810  0380  3A80               	xorlw	80h
  3811  0381  00FF               	movwf	btemp+1
  3812  0382  3080               	movlw	(high(08h))^80h
  3813  0383  027F               	subwf	btemp+1,w
  3814  0384  1D03               	skipz
  3815  0385  2B88               	goto	u4825
  3816  0386  3008               	movlw	low(08h)
  3817  0387  0248               	subwf	(rotate_plane@j_3073)^080h,w
  3818  0388                     u4825:
  3819                           
  3820  0388  1C03               	skipc
  3821  0389  2B8B               	goto	u4821
  3822  038A  2B8C               	goto	u4820
  3823  038B                     u4821:
  3824  038B  2B67               	goto	l6616
  3825  038C                     u4820:
  3826  038C  2B8D               	goto	l6622
  3827                           	
  3828  038D                     l2386:	
  3829                           	line	743
  3830                           	
  3831  038D                     l6622:	
  3832  038D  3001               	movlw	low(01h)
  3833  038E  1683               	bsf	status, 5	;RP0=1, select bank1
  3834  038F  1303               	bcf	status, 6	;RP1=0, select bank1
  3835  0390  07AA               	addwf	(rotate_plane@i_3072)^080h,f
  3836  0391  1803               	skipnc
  3837  0392  0AAB               	incf	(rotate_plane@i_3072+1)^080h,f
  3838  0393  3000               	movlw	high(01h)
  3839  0394  07AB               	addwf	(rotate_plane@i_3072+1)^080h,f
  3840                           	
  3841  0395                     l2383:	
  3842  0395  082B               	movf	(rotate_plane@i_3072+1)^080h,w
  3843  0396  3A80               	xorlw	80h
  3844  0397  00F5               	movwf	(??_rotate_plane+0)+0
  3845  0398  085D               	movf	(rotate_plane@time+1)^080h,w
  3846  0399  3A80               	xorlw	80h
  3847  039A  0275               	subwf	(??_rotate_plane+0)+0,w
  3848  039B  1D03               	skipz
  3849  039C  2B9F               	goto	u4835
  3850  039D  085C               	movf	(rotate_plane@time)^080h,w
  3851  039E  022A               	subwf	(rotate_plane@i_3072)^080h,w
  3852  039F                     u4835:
  3853                           
  3854  039F  1C03               	skipc
  3855  03A0  2BA2               	goto	u4831
  3856  03A1  2BA3               	goto	u4830
  3857  03A2                     u4831:
  3858  03A2  2B4C               	goto	l6608
  3859  03A3                     u4830:
  3860                           	
  3861  03A3                     l2387:	
  3862                           	line	753
  3863                           ;Effect.c: 749: }
  3864                           ;Effect.c: 750: }
  3865                           ;Effect.c: 753: rotate_pattern[0] = 0x00;
  3866  03A3  1683               	bsf	status, 5	;RP0=1, select bank1
  3867  03A4  1303               	bcf	status, 6	;RP1=0, select bank1
  3868  03A5  01DE               	clrf	(rotate_plane@rotate_pattern)^080h
  3869                           	line	754
  3870                           	
  3871  03A6                     l6624:	
  3872                           ;Effect.c: 754: rotate_pattern[1] = 0x01;
  3873  03A6  01DF               	clrf	0+(rotate_plane@rotate_pattern)^080h+01h
  3874  03A7  1403               	bsf	status,0
  3875  03A8  0DDF               	rlf	0+(rotate_plane@rotate_pattern)^080h+01h,f
  3876                           	line	755
  3877                           	
  3878  03A9                     l6626:	
  3879                           ;Effect.c: 755: rotate_pattern[2] = 0x02;
  3880  03A9  3002               	movlw	(02h)
  3881  03AA  00F5               	movwf	(??_rotate_plane+0)+0
  3882  03AB  0875               	movf	(??_rotate_plane+0)+0,w
  3883  03AC  00E0               	movwf	0+(rotate_plane@rotate_pattern)^080h+02h
  3884                           	line	756
  3885                           	
  3886  03AD                     l6628:	
  3887                           ;Effect.c: 756: rotate_pattern[3] = 0x0c;
  3888  03AD  300C               	movlw	(0Ch)
  3889  03AE  00F5               	movwf	(??_rotate_plane+0)+0
  3890  03AF  0875               	movf	(??_rotate_plane+0)+0,w
  3891  03B0  00E1               	movwf	0+(rotate_plane@rotate_pattern)^080h+03h
  3892                           	line	757
  3893                           	
  3894  03B1                     l6630:	
  3895                           ;Effect.c: 757: rotate_pattern[4] = 0x30;
  3896  03B1  3030               	movlw	(030h)
  3897  03B2  00F5               	movwf	(??_rotate_plane+0)+0
  3898  03B3  0875               	movf	(??_rotate_plane+0)+0,w
  3899  03B4  00E2               	movwf	0+(rotate_plane@rotate_pattern)^080h+04h
  3900                           	line	758
  3901                           	
  3902  03B5                     l6632:	
  3903                           ;Effect.c: 758: rotate_pattern[5] = 0x40;
  3904  03B5  3040               	movlw	(040h)
  3905  03B6  00F5               	movwf	(??_rotate_plane+0)+0
  3906  03B7  0875               	movf	(??_rotate_plane+0)+0,w
  3907  03B8  00E3               	movwf	0+(rotate_plane@rotate_pattern)^080h+05h
  3908                           	line	759
  3909                           	
  3910  03B9                     l6634:	
  3911                           ;Effect.c: 759: rotate_pattern[6] = 0x80;
  3912  03B9  3080               	movlw	(080h)
  3913  03BA  00F5               	movwf	(??_rotate_plane+0)+0
  3914  03BB  0875               	movf	(??_rotate_plane+0)+0,w
  3915  03BC  00E4               	movwf	0+(rotate_plane@rotate_pattern)^080h+06h
  3916                           	line	760
  3917                           	
  3918  03BD                     l6636:	
  3919                           ;Effect.c: 760: rotate_pattern[7] = 0x00;
  3920  03BD  01E5               	clrf	0+(rotate_plane@rotate_pattern)^080h+07h
  3921                           	line	761
  3922                           	
  3923  03BE                     l6638:	
  3924                           ;Effect.c: 761: for(int i = 0; i<time; i++)
  3925  03BE  01AC               	clrf	(rotate_plane@i_3074)^080h
  3926  03BF  01AD               	clrf	(rotate_plane@i_3074+1)^080h
  3927  03C0  2C0A               	goto	l2388
  3928                           	line	762
  3929                           	
  3930  03C1                     l2389:	
  3931                           	line	763
  3932                           	
  3933  03C1                     l6640:	
  3934                           ;Effect.c: 762: {
  3935                           ;Effect.c: 763: _delay((unsigned long)((1)*(20000000/4000.0)));
  3936                           	opt asmopt_off
  3937  03C1  3007               movlw	7
  3938  03C2  00F6               movwf	((??_rotate_plane+0)+0+1),f
  3939  03C3  307D               	movlw	125
  3940  03C4  00F5               movwf	((??_rotate_plane+0)+0),f
  3941  03C5                     u5357:
  3942  03C5  0BF5               	decfsz	((??_rotate_plane+0)+0),f
  3943  03C6  2BC5               	goto	u5357
  3944  03C7  0BF6               	decfsz	((??_rotate_plane+0)+0+1),f
  3945  03C8  2BC5               	goto	u5357
  3946                           opt asmopt_on
  3947                           
  3948                           	line	764
  3949                           	
  3950  03C9                     l6642:	
  3951                           ;Effect.c: 764: for(int j = 0; j<8; j++)
  3952  03C9  1683               	bsf	status, 5	;RP0=1, select bank1
  3953  03CA  1303               	bcf	status, 6	;RP1=0, select bank1
  3954  03CB  01CA               	clrf	(rotate_plane@j_3075)^080h
  3955  03CC  01CB               	clrf	(rotate_plane@j_3075+1)^080h
  3956                           	
  3957  03CD                     l6644:	
  3958  03CD  084B               	movf	(rotate_plane@j_3075+1)^080h,w
  3959  03CE  3A80               	xorlw	80h
  3960  03CF  00FF               	movwf	btemp+1
  3961  03D0  3080               	movlw	(high(08h))^80h
  3962  03D1  027F               	subwf	btemp+1,w
  3963  03D2  1D03               	skipz
  3964  03D3  2BD6               	goto	u4845
  3965  03D4  3008               	movlw	low(08h)
  3966  03D5  024A               	subwf	(rotate_plane@j_3075)^080h,w
  3967  03D6                     u4845:
  3968                           
  3969  03D6  1C03               	skipc
  3970  03D7  2BD9               	goto	u4841
  3971  03D8  2BDA               	goto	u4840
  3972  03D9                     u4841:
  3973  03D9  2BDC               	goto	l6648
  3974  03DA                     u4840:
  3975  03DA  2C02               	goto	l6654
  3976                           	
  3977  03DB                     l6646:	
  3978  03DB  2C02               	goto	l6654
  3979                           	line	765
  3980                           	
  3981  03DC                     l2390:	
  3982                           	line	766
  3983                           	
  3984  03DC                     l6648:	
  3985                           ;Effect.c: 765: {
  3986                           ;Effect.c: 766: show_pattern_on_a_plane(j,3,rotate_pattern);
  3987  03DC  3003               	movlw	(03h)
  3988  03DD  00F5               	movwf	(??_rotate_plane+0)+0
  3989  03DE  0875               	movf	(??_rotate_plane+0)+0,w
  3990  03DF  00F0               	movwf	(?_show_pattern_on_a_plane)
  3991  03E0  30DE               	movlw	(rotate_plane@rotate_pattern)&0ffh
  3992  03E1  00F6               	movwf	(??_rotate_plane+1)+0
  3993  03E2  0876               	movf	(??_rotate_plane+1)+0,w
  3994  03E3  00F1               	movwf	0+(?_show_pattern_on_a_plane)+01h
  3995  03E4  1683               	bsf	status, 5	;RP0=1, select bank1
  3996  03E5  1303               	bcf	status, 6	;RP1=0, select bank1
  3997  03E6  084A               	movf	(rotate_plane@j_3075)^080h,w
  3998  03E7  160A  118A  2451   	fcall	_show_pattern_on_a_plane
              120A  118A         
  3999                           	line	764
  4000                           	
  4001  03EC                     l6650:	
  4002  03EC  3001               	movlw	low(01h)
  4003  03ED  1683               	bsf	status, 5	;RP0=1, select bank1
  4004  03EE  1303               	bcf	status, 6	;RP1=0, select bank1
  4005  03EF  07CA               	addwf	(rotate_plane@j_3075)^080h,f
  4006  03F0  1803               	skipnc
  4007  03F1  0ACB               	incf	(rotate_plane@j_3075+1)^080h,f
  4008  03F2  3000               	movlw	high(01h)
  4009  03F3  07CB               	addwf	(rotate_plane@j_3075+1)^080h,f
  4010                           	
  4011  03F4                     l6652:	
  4012  03F4  084B               	movf	(rotate_plane@j_3075+1)^080h,w
  4013  03F5  3A80               	xorlw	80h
  4014  03F6  00FF               	movwf	btemp+1
  4015  03F7  3080               	movlw	(high(08h))^80h
  4016  03F8  027F               	subwf	btemp+1,w
  4017  03F9  1D03               	skipz
  4018  03FA  2BFD               	goto	u4855
  4019  03FB  3008               	movlw	low(08h)
  4020  03FC  024A               	subwf	(rotate_plane@j_3075)^080h,w
  4021  03FD                     u4855:
  4022                           
  4023  03FD  1C03               	skipc
  4024  03FE  2C00               	goto	u4851
  4025  03FF  2C01               	goto	u4850
  4026  0400                     u4851:
  4027  0400  2BDC               	goto	l6648
  4028  0401                     u4850:
  4029  0401  2C02               	goto	l6654
  4030                           	
  4031  0402                     l2391:	
  4032                           	line	761
  4033                           	
  4034  0402                     l6654:	
  4035  0402  3001               	movlw	low(01h)
  4036  0403  1683               	bsf	status, 5	;RP0=1, select bank1
  4037  0404  1303               	bcf	status, 6	;RP1=0, select bank1
  4038  0405  07AC               	addwf	(rotate_plane@i_3074)^080h,f
  4039  0406  1803               	skipnc
  4040  0407  0AAD               	incf	(rotate_plane@i_3074+1)^080h,f
  4041  0408  3000               	movlw	high(01h)
  4042  0409  07AD               	addwf	(rotate_plane@i_3074+1)^080h,f
  4043                           	
  4044  040A                     l2388:	
  4045  040A  082D               	movf	(rotate_plane@i_3074+1)^080h,w
  4046  040B  3A80               	xorlw	80h
  4047  040C  00F5               	movwf	(??_rotate_plane+0)+0
  4048  040D  085D               	movf	(rotate_plane@time+1)^080h,w
  4049  040E  3A80               	xorlw	80h
  4050  040F  0275               	subwf	(??_rotate_plane+0)+0,w
  4051  0410  1D03               	skipz
  4052  0411  2C14               	goto	u4865
  4053  0412  085C               	movf	(rotate_plane@time)^080h,w
  4054  0413  022C               	subwf	(rotate_plane@i_3074)^080h,w
  4055  0414                     u4865:
  4056                           
  4057  0414  1C03               	skipc
  4058  0415  2C17               	goto	u4861
  4059  0416  2C18               	goto	u4860
  4060  0417                     u4861:
  4061  0417  2BC1               	goto	l6640
  4062  0418                     u4860:
  4063  0418  2C19               	goto	l6656
  4064                           	
  4065  0419                     l2392:	
  4066                           	line	771
  4067                           	
  4068  0419                     l6656:	
  4069                           ;Effect.c: 767: }
  4070                           ;Effect.c: 768: }
  4071                           ;Effect.c: 771: rotate_pattern[0] = 0x01;
  4072  0419  1683               	bsf	status, 5	;RP0=1, select bank1
  4073  041A  1303               	bcf	status, 6	;RP1=0, select bank1
  4074  041B  01DE               	clrf	(rotate_plane@rotate_pattern)^080h
  4075  041C  1403               	bsf	status,0
  4076  041D  0DDE               	rlf	(rotate_plane@rotate_pattern)^080h,f
  4077                           	line	772
  4078                           	
  4079  041E                     l6658:	
  4080                           ;Effect.c: 772: rotate_pattern[1] = 0x02;
  4081  041E  3002               	movlw	(02h)
  4082  041F  00F5               	movwf	(??_rotate_plane+0)+0
  4083  0420  0875               	movf	(??_rotate_plane+0)+0,w
  4084  0421  00DF               	movwf	0+(rotate_plane@rotate_pattern)^080h+01h
  4085                           	line	773
  4086                           	
  4087  0422                     l6660:	
  4088                           ;Effect.c: 773: rotate_pattern[2] = 0x04;
  4089  0422  3004               	movlw	(04h)
  4090  0423  00F5               	movwf	(??_rotate_plane+0)+0
  4091  0424  0875               	movf	(??_rotate_plane+0)+0,w
  4092  0425  00E0               	movwf	0+(rotate_plane@rotate_pattern)^080h+02h
  4093                           	line	774
  4094                           	
  4095  0426                     l6662:	
  4096                           ;Effect.c: 774: rotate_pattern[3] = 0x08;
  4097  0426  3008               	movlw	(08h)
  4098  0427  00F5               	movwf	(??_rotate_plane+0)+0
  4099  0428  0875               	movf	(??_rotate_plane+0)+0,w
  4100  0429  00E1               	movwf	0+(rotate_plane@rotate_pattern)^080h+03h
  4101                           	line	775
  4102                           	
  4103  042A                     l6664:	
  4104                           ;Effect.c: 775: rotate_pattern[4] = 0x10;
  4105  042A  3010               	movlw	(010h)
  4106  042B  00F5               	movwf	(??_rotate_plane+0)+0
  4107  042C  0875               	movf	(??_rotate_plane+0)+0,w
  4108  042D  00E2               	movwf	0+(rotate_plane@rotate_pattern)^080h+04h
  4109                           	line	776
  4110                           	
  4111  042E                     l6666:	
  4112                           ;Effect.c: 776: rotate_pattern[5] = 0x20;
  4113  042E  3020               	movlw	(020h)
  4114  042F  00F5               	movwf	(??_rotate_plane+0)+0
  4115  0430  0875               	movf	(??_rotate_plane+0)+0,w
  4116  0431  00E3               	movwf	0+(rotate_plane@rotate_pattern)^080h+05h
  4117                           	line	777
  4118                           	
  4119  0432                     l6668:	
  4120                           ;Effect.c: 777: rotate_pattern[6] = 0x40;
  4121  0432  3040               	movlw	(040h)
  4122  0433  00F5               	movwf	(??_rotate_plane+0)+0
  4123  0434  0875               	movf	(??_rotate_plane+0)+0,w
  4124  0435  00E4               	movwf	0+(rotate_plane@rotate_pattern)^080h+06h
  4125                           	line	778
  4126                           	
  4127  0436                     l6670:	
  4128                           ;Effect.c: 778: rotate_pattern[7] = 0x80;
  4129  0436  3080               	movlw	(080h)
  4130  0437  00F5               	movwf	(??_rotate_plane+0)+0
  4131  0438  0875               	movf	(??_rotate_plane+0)+0,w
  4132  0439  00E5               	movwf	0+(rotate_plane@rotate_pattern)^080h+07h
  4133                           	line	779
  4134                           	
  4135  043A                     l6672:	
  4136                           ;Effect.c: 779: for(int i = 0; i<time; i++)
  4137  043A  01AE               	clrf	(rotate_plane@i_3076)^080h
  4138  043B  01AF               	clrf	(rotate_plane@i_3076+1)^080h
  4139  043C  2C86               	goto	l2393
  4140                           	line	780
  4141                           	
  4142  043D                     l2394:	
  4143                           	line	781
  4144                           	
  4145  043D                     l6674:	
  4146                           ;Effect.c: 780: {
  4147                           ;Effect.c: 781: _delay((unsigned long)((1)*(20000000/4000.0)));
  4148                           	opt asmopt_off
  4149  043D  3007               movlw	7
  4150  043E  00F6               movwf	((??_rotate_plane+0)+0+1),f
  4151  043F  307D               	movlw	125
  4152  0440  00F5               movwf	((??_rotate_plane+0)+0),f
  4153  0441                     u5367:
  4154  0441  0BF5               	decfsz	((??_rotate_plane+0)+0),f
  4155  0442  2C41               	goto	u5367
  4156  0443  0BF6               	decfsz	((??_rotate_plane+0)+0+1),f
  4157  0444  2C41               	goto	u5367
  4158                           opt asmopt_on
  4159                           
  4160                           	line	782
  4161                           	
  4162  0445                     l6676:	
  4163                           ;Effect.c: 782: for(int j = 0; j<8; j++)
  4164  0445  1683               	bsf	status, 5	;RP0=1, select bank1
  4165  0446  1303               	bcf	status, 6	;RP1=0, select bank1
  4166  0447  01CC               	clrf	(rotate_plane@j_3077)^080h
  4167  0448  01CD               	clrf	(rotate_plane@j_3077+1)^080h
  4168                           	
  4169  0449                     l6678:	
  4170  0449  084D               	movf	(rotate_plane@j_3077+1)^080h,w
  4171  044A  3A80               	xorlw	80h
  4172  044B  00FF               	movwf	btemp+1
  4173  044C  3080               	movlw	(high(08h))^80h
  4174  044D  027F               	subwf	btemp+1,w
  4175  044E  1D03               	skipz
  4176  044F  2C52               	goto	u4875
  4177  0450  3008               	movlw	low(08h)
  4178  0451  024C               	subwf	(rotate_plane@j_3077)^080h,w
  4179  0452                     u4875:
  4180                           
  4181  0452  1C03               	skipc
  4182  0453  2C55               	goto	u4871
  4183  0454  2C56               	goto	u4870
  4184  0455                     u4871:
  4185  0455  2C58               	goto	l6682
  4186  0456                     u4870:
  4187  0456  2C7E               	goto	l6688
  4188                           	
  4189  0457                     l6680:	
  4190  0457  2C7E               	goto	l6688
  4191                           	line	783
  4192                           	
  4193  0458                     l2395:	
  4194                           	line	784
  4195                           	
  4196  0458                     l6682:	
  4197                           ;Effect.c: 783: {
  4198                           ;Effect.c: 784: show_pattern_on_a_plane(j,3,rotate_pattern);
  4199  0458  3003               	movlw	(03h)
  4200  0459  00F5               	movwf	(??_rotate_plane+0)+0
  4201  045A  0875               	movf	(??_rotate_plane+0)+0,w
  4202  045B  00F0               	movwf	(?_show_pattern_on_a_plane)
  4203  045C  30DE               	movlw	(rotate_plane@rotate_pattern)&0ffh
  4204  045D  00F6               	movwf	(??_rotate_plane+1)+0
  4205  045E  0876               	movf	(??_rotate_plane+1)+0,w
  4206  045F  00F1               	movwf	0+(?_show_pattern_on_a_plane)+01h
  4207  0460  1683               	bsf	status, 5	;RP0=1, select bank1
  4208  0461  1303               	bcf	status, 6	;RP1=0, select bank1
  4209  0462  084C               	movf	(rotate_plane@j_3077)^080h,w
  4210  0463  160A  118A  2451   	fcall	_show_pattern_on_a_plane
              120A  118A         
  4211                           	line	782
  4212                           	
  4213  0468                     l6684:	
  4214  0468  3001               	movlw	low(01h)
  4215  0469  1683               	bsf	status, 5	;RP0=1, select bank1
  4216  046A  1303               	bcf	status, 6	;RP1=0, select bank1
  4217  046B  07CC               	addwf	(rotate_plane@j_3077)^080h,f
  4218  046C  1803               	skipnc
  4219  046D  0ACD               	incf	(rotate_plane@j_3077+1)^080h,f
  4220  046E  3000               	movlw	high(01h)
  4221  046F  07CD               	addwf	(rotate_plane@j_3077+1)^080h,f
  4222                           	
  4223  0470                     l6686:	
  4224  0470  084D               	movf	(rotate_plane@j_3077+1)^080h,w
  4225  0471  3A80               	xorlw	80h
  4226  0472  00FF               	movwf	btemp+1
  4227  0473  3080               	movlw	(high(08h))^80h
  4228  0474  027F               	subwf	btemp+1,w
  4229  0475  1D03               	skipz
  4230  0476  2C79               	goto	u4885
  4231  0477  3008               	movlw	low(08h)
  4232  0478  024C               	subwf	(rotate_plane@j_3077)^080h,w
  4233  0479                     u4885:
  4234                           
  4235  0479  1C03               	skipc
  4236  047A  2C7C               	goto	u4881
  4237  047B  2C7D               	goto	u4880
  4238  047C                     u4881:
  4239  047C  2C58               	goto	l6682
  4240  047D                     u4880:
  4241  047D  2C7E               	goto	l6688
  4242                           	
  4243  047E                     l2396:	
  4244                           	line	779
  4245                           	
  4246  047E                     l6688:	
  4247  047E  3001               	movlw	low(01h)
  4248  047F  1683               	bsf	status, 5	;RP0=1, select bank1
  4249  0480  1303               	bcf	status, 6	;RP1=0, select bank1
  4250  0481  07AE               	addwf	(rotate_plane@i_3076)^080h,f
  4251  0482  1803               	skipnc
  4252  0483  0AAF               	incf	(rotate_plane@i_3076+1)^080h,f
  4253  0484  3000               	movlw	high(01h)
  4254  0485  07AF               	addwf	(rotate_plane@i_3076+1)^080h,f
  4255                           	
  4256  0486                     l2393:	
  4257  0486  082F               	movf	(rotate_plane@i_3076+1)^080h,w
  4258  0487  3A80               	xorlw	80h
  4259  0488  00F5               	movwf	(??_rotate_plane+0)+0
  4260  0489  085D               	movf	(rotate_plane@time+1)^080h,w
  4261  048A  3A80               	xorlw	80h
  4262  048B  0275               	subwf	(??_rotate_plane+0)+0,w
  4263  048C  1D03               	skipz
  4264  048D  2C90               	goto	u4895
  4265  048E  085C               	movf	(rotate_plane@time)^080h,w
  4266  048F  022E               	subwf	(rotate_plane@i_3076)^080h,w
  4267  0490                     u4895:
  4268                           
  4269  0490  1C03               	skipc
  4270  0491  2C93               	goto	u4891
  4271  0492  2C94               	goto	u4890
  4272  0493                     u4891:
  4273  0493  2C3D               	goto	l6674
  4274  0494                     u4890:
  4275  0494  2C95               	goto	l6690
  4276                           	
  4277  0495                     l2397:	
  4278                           	line	789
  4279                           	
  4280  0495                     l6690:	
  4281                           ;Effect.c: 785: }
  4282                           ;Effect.c: 786: }
  4283                           ;Effect.c: 789: rotate_pattern[0] = 0x02;
  4284  0495  3002               	movlw	(02h)
  4285  0496  00F5               	movwf	(??_rotate_plane+0)+0
  4286  0497  0875               	movf	(??_rotate_plane+0)+0,w
  4287  0498  1683               	bsf	status, 5	;RP0=1, select bank1
  4288  0499  1303               	bcf	status, 6	;RP1=0, select bank1
  4289  049A  00DE               	movwf	(rotate_plane@rotate_pattern)^080h
  4290                           	line	790
  4291                           ;Effect.c: 790: rotate_pattern[1] = 0x04;
  4292  049B  3004               	movlw	(04h)
  4293  049C  00F5               	movwf	(??_rotate_plane+0)+0
  4294  049D  0875               	movf	(??_rotate_plane+0)+0,w
  4295  049E  00DF               	movwf	0+(rotate_plane@rotate_pattern)^080h+01h
  4296                           	line	791
  4297                           ;Effect.c: 791: rotate_pattern[2] = 0x08;
  4298  049F  3008               	movlw	(08h)
  4299  04A0  00F5               	movwf	(??_rotate_plane+0)+0
  4300  04A1  0875               	movf	(??_rotate_plane+0)+0,w
  4301  04A2  00E0               	movwf	0+(rotate_plane@rotate_pattern)^080h+02h
  4302                           	line	792
  4303                           ;Effect.c: 792: rotate_pattern[3] = 0x08;
  4304  04A3  3008               	movlw	(08h)
  4305  04A4  00F5               	movwf	(??_rotate_plane+0)+0
  4306  04A5  0875               	movf	(??_rotate_plane+0)+0,w
  4307  04A6  00E1               	movwf	0+(rotate_plane@rotate_pattern)^080h+03h
  4308                           	line	793
  4309                           ;Effect.c: 793: rotate_pattern[4] = 0x10;
  4310  04A7  3010               	movlw	(010h)
  4311  04A8  00F5               	movwf	(??_rotate_plane+0)+0
  4312  04A9  0875               	movf	(??_rotate_plane+0)+0,w
  4313  04AA  00E2               	movwf	0+(rotate_plane@rotate_pattern)^080h+04h
  4314                           	line	794
  4315                           ;Effect.c: 794: rotate_pattern[5] = 0x10;
  4316  04AB  3010               	movlw	(010h)
  4317  04AC  00F5               	movwf	(??_rotate_plane+0)+0
  4318  04AD  0875               	movf	(??_rotate_plane+0)+0,w
  4319  04AE  00E3               	movwf	0+(rotate_plane@rotate_pattern)^080h+05h
  4320                           	line	795
  4321                           ;Effect.c: 795: rotate_pattern[6] = 0x20;
  4322  04AF  3020               	movlw	(020h)
  4323  04B0  00F5               	movwf	(??_rotate_plane+0)+0
  4324  04B1  0875               	movf	(??_rotate_plane+0)+0,w
  4325  04B2  00E4               	movwf	0+(rotate_plane@rotate_pattern)^080h+06h
  4326                           	line	796
  4327                           ;Effect.c: 796: rotate_pattern[7] = 0x40;
  4328  04B3  3040               	movlw	(040h)
  4329  04B4  00F5               	movwf	(??_rotate_plane+0)+0
  4330  04B5  0875               	movf	(??_rotate_plane+0)+0,w
  4331  04B6  00E5               	movwf	0+(rotate_plane@rotate_pattern)^080h+07h
  4332                           	line	797
  4333                           	
  4334  04B7                     l6692:	
  4335                           ;Effect.c: 797: for(int i = 0; i<time; i++)
  4336  04B7  01B0               	clrf	(rotate_plane@i_3078)^080h
  4337  04B8  01B1               	clrf	(rotate_plane@i_3078+1)^080h
  4338  04B9  2D03               	goto	l2398
  4339                           	line	798
  4340                           	
  4341  04BA                     l2399:	
  4342                           	line	799
  4343                           	
  4344  04BA                     l6694:	
  4345                           ;Effect.c: 798: {
  4346                           ;Effect.c: 799: _delay((unsigned long)((1)*(20000000/4000.0)));
  4347                           	opt asmopt_off
  4348  04BA  3007               movlw	7
  4349  04BB  00F6               movwf	((??_rotate_plane+0)+0+1),f
  4350  04BC  307D               	movlw	125
  4351  04BD  00F5               movwf	((??_rotate_plane+0)+0),f
  4352  04BE                     u5377:
  4353  04BE  0BF5               	decfsz	((??_rotate_plane+0)+0),f
  4354  04BF  2CBE               	goto	u5377
  4355  04C0  0BF6               	decfsz	((??_rotate_plane+0)+0+1),f
  4356  04C1  2CBE               	goto	u5377
  4357                           opt asmopt_on
  4358                           
  4359                           	line	800
  4360                           	
  4361  04C2                     l6696:	
  4362                           ;Effect.c: 800: for(int j = 0; j<8; j++)
  4363  04C2  1683               	bsf	status, 5	;RP0=1, select bank1
  4364  04C3  1303               	bcf	status, 6	;RP1=0, select bank1
  4365  04C4  01CE               	clrf	(rotate_plane@j_3079)^080h
  4366  04C5  01CF               	clrf	(rotate_plane@j_3079+1)^080h
  4367                           	
  4368  04C6                     l6698:	
  4369  04C6  084F               	movf	(rotate_plane@j_3079+1)^080h,w
  4370  04C7  3A80               	xorlw	80h
  4371  04C8  00FF               	movwf	btemp+1
  4372  04C9  3080               	movlw	(high(08h))^80h
  4373  04CA  027F               	subwf	btemp+1,w
  4374  04CB  1D03               	skipz
  4375  04CC  2CCF               	goto	u4905
  4376  04CD  3008               	movlw	low(08h)
  4377  04CE  024E               	subwf	(rotate_plane@j_3079)^080h,w
  4378  04CF                     u4905:
  4379                           
  4380  04CF  1C03               	skipc
  4381  04D0  2CD2               	goto	u4901
  4382  04D1  2CD3               	goto	u4900
  4383  04D2                     u4901:
  4384  04D2  2CD5               	goto	l6702
  4385  04D3                     u4900:
  4386  04D3  2CFB               	goto	l6708
  4387                           	
  4388  04D4                     l6700:	
  4389  04D4  2CFB               	goto	l6708
  4390                           	line	801
  4391                           	
  4392  04D5                     l2400:	
  4393                           	line	802
  4394                           	
  4395  04D5                     l6702:	
  4396                           ;Effect.c: 801: {
  4397                           ;Effect.c: 802: show_pattern_on_a_plane(j,3,rotate_pattern);
  4398  04D5  3003               	movlw	(03h)
  4399  04D6  00F5               	movwf	(??_rotate_plane+0)+0
  4400  04D7  0875               	movf	(??_rotate_plane+0)+0,w
  4401  04D8  00F0               	movwf	(?_show_pattern_on_a_plane)
  4402  04D9  30DE               	movlw	(rotate_plane@rotate_pattern)&0ffh
  4403  04DA  00F6               	movwf	(??_rotate_plane+1)+0
  4404  04DB  0876               	movf	(??_rotate_plane+1)+0,w
  4405  04DC  00F1               	movwf	0+(?_show_pattern_on_a_plane)+01h
  4406  04DD  1683               	bsf	status, 5	;RP0=1, select bank1
  4407  04DE  1303               	bcf	status, 6	;RP1=0, select bank1
  4408  04DF  084E               	movf	(rotate_plane@j_3079)^080h,w
  4409  04E0  160A  118A  2451   	fcall	_show_pattern_on_a_plane
              120A  118A         
  4410                           	line	800
  4411                           	
  4412  04E5                     l6704:	
  4413  04E5  3001               	movlw	low(01h)
  4414  04E6  1683               	bsf	status, 5	;RP0=1, select bank1
  4415  04E7  1303               	bcf	status, 6	;RP1=0, select bank1
  4416  04E8  07CE               	addwf	(rotate_plane@j_3079)^080h,f
  4417  04E9  1803               	skipnc
  4418  04EA  0ACF               	incf	(rotate_plane@j_3079+1)^080h,f
  4419  04EB  3000               	movlw	high(01h)
  4420  04EC  07CF               	addwf	(rotate_plane@j_3079+1)^080h,f
  4421                           	
  4422  04ED                     l6706:	
  4423  04ED  084F               	movf	(rotate_plane@j_3079+1)^080h,w
  4424  04EE  3A80               	xorlw	80h
  4425  04EF  00FF               	movwf	btemp+1
  4426  04F0  3080               	movlw	(high(08h))^80h
  4427  04F1  027F               	subwf	btemp+1,w
  4428  04F2  1D03               	skipz
  4429  04F3  2CF6               	goto	u4915
  4430  04F4  3008               	movlw	low(08h)
  4431  04F5  024E               	subwf	(rotate_plane@j_3079)^080h,w
  4432  04F6                     u4915:
  4433                           
  4434  04F6  1C03               	skipc
  4435  04F7  2CF9               	goto	u4911
  4436  04F8  2CFA               	goto	u4910
  4437  04F9                     u4911:
  4438  04F9  2CD5               	goto	l6702
  4439  04FA                     u4910:
  4440  04FA  2CFB               	goto	l6708
  4441                           	
  4442  04FB                     l2401:	
  4443                           	line	797
  4444                           	
  4445  04FB                     l6708:	
  4446  04FB  3001               	movlw	low(01h)
  4447  04FC  1683               	bsf	status, 5	;RP0=1, select bank1
  4448  04FD  1303               	bcf	status, 6	;RP1=0, select bank1
  4449  04FE  07B0               	addwf	(rotate_plane@i_3078)^080h,f
  4450  04FF  1803               	skipnc
  4451  0500  0AB1               	incf	(rotate_plane@i_3078+1)^080h,f
  4452  0501  3000               	movlw	high(01h)
  4453  0502  07B1               	addwf	(rotate_plane@i_3078+1)^080h,f
  4454                           	
  4455  0503                     l2398:	
  4456  0503  0831               	movf	(rotate_plane@i_3078+1)^080h,w
  4457  0504  3A80               	xorlw	80h
  4458  0505  00F5               	movwf	(??_rotate_plane+0)+0
  4459  0506  085D               	movf	(rotate_plane@time+1)^080h,w
  4460  0507  3A80               	xorlw	80h
  4461  0508  0275               	subwf	(??_rotate_plane+0)+0,w
  4462  0509  1D03               	skipz
  4463  050A  2D0D               	goto	u4925
  4464  050B  085C               	movf	(rotate_plane@time)^080h,w
  4465  050C  0230               	subwf	(rotate_plane@i_3078)^080h,w
  4466  050D                     u4925:
  4467                           
  4468  050D  1C03               	skipc
  4469  050E  2D10               	goto	u4921
  4470  050F  2D11               	goto	u4920
  4471  0510                     u4921:
  4472  0510  2CBA               	goto	l6694
  4473  0511                     u4920:
  4474  0511  2D12               	goto	l6710
  4475                           	
  4476  0512                     l2402:	
  4477                           	line	807
  4478                           	
  4479  0512                     l6710:	
  4480                           ;Effect.c: 803: }
  4481                           ;Effect.c: 804: }
  4482                           ;Effect.c: 807: rotate_pattern[0] = 0x04;
  4483  0512  3004               	movlw	(04h)
  4484  0513  00F5               	movwf	(??_rotate_plane+0)+0
  4485  0514  0875               	movf	(??_rotate_plane+0)+0,w
  4486  0515  1683               	bsf	status, 5	;RP0=1, select bank1
  4487  0516  1303               	bcf	status, 6	;RP1=0, select bank1
  4488  0517  00DE               	movwf	(rotate_plane@rotate_pattern)^080h
  4489                           	line	808
  4490                           ;Effect.c: 808: rotate_pattern[1] = 0x04;
  4491  0518  3004               	movlw	(04h)
  4492  0519  00F5               	movwf	(??_rotate_plane+0)+0
  4493  051A  0875               	movf	(??_rotate_plane+0)+0,w
  4494  051B  00DF               	movwf	0+(rotate_plane@rotate_pattern)^080h+01h
  4495                           	line	809
  4496                           ;Effect.c: 809: rotate_pattern[2] = 0x08;
  4497  051C  3008               	movlw	(08h)
  4498  051D  00F5               	movwf	(??_rotate_plane+0)+0
  4499  051E  0875               	movf	(??_rotate_plane+0)+0,w
  4500  051F  00E0               	movwf	0+(rotate_plane@rotate_pattern)^080h+02h
  4501                           	line	810
  4502                           ;Effect.c: 810: rotate_pattern[3] = 0x08;
  4503  0520  3008               	movlw	(08h)
  4504  0521  00F5               	movwf	(??_rotate_plane+0)+0
  4505  0522  0875               	movf	(??_rotate_plane+0)+0,w
  4506  0523  00E1               	movwf	0+(rotate_plane@rotate_pattern)^080h+03h
  4507                           	line	811
  4508                           ;Effect.c: 811: rotate_pattern[4] = 0x10;
  4509  0524  3010               	movlw	(010h)
  4510  0525  00F5               	movwf	(??_rotate_plane+0)+0
  4511  0526  0875               	movf	(??_rotate_plane+0)+0,w
  4512  0527  00E2               	movwf	0+(rotate_plane@rotate_pattern)^080h+04h
  4513                           	line	812
  4514                           ;Effect.c: 812: rotate_pattern[5] = 0x10;
  4515  0528  3010               	movlw	(010h)
  4516  0529  00F5               	movwf	(??_rotate_plane+0)+0
  4517  052A  0875               	movf	(??_rotate_plane+0)+0,w
  4518  052B  00E3               	movwf	0+(rotate_plane@rotate_pattern)^080h+05h
  4519                           	line	813
  4520                           ;Effect.c: 813: rotate_pattern[6] = 0x20;
  4521  052C  3020               	movlw	(020h)
  4522  052D  00F5               	movwf	(??_rotate_plane+0)+0
  4523  052E  0875               	movf	(??_rotate_plane+0)+0,w
  4524  052F  00E4               	movwf	0+(rotate_plane@rotate_pattern)^080h+06h
  4525                           	line	814
  4526                           ;Effect.c: 814: rotate_pattern[7] = 0x20;
  4527  0530  3020               	movlw	(020h)
  4528  0531  00F5               	movwf	(??_rotate_plane+0)+0
  4529  0532  0875               	movf	(??_rotate_plane+0)+0,w
  4530  0533  00E5               	movwf	0+(rotate_plane@rotate_pattern)^080h+07h
  4531                           	line	815
  4532                           	
  4533  0534                     l6712:	
  4534                           ;Effect.c: 815: for(int i = 0; i<time; i++)
  4535  0534  01B2               	clrf	(rotate_plane@i_3080)^080h
  4536  0535  01B3               	clrf	(rotate_plane@i_3080+1)^080h
  4537  0536  2D80               	goto	l2403
  4538                           	line	816
  4539                           	
  4540  0537                     l2404:	
  4541                           	line	817
  4542                           	
  4543  0537                     l6714:	
  4544                           ;Effect.c: 816: {
  4545                           ;Effect.c: 817: _delay((unsigned long)((1)*(20000000/4000.0)));
  4546                           	opt asmopt_off
  4547  0537  3007               movlw	7
  4548  0538  00F6               movwf	((??_rotate_plane+0)+0+1),f
  4549  0539  307D               	movlw	125
  4550  053A  00F5               movwf	((??_rotate_plane+0)+0),f
  4551  053B                     u5387:
  4552  053B  0BF5               	decfsz	((??_rotate_plane+0)+0),f
  4553  053C  2D3B               	goto	u5387
  4554  053D  0BF6               	decfsz	((??_rotate_plane+0)+0+1),f
  4555  053E  2D3B               	goto	u5387
  4556                           opt asmopt_on
  4557                           
  4558                           	line	818
  4559                           	
  4560  053F                     l6716:	
  4561                           ;Effect.c: 818: for(int j = 0; j<8; j++)
  4562  053F  1683               	bsf	status, 5	;RP0=1, select bank1
  4563  0540  1303               	bcf	status, 6	;RP1=0, select bank1
  4564  0541  01D0               	clrf	(rotate_plane@j_3081)^080h
  4565  0542  01D1               	clrf	(rotate_plane@j_3081+1)^080h
  4566                           	
  4567  0543                     l6718:	
  4568  0543  0851               	movf	(rotate_plane@j_3081+1)^080h,w
  4569  0544  3A80               	xorlw	80h
  4570  0545  00FF               	movwf	btemp+1
  4571  0546  3080               	movlw	(high(08h))^80h
  4572  0547  027F               	subwf	btemp+1,w
  4573  0548  1D03               	skipz
  4574  0549  2D4C               	goto	u4935
  4575  054A  3008               	movlw	low(08h)
  4576  054B  0250               	subwf	(rotate_plane@j_3081)^080h,w
  4577  054C                     u4935:
  4578                           
  4579  054C  1C03               	skipc
  4580  054D  2D4F               	goto	u4931
  4581  054E  2D50               	goto	u4930
  4582  054F                     u4931:
  4583  054F  2D52               	goto	l6722
  4584  0550                     u4930:
  4585  0550  2D78               	goto	l6728
  4586                           	
  4587  0551                     l6720:	
  4588  0551  2D78               	goto	l6728
  4589                           	line	819
  4590                           	
  4591  0552                     l2405:	
  4592                           	line	820
  4593                           	
  4594  0552                     l6722:	
  4595                           ;Effect.c: 819: {
  4596                           ;Effect.c: 820: show_pattern_on_a_plane(j,3,rotate_pattern);
  4597  0552  3003               	movlw	(03h)
  4598  0553  00F5               	movwf	(??_rotate_plane+0)+0
  4599  0554  0875               	movf	(??_rotate_plane+0)+0,w
  4600  0555  00F0               	movwf	(?_show_pattern_on_a_plane)
  4601  0556  30DE               	movlw	(rotate_plane@rotate_pattern)&0ffh
  4602  0557  00F6               	movwf	(??_rotate_plane+1)+0
  4603  0558  0876               	movf	(??_rotate_plane+1)+0,w
  4604  0559  00F1               	movwf	0+(?_show_pattern_on_a_plane)+01h
  4605  055A  1683               	bsf	status, 5	;RP0=1, select bank1
  4606  055B  1303               	bcf	status, 6	;RP1=0, select bank1
  4607  055C  0850               	movf	(rotate_plane@j_3081)^080h,w
  4608  055D  160A  118A  2451   	fcall	_show_pattern_on_a_plane
              120A  118A         
  4609                           	line	818
  4610                           	
  4611  0562                     l6724:	
  4612  0562  3001               	movlw	low(01h)
  4613  0563  1683               	bsf	status, 5	;RP0=1, select bank1
  4614  0564  1303               	bcf	status, 6	;RP1=0, select bank1
  4615  0565  07D0               	addwf	(rotate_plane@j_3081)^080h,f
  4616  0566  1803               	skipnc
  4617  0567  0AD1               	incf	(rotate_plane@j_3081+1)^080h,f
  4618  0568  3000               	movlw	high(01h)
  4619  0569  07D1               	addwf	(rotate_plane@j_3081+1)^080h,f
  4620                           	
  4621  056A                     l6726:	
  4622  056A  0851               	movf	(rotate_plane@j_3081+1)^080h,w
  4623  056B  3A80               	xorlw	80h
  4624  056C  00FF               	movwf	btemp+1
  4625  056D  3080               	movlw	(high(08h))^80h
  4626  056E  027F               	subwf	btemp+1,w
  4627  056F  1D03               	skipz
  4628  0570  2D73               	goto	u4945
  4629  0571  3008               	movlw	low(08h)
  4630  0572  0250               	subwf	(rotate_plane@j_3081)^080h,w
  4631  0573                     u4945:
  4632                           
  4633  0573  1C03               	skipc
  4634  0574  2D76               	goto	u4941
  4635  0575  2D77               	goto	u4940
  4636  0576                     u4941:
  4637  0576  2D52               	goto	l6722
  4638  0577                     u4940:
  4639  0577  2D78               	goto	l6728
  4640                           	
  4641  0578                     l2406:	
  4642                           	line	815
  4643                           	
  4644  0578                     l6728:	
  4645  0578  3001               	movlw	low(01h)
  4646  0579  1683               	bsf	status, 5	;RP0=1, select bank1
  4647  057A  1303               	bcf	status, 6	;RP1=0, select bank1
  4648  057B  07B2               	addwf	(rotate_plane@i_3080)^080h,f
  4649  057C  1803               	skipnc
  4650  057D  0AB3               	incf	(rotate_plane@i_3080+1)^080h,f
  4651  057E  3000               	movlw	high(01h)
  4652  057F  07B3               	addwf	(rotate_plane@i_3080+1)^080h,f
  4653                           	
  4654  0580                     l2403:	
  4655  0580  0833               	movf	(rotate_plane@i_3080+1)^080h,w
  4656  0581  3A80               	xorlw	80h
  4657  0582  00F5               	movwf	(??_rotate_plane+0)+0
  4658  0583  085D               	movf	(rotate_plane@time+1)^080h,w
  4659  0584  3A80               	xorlw	80h
  4660  0585  0275               	subwf	(??_rotate_plane+0)+0,w
  4661  0586  1D03               	skipz
  4662  0587  2D8A               	goto	u4955
  4663  0588  085C               	movf	(rotate_plane@time)^080h,w
  4664  0589  0232               	subwf	(rotate_plane@i_3080)^080h,w
  4665  058A                     u4955:
  4666                           
  4667  058A  1C03               	skipc
  4668  058B  2D8D               	goto	u4951
  4669  058C  2D8E               	goto	u4950
  4670  058D                     u4951:
  4671  058D  2D37               	goto	l6714
  4672  058E                     u4950:
  4673  058E  2D8F               	goto	l6730
  4674                           	
  4675  058F                     l2407:	
  4676                           	line	825
  4677                           	
  4678  058F                     l6730:	
  4679                           ;Effect.c: 821: }
  4680                           ;Effect.c: 822: }
  4681                           ;Effect.c: 825: rotate_pattern[0] = 0x08;
  4682  058F  3008               	movlw	(08h)
  4683  0590  00F5               	movwf	(??_rotate_plane+0)+0
  4684  0591  0875               	movf	(??_rotate_plane+0)+0,w
  4685  0592  1683               	bsf	status, 5	;RP0=1, select bank1
  4686  0593  1303               	bcf	status, 6	;RP1=0, select bank1
  4687  0594  00DE               	movwf	(rotate_plane@rotate_pattern)^080h
  4688                           	line	826
  4689                           ;Effect.c: 826: rotate_pattern[1] = 0x08;
  4690  0595  3008               	movlw	(08h)
  4691  0596  00F5               	movwf	(??_rotate_plane+0)+0
  4692  0597  0875               	movf	(??_rotate_plane+0)+0,w
  4693  0598  00DF               	movwf	0+(rotate_plane@rotate_pattern)^080h+01h
  4694                           	line	827
  4695                           ;Effect.c: 827: rotate_pattern[2] = 0x08;
  4696  0599  3008               	movlw	(08h)
  4697  059A  00F5               	movwf	(??_rotate_plane+0)+0
  4698  059B  0875               	movf	(??_rotate_plane+0)+0,w
  4699  059C  00E0               	movwf	0+(rotate_plane@rotate_pattern)^080h+02h
  4700                           	line	828
  4701                           ;Effect.c: 828: rotate_pattern[3] = 0x08;
  4702  059D  3008               	movlw	(08h)
  4703  059E  00F5               	movwf	(??_rotate_plane+0)+0
  4704  059F  0875               	movf	(??_rotate_plane+0)+0,w
  4705  05A0  00E1               	movwf	0+(rotate_plane@rotate_pattern)^080h+03h
  4706                           	line	829
  4707                           ;Effect.c: 829: rotate_pattern[4] = 0x10;
  4708  05A1  3010               	movlw	(010h)
  4709  05A2  00F5               	movwf	(??_rotate_plane+0)+0
  4710  05A3  0875               	movf	(??_rotate_plane+0)+0,w
  4711  05A4  00E2               	movwf	0+(rotate_plane@rotate_pattern)^080h+04h
  4712                           	line	830
  4713                           ;Effect.c: 830: rotate_pattern[5] = 0x10;
  4714  05A5  3010               	movlw	(010h)
  4715  05A6  00F5               	movwf	(??_rotate_plane+0)+0
  4716  05A7  0875               	movf	(??_rotate_plane+0)+0,w
  4717  05A8  00E3               	movwf	0+(rotate_plane@rotate_pattern)^080h+05h
  4718                           	line	831
  4719                           ;Effect.c: 831: rotate_pattern[6] = 0x10;
  4720  05A9  3010               	movlw	(010h)
  4721  05AA  00F5               	movwf	(??_rotate_plane+0)+0
  4722  05AB  0875               	movf	(??_rotate_plane+0)+0,w
  4723  05AC  00E4               	movwf	0+(rotate_plane@rotate_pattern)^080h+06h
  4724                           	line	832
  4725                           ;Effect.c: 832: rotate_pattern[7] = 0x10;
  4726  05AD  3010               	movlw	(010h)
  4727  05AE  00F5               	movwf	(??_rotate_plane+0)+0
  4728  05AF  0875               	movf	(??_rotate_plane+0)+0,w
  4729  05B0  00E5               	movwf	0+(rotate_plane@rotate_pattern)^080h+07h
  4730                           	line	833
  4731                           	
  4732  05B1                     l6732:	
  4733                           ;Effect.c: 833: for(int i = 0; i<time; i++)
  4734  05B1  01B4               	clrf	(rotate_plane@i_3082)^080h
  4735  05B2  01B5               	clrf	(rotate_plane@i_3082+1)^080h
  4736  05B3  2DFD               	goto	l2408
  4737                           	line	834
  4738                           	
  4739  05B4                     l2409:	
  4740                           	line	835
  4741                           	
  4742  05B4                     l6734:	
  4743                           ;Effect.c: 834: {
  4744                           ;Effect.c: 835: _delay((unsigned long)((1)*(20000000/4000.0)));
  4745                           	opt asmopt_off
  4746  05B4  3007               movlw	7
  4747  05B5  00F6               movwf	((??_rotate_plane+0)+0+1),f
  4748  05B6  307D               	movlw	125
  4749  05B7  00F5               movwf	((??_rotate_plane+0)+0),f
  4750  05B8                     u5397:
  4751  05B8  0BF5               	decfsz	((??_rotate_plane+0)+0),f
  4752  05B9  2DB8               	goto	u5397
  4753  05BA  0BF6               	decfsz	((??_rotate_plane+0)+0+1),f
  4754  05BB  2DB8               	goto	u5397
  4755                           opt asmopt_on
  4756                           
  4757                           	line	836
  4758                           	
  4759  05BC                     l6736:	
  4760                           ;Effect.c: 836: for(int j = 0; j<8; j++)
  4761  05BC  1683               	bsf	status, 5	;RP0=1, select bank1
  4762  05BD  1303               	bcf	status, 6	;RP1=0, select bank1
  4763  05BE  01D2               	clrf	(rotate_plane@j_3083)^080h
  4764  05BF  01D3               	clrf	(rotate_plane@j_3083+1)^080h
  4765                           	
  4766  05C0                     l6738:	
  4767  05C0  0853               	movf	(rotate_plane@j_3083+1)^080h,w
  4768  05C1  3A80               	xorlw	80h
  4769  05C2  00FF               	movwf	btemp+1
  4770  05C3  3080               	movlw	(high(08h))^80h
  4771  05C4  027F               	subwf	btemp+1,w
  4772  05C5  1D03               	skipz
  4773  05C6  2DC9               	goto	u4965
  4774  05C7  3008               	movlw	low(08h)
  4775  05C8  0252               	subwf	(rotate_plane@j_3083)^080h,w
  4776  05C9                     u4965:
  4777                           
  4778  05C9  1C03               	skipc
  4779  05CA  2DCC               	goto	u4961
  4780  05CB  2DCD               	goto	u4960
  4781  05CC                     u4961:
  4782  05CC  2DCF               	goto	l6742
  4783  05CD                     u4960:
  4784  05CD  2DF5               	goto	l6748
  4785                           	
  4786  05CE                     l6740:	
  4787  05CE  2DF5               	goto	l6748
  4788                           	line	837
  4789                           	
  4790  05CF                     l2410:	
  4791                           	line	838
  4792                           	
  4793  05CF                     l6742:	
  4794                           ;Effect.c: 837: {
  4795                           ;Effect.c: 838: show_pattern_on_a_plane(j,3,rotate_pattern);
  4796  05CF  3003               	movlw	(03h)
  4797  05D0  00F5               	movwf	(??_rotate_plane+0)+0
  4798  05D1  0875               	movf	(??_rotate_plane+0)+0,w
  4799  05D2  00F0               	movwf	(?_show_pattern_on_a_plane)
  4800  05D3  30DE               	movlw	(rotate_plane@rotate_pattern)&0ffh
  4801  05D4  00F6               	movwf	(??_rotate_plane+1)+0
  4802  05D5  0876               	movf	(??_rotate_plane+1)+0,w
  4803  05D6  00F1               	movwf	0+(?_show_pattern_on_a_plane)+01h
  4804  05D7  1683               	bsf	status, 5	;RP0=1, select bank1
  4805  05D8  1303               	bcf	status, 6	;RP1=0, select bank1
  4806  05D9  0852               	movf	(rotate_plane@j_3083)^080h,w
  4807  05DA  160A  118A  2451   	fcall	_show_pattern_on_a_plane
              120A  118A         
  4808                           	line	836
  4809                           	
  4810  05DF                     l6744:	
  4811  05DF  3001               	movlw	low(01h)
  4812  05E0  1683               	bsf	status, 5	;RP0=1, select bank1
  4813  05E1  1303               	bcf	status, 6	;RP1=0, select bank1
  4814  05E2  07D2               	addwf	(rotate_plane@j_3083)^080h,f
  4815  05E3  1803               	skipnc
  4816  05E4  0AD3               	incf	(rotate_plane@j_3083+1)^080h,f
  4817  05E5  3000               	movlw	high(01h)
  4818  05E6  07D3               	addwf	(rotate_plane@j_3083+1)^080h,f
  4819                           	
  4820  05E7                     l6746:	
  4821  05E7  0853               	movf	(rotate_plane@j_3083+1)^080h,w
  4822  05E8  3A80               	xorlw	80h
  4823  05E9  00FF               	movwf	btemp+1
  4824  05EA  3080               	movlw	(high(08h))^80h
  4825  05EB  027F               	subwf	btemp+1,w
  4826  05EC  1D03               	skipz
  4827  05ED  2DF0               	goto	u4975
  4828  05EE  3008               	movlw	low(08h)
  4829  05EF  0252               	subwf	(rotate_plane@j_3083)^080h,w
  4830  05F0                     u4975:
  4831                           
  4832  05F0  1C03               	skipc
  4833  05F1  2DF3               	goto	u4971
  4834  05F2  2DF4               	goto	u4970
  4835  05F3                     u4971:
  4836  05F3  2DCF               	goto	l6742
  4837  05F4                     u4970:
  4838  05F4  2DF5               	goto	l6748
  4839                           	
  4840  05F5                     l2411:	
  4841                           	line	833
  4842                           	
  4843  05F5                     l6748:	
  4844  05F5  3001               	movlw	low(01h)
  4845  05F6  1683               	bsf	status, 5	;RP0=1, select bank1
  4846  05F7  1303               	bcf	status, 6	;RP1=0, select bank1
  4847  05F8  07B4               	addwf	(rotate_plane@i_3082)^080h,f
  4848  05F9  1803               	skipnc
  4849  05FA  0AB5               	incf	(rotate_plane@i_3082+1)^080h,f
  4850  05FB  3000               	movlw	high(01h)
  4851  05FC  07B5               	addwf	(rotate_plane@i_3082+1)^080h,f
  4852                           	
  4853  05FD                     l2408:	
  4854  05FD  0835               	movf	(rotate_plane@i_3082+1)^080h,w
  4855  05FE  3A80               	xorlw	80h
  4856  05FF  00F5               	movwf	(??_rotate_plane+0)+0
  4857  0600  085D               	movf	(rotate_plane@time+1)^080h,w
  4858  0601  3A80               	xorlw	80h
  4859  0602  0275               	subwf	(??_rotate_plane+0)+0,w
  4860  0603  1D03               	skipz
  4861  0604  2E07               	goto	u4985
  4862  0605  085C               	movf	(rotate_plane@time)^080h,w
  4863  0606  0234               	subwf	(rotate_plane@i_3082)^080h,w
  4864  0607                     u4985:
  4865                           
  4866  0607  1C03               	skipc
  4867  0608  2E0A               	goto	u4981
  4868  0609  2E0B               	goto	u4980
  4869  060A                     u4981:
  4870  060A  2DB4               	goto	l6734
  4871  060B                     u4980:
  4872  060B  2E0C               	goto	l6750
  4873                           	
  4874  060C                     l2412:	
  4875                           	line	843
  4876                           	
  4877  060C                     l6750:	
  4878                           ;Effect.c: 839: }
  4879                           ;Effect.c: 840: }
  4880                           ;Effect.c: 843: rotate_pattern[0] = 0x10;
  4881  060C  3010               	movlw	(010h)
  4882  060D  00F5               	movwf	(??_rotate_plane+0)+0
  4883  060E  0875               	movf	(??_rotate_plane+0)+0,w
  4884  060F  1683               	bsf	status, 5	;RP0=1, select bank1
  4885  0610  1303               	bcf	status, 6	;RP1=0, select bank1
  4886  0611  00DE               	movwf	(rotate_plane@rotate_pattern)^080h
  4887                           	line	844
  4888                           ;Effect.c: 844: rotate_pattern[1] = 0x10;
  4889  0612  3010               	movlw	(010h)
  4890  0613  00F5               	movwf	(??_rotate_plane+0)+0
  4891  0614  0875               	movf	(??_rotate_plane+0)+0,w
  4892  0615  00DF               	movwf	0+(rotate_plane@rotate_pattern)^080h+01h
  4893                           	line	845
  4894                           ;Effect.c: 845: rotate_pattern[2] = 0x10;
  4895  0616  3010               	movlw	(010h)
  4896  0617  00F5               	movwf	(??_rotate_plane+0)+0
  4897  0618  0875               	movf	(??_rotate_plane+0)+0,w
  4898  0619  00E0               	movwf	0+(rotate_plane@rotate_pattern)^080h+02h
  4899                           	line	846
  4900                           ;Effect.c: 846: rotate_pattern[3] = 0x10;
  4901  061A  3010               	movlw	(010h)
  4902  061B  00F5               	movwf	(??_rotate_plane+0)+0
  4903  061C  0875               	movf	(??_rotate_plane+0)+0,w
  4904  061D  00E1               	movwf	0+(rotate_plane@rotate_pattern)^080h+03h
  4905                           	line	847
  4906                           ;Effect.c: 847: rotate_pattern[4] = 0x08;
  4907  061E  3008               	movlw	(08h)
  4908  061F  00F5               	movwf	(??_rotate_plane+0)+0
  4909  0620  0875               	movf	(??_rotate_plane+0)+0,w
  4910  0621  00E2               	movwf	0+(rotate_plane@rotate_pattern)^080h+04h
  4911                           	line	848
  4912                           ;Effect.c: 848: rotate_pattern[5] = 0x08;
  4913  0622  3008               	movlw	(08h)
  4914  0623  00F5               	movwf	(??_rotate_plane+0)+0
  4915  0624  0875               	movf	(??_rotate_plane+0)+0,w
  4916  0625  00E3               	movwf	0+(rotate_plane@rotate_pattern)^080h+05h
  4917                           	line	849
  4918                           ;Effect.c: 849: rotate_pattern[6] = 0x08;
  4919  0626  3008               	movlw	(08h)
  4920  0627  00F5               	movwf	(??_rotate_plane+0)+0
  4921  0628  0875               	movf	(??_rotate_plane+0)+0,w
  4922  0629  00E4               	movwf	0+(rotate_plane@rotate_pattern)^080h+06h
  4923                           	line	850
  4924                           ;Effect.c: 850: rotate_pattern[7] = 0x08;
  4925  062A  3008               	movlw	(08h)
  4926  062B  00F5               	movwf	(??_rotate_plane+0)+0
  4927  062C  0875               	movf	(??_rotate_plane+0)+0,w
  4928  062D  00E5               	movwf	0+(rotate_plane@rotate_pattern)^080h+07h
  4929                           	line	851
  4930                           	
  4931  062E                     l6752:	
  4932                           ;Effect.c: 851: for(int i = 0; i<time; i++)
  4933  062E  01B6               	clrf	(rotate_plane@i_3084)^080h
  4934  062F  01B7               	clrf	(rotate_plane@i_3084+1)^080h
  4935  0630  2E7A               	goto	l2413
  4936                           	line	852
  4937                           	
  4938  0631                     l2414:	
  4939                           	line	853
  4940                           	
  4941  0631                     l6754:	
  4942                           ;Effect.c: 852: {
  4943                           ;Effect.c: 853: _delay((unsigned long)((1)*(20000000/4000.0)));
  4944                           	opt asmopt_off
  4945  0631  3007               movlw	7
  4946  0632  00F6               movwf	((??_rotate_plane+0)+0+1),f
  4947  0633  307D               	movlw	125
  4948  0634  00F5               movwf	((??_rotate_plane+0)+0),f
  4949  0635                     u5407:
  4950  0635  0BF5               	decfsz	((??_rotate_plane+0)+0),f
  4951  0636  2E35               	goto	u5407
  4952  0637  0BF6               	decfsz	((??_rotate_plane+0)+0+1),f
  4953  0638  2E35               	goto	u5407
  4954                           opt asmopt_on
  4955                           
  4956                           	line	854
  4957                           	
  4958  0639                     l6756:	
  4959                           ;Effect.c: 854: for(int j = 0; j<8; j++)
  4960  0639  1683               	bsf	status, 5	;RP0=1, select bank1
  4961  063A  1303               	bcf	status, 6	;RP1=0, select bank1
  4962  063B  01D4               	clrf	(rotate_plane@j_3085)^080h
  4963  063C  01D5               	clrf	(rotate_plane@j_3085+1)^080h
  4964                           	
  4965  063D                     l6758:	
  4966  063D  0855               	movf	(rotate_plane@j_3085+1)^080h,w
  4967  063E  3A80               	xorlw	80h
  4968  063F  00FF               	movwf	btemp+1
  4969  0640  3080               	movlw	(high(08h))^80h
  4970  0641  027F               	subwf	btemp+1,w
  4971  0642  1D03               	skipz
  4972  0643  2E46               	goto	u4995
  4973  0644  3008               	movlw	low(08h)
  4974  0645  0254               	subwf	(rotate_plane@j_3085)^080h,w
  4975  0646                     u4995:
  4976                           
  4977  0646  1C03               	skipc
  4978  0647  2E49               	goto	u4991
  4979  0648  2E4A               	goto	u4990
  4980  0649                     u4991:
  4981  0649  2E4C               	goto	l6762
  4982  064A                     u4990:
  4983  064A  2E72               	goto	l6768
  4984                           	
  4985  064B                     l6760:	
  4986  064B  2E72               	goto	l6768
  4987                           	line	855
  4988                           	
  4989  064C                     l2415:	
  4990                           	line	856
  4991                           	
  4992  064C                     l6762:	
  4993                           ;Effect.c: 855: {
  4994                           ;Effect.c: 856: show_pattern_on_a_plane(j,3,rotate_pattern);
  4995  064C  3003               	movlw	(03h)
  4996  064D  00F5               	movwf	(??_rotate_plane+0)+0
  4997  064E  0875               	movf	(??_rotate_plane+0)+0,w
  4998  064F  00F0               	movwf	(?_show_pattern_on_a_plane)
  4999  0650  30DE               	movlw	(rotate_plane@rotate_pattern)&0ffh
  5000  0651  00F6               	movwf	(??_rotate_plane+1)+0
  5001  0652  0876               	movf	(??_rotate_plane+1)+0,w
  5002  0653  00F1               	movwf	0+(?_show_pattern_on_a_plane)+01h
  5003  0654  1683               	bsf	status, 5	;RP0=1, select bank1
  5004  0655  1303               	bcf	status, 6	;RP1=0, select bank1
  5005  0656  0854               	movf	(rotate_plane@j_3085)^080h,w
  5006  0657  160A  118A  2451   	fcall	_show_pattern_on_a_plane
              120A  118A         
  5007                           	line	854
  5008                           	
  5009  065C                     l6764:	
  5010  065C  3001               	movlw	low(01h)
  5011  065D  1683               	bsf	status, 5	;RP0=1, select bank1
  5012  065E  1303               	bcf	status, 6	;RP1=0, select bank1
  5013  065F  07D4               	addwf	(rotate_plane@j_3085)^080h,f
  5014  0660  1803               	skipnc
  5015  0661  0AD5               	incf	(rotate_plane@j_3085+1)^080h,f
  5016  0662  3000               	movlw	high(01h)
  5017  0663  07D5               	addwf	(rotate_plane@j_3085+1)^080h,f
  5018                           	
  5019  0664                     l6766:	
  5020  0664  0855               	movf	(rotate_plane@j_3085+1)^080h,w
  5021  0665  3A80               	xorlw	80h
  5022  0666  00FF               	movwf	btemp+1
  5023  0667  3080               	movlw	(high(08h))^80h
  5024  0668  027F               	subwf	btemp+1,w
  5025  0669  1D03               	skipz
  5026  066A  2E6D               	goto	u5005
  5027  066B  3008               	movlw	low(08h)
  5028  066C  0254               	subwf	(rotate_plane@j_3085)^080h,w
  5029  066D                     u5005:
  5030                           
  5031  066D  1C03               	skipc
  5032  066E  2E70               	goto	u5001
  5033  066F  2E71               	goto	u5000
  5034  0670                     u5001:
  5035  0670  2E4C               	goto	l6762
  5036  0671                     u5000:
  5037  0671  2E72               	goto	l6768
  5038                           	
  5039  0672                     l2416:	
  5040                           	line	851
  5041                           	
  5042  0672                     l6768:	
  5043  0672  3001               	movlw	low(01h)
  5044  0673  1683               	bsf	status, 5	;RP0=1, select bank1
  5045  0674  1303               	bcf	status, 6	;RP1=0, select bank1
  5046  0675  07B6               	addwf	(rotate_plane@i_3084)^080h,f
  5047  0676  1803               	skipnc
  5048  0677  0AB7               	incf	(rotate_plane@i_3084+1)^080h,f
  5049  0678  3000               	movlw	high(01h)
  5050  0679  07B7               	addwf	(rotate_plane@i_3084+1)^080h,f
  5051                           	
  5052  067A                     l2413:	
  5053  067A  0837               	movf	(rotate_plane@i_3084+1)^080h,w
  5054  067B  3A80               	xorlw	80h
  5055  067C  00F5               	movwf	(??_rotate_plane+0)+0
  5056  067D  085D               	movf	(rotate_plane@time+1)^080h,w
  5057  067E  3A80               	xorlw	80h
  5058  067F  0275               	subwf	(??_rotate_plane+0)+0,w
  5059  0680  1D03               	skipz
  5060  0681  2E84               	goto	u5015
  5061  0682  085C               	movf	(rotate_plane@time)^080h,w
  5062  0683  0236               	subwf	(rotate_plane@i_3084)^080h,w
  5063  0684                     u5015:
  5064                           
  5065  0684  1C03               	skipc
  5066  0685  2E87               	goto	u5011
  5067  0686  2E88               	goto	u5010
  5068  0687                     u5011:
  5069  0687  2E31               	goto	l6754
  5070  0688                     u5010:
  5071  0688  2E89               	goto	l6770
  5072                           	
  5073  0689                     l2417:	
  5074                           	line	861
  5075                           	
  5076  0689                     l6770:	
  5077                           ;Effect.c: 857: }
  5078                           ;Effect.c: 858: }
  5079                           ;Effect.c: 861: rotate_pattern[0] = 0x20;
  5080  0689  3020               	movlw	(020h)
  5081  068A  00F5               	movwf	(??_rotate_plane+0)+0
  5082  068B  0875               	movf	(??_rotate_plane+0)+0,w
  5083  068C  1683               	bsf	status, 5	;RP0=1, select bank1
  5084  068D  1303               	bcf	status, 6	;RP1=0, select bank1
  5085  068E  00DE               	movwf	(rotate_plane@rotate_pattern)^080h
  5086                           	line	862
  5087                           ;Effect.c: 862: rotate_pattern[1] = 0x20;
  5088  068F  3020               	movlw	(020h)
  5089  0690  00F5               	movwf	(??_rotate_plane+0)+0
  5090  0691  0875               	movf	(??_rotate_plane+0)+0,w
  5091  0692  00DF               	movwf	0+(rotate_plane@rotate_pattern)^080h+01h
  5092                           	line	863
  5093                           ;Effect.c: 863: rotate_pattern[2] = 0x10;
  5094  0693  3010               	movlw	(010h)
  5095  0694  00F5               	movwf	(??_rotate_plane+0)+0
  5096  0695  0875               	movf	(??_rotate_plane+0)+0,w
  5097  0696  00E0               	movwf	0+(rotate_plane@rotate_pattern)^080h+02h
  5098                           	line	864
  5099                           ;Effect.c: 864: rotate_pattern[3] = 0x10;
  5100  0697  3010               	movlw	(010h)
  5101  0698  00F5               	movwf	(??_rotate_plane+0)+0
  5102  0699  0875               	movf	(??_rotate_plane+0)+0,w
  5103  069A  00E1               	movwf	0+(rotate_plane@rotate_pattern)^080h+03h
  5104                           	line	865
  5105                           ;Effect.c: 865: rotate_pattern[4] = 0x08;
  5106  069B  3008               	movlw	(08h)
  5107  069C  00F5               	movwf	(??_rotate_plane+0)+0
  5108  069D  0875               	movf	(??_rotate_plane+0)+0,w
  5109  069E  00E2               	movwf	0+(rotate_plane@rotate_pattern)^080h+04h
  5110                           	line	866
  5111                           ;Effect.c: 866: rotate_pattern[5] = 0x08;
  5112  069F  3008               	movlw	(08h)
  5113  06A0  00F5               	movwf	(??_rotate_plane+0)+0
  5114  06A1  0875               	movf	(??_rotate_plane+0)+0,w
  5115  06A2  00E3               	movwf	0+(rotate_plane@rotate_pattern)^080h+05h
  5116                           	line	867
  5117                           ;Effect.c: 867: rotate_pattern[6] = 0x04;
  5118  06A3  3004               	movlw	(04h)
  5119  06A4  00F5               	movwf	(??_rotate_plane+0)+0
  5120  06A5  0875               	movf	(??_rotate_plane+0)+0,w
  5121  06A6  00E4               	movwf	0+(rotate_plane@rotate_pattern)^080h+06h
  5122                           	line	868
  5123                           ;Effect.c: 868: rotate_pattern[7] = 0x04;
  5124  06A7  3004               	movlw	(04h)
  5125  06A8  00F5               	movwf	(??_rotate_plane+0)+0
  5126  06A9  0875               	movf	(??_rotate_plane+0)+0,w
  5127  06AA  00E5               	movwf	0+(rotate_plane@rotate_pattern)^080h+07h
  5128                           	line	869
  5129                           	
  5130  06AB                     l6772:	
  5131                           ;Effect.c: 869: for(int i = 0; i<time; i++)
  5132  06AB  01B8               	clrf	(rotate_plane@i_3086)^080h
  5133  06AC  01B9               	clrf	(rotate_plane@i_3086+1)^080h
  5134  06AD  2EF7               	goto	l2418
  5135                           	line	870
  5136                           	
  5137  06AE                     l2419:	
  5138                           	line	871
  5139                           	
  5140  06AE                     l6774:	
  5141                           ;Effect.c: 870: {
  5142                           ;Effect.c: 871: _delay((unsigned long)((1)*(20000000/4000.0)));
  5143                           	opt asmopt_off
  5144  06AE  3007               movlw	7
  5145  06AF  00F6               movwf	((??_rotate_plane+0)+0+1),f
  5146  06B0  307D               	movlw	125
  5147  06B1  00F5               movwf	((??_rotate_plane+0)+0),f
  5148  06B2                     u5417:
  5149  06B2  0BF5               	decfsz	((??_rotate_plane+0)+0),f
  5150  06B3  2EB2               	goto	u5417
  5151  06B4  0BF6               	decfsz	((??_rotate_plane+0)+0+1),f
  5152  06B5  2EB2               	goto	u5417
  5153                           opt asmopt_on
  5154                           
  5155                           	line	872
  5156                           	
  5157  06B6                     l6776:	
  5158                           ;Effect.c: 872: for(int j = 0; j<8; j++)
  5159  06B6  1683               	bsf	status, 5	;RP0=1, select bank1
  5160  06B7  1303               	bcf	status, 6	;RP1=0, select bank1
  5161  06B8  01D6               	clrf	(rotate_plane@j_3087)^080h
  5162  06B9  01D7               	clrf	(rotate_plane@j_3087+1)^080h
  5163                           	
  5164  06BA                     l6778:	
  5165  06BA  0857               	movf	(rotate_plane@j_3087+1)^080h,w
  5166  06BB  3A80               	xorlw	80h
  5167  06BC  00FF               	movwf	btemp+1
  5168  06BD  3080               	movlw	(high(08h))^80h
  5169  06BE  027F               	subwf	btemp+1,w
  5170  06BF  1D03               	skipz
  5171  06C0  2EC3               	goto	u5025
  5172  06C1  3008               	movlw	low(08h)
  5173  06C2  0256               	subwf	(rotate_plane@j_3087)^080h,w
  5174  06C3                     u5025:
  5175                           
  5176  06C3  1C03               	skipc
  5177  06C4  2EC6               	goto	u5021
  5178  06C5  2EC7               	goto	u5020
  5179  06C6                     u5021:
  5180  06C6  2EC9               	goto	l6782
  5181  06C7                     u5020:
  5182  06C7  2EEF               	goto	l6788
  5183                           	
  5184  06C8                     l6780:	
  5185  06C8  2EEF               	goto	l6788
  5186                           	line	873
  5187                           	
  5188  06C9                     l2420:	
  5189                           	line	874
  5190                           	
  5191  06C9                     l6782:	
  5192                           ;Effect.c: 873: {
  5193                           ;Effect.c: 874: show_pattern_on_a_plane(j,3,rotate_pattern);
  5194  06C9  3003               	movlw	(03h)
  5195  06CA  00F5               	movwf	(??_rotate_plane+0)+0
  5196  06CB  0875               	movf	(??_rotate_plane+0)+0,w
  5197  06CC  00F0               	movwf	(?_show_pattern_on_a_plane)
  5198  06CD  30DE               	movlw	(rotate_plane@rotate_pattern)&0ffh
  5199  06CE  00F6               	movwf	(??_rotate_plane+1)+0
  5200  06CF  0876               	movf	(??_rotate_plane+1)+0,w
  5201  06D0  00F1               	movwf	0+(?_show_pattern_on_a_plane)+01h
  5202  06D1  1683               	bsf	status, 5	;RP0=1, select bank1
  5203  06D2  1303               	bcf	status, 6	;RP1=0, select bank1
  5204  06D3  0856               	movf	(rotate_plane@j_3087)^080h,w
  5205  06D4  160A  118A  2451   	fcall	_show_pattern_on_a_plane
              120A  118A         
  5206                           	line	872
  5207                           	
  5208  06D9                     l6784:	
  5209  06D9  3001               	movlw	low(01h)
  5210  06DA  1683               	bsf	status, 5	;RP0=1, select bank1
  5211  06DB  1303               	bcf	status, 6	;RP1=0, select bank1
  5212  06DC  07D6               	addwf	(rotate_plane@j_3087)^080h,f
  5213  06DD  1803               	skipnc
  5214  06DE  0AD7               	incf	(rotate_plane@j_3087+1)^080h,f
  5215  06DF  3000               	movlw	high(01h)
  5216  06E0  07D7               	addwf	(rotate_plane@j_3087+1)^080h,f
  5217                           	
  5218  06E1                     l6786:	
  5219  06E1  0857               	movf	(rotate_plane@j_3087+1)^080h,w
  5220  06E2  3A80               	xorlw	80h
  5221  06E3  00FF               	movwf	btemp+1
  5222  06E4  3080               	movlw	(high(08h))^80h
  5223  06E5  027F               	subwf	btemp+1,w
  5224  06E6  1D03               	skipz
  5225  06E7  2EEA               	goto	u5035
  5226  06E8  3008               	movlw	low(08h)
  5227  06E9  0256               	subwf	(rotate_plane@j_3087)^080h,w
  5228  06EA                     u5035:
  5229                           
  5230  06EA  1C03               	skipc
  5231  06EB  2EED               	goto	u5031
  5232  06EC  2EEE               	goto	u5030
  5233  06ED                     u5031:
  5234  06ED  2EC9               	goto	l6782
  5235  06EE                     u5030:
  5236  06EE  2EEF               	goto	l6788
  5237                           	
  5238  06EF                     l2421:	
  5239                           	line	869
  5240                           	
  5241  06EF                     l6788:	
  5242  06EF  3001               	movlw	low(01h)
  5243  06F0  1683               	bsf	status, 5	;RP0=1, select bank1
  5244  06F1  1303               	bcf	status, 6	;RP1=0, select bank1
  5245  06F2  07B8               	addwf	(rotate_plane@i_3086)^080h,f
  5246  06F3  1803               	skipnc
  5247  06F4  0AB9               	incf	(rotate_plane@i_3086+1)^080h,f
  5248  06F5  3000               	movlw	high(01h)
  5249  06F6  07B9               	addwf	(rotate_plane@i_3086+1)^080h,f
  5250                           	
  5251  06F7                     l2418:	
  5252  06F7  0839               	movf	(rotate_plane@i_3086+1)^080h,w
  5253  06F8  3A80               	xorlw	80h
  5254  06F9  00F5               	movwf	(??_rotate_plane+0)+0
  5255  06FA  085D               	movf	(rotate_plane@time+1)^080h,w
  5256  06FB  3A80               	xorlw	80h
  5257  06FC  0275               	subwf	(??_rotate_plane+0)+0,w
  5258  06FD  1D03               	skipz
  5259  06FE  2F01               	goto	u5045
  5260  06FF  085C               	movf	(rotate_plane@time)^080h,w
  5261  0700  0238               	subwf	(rotate_plane@i_3086)^080h,w
  5262  0701                     u5045:
  5263                           
  5264  0701  1C03               	skipc
  5265  0702  2F04               	goto	u5041
  5266  0703  2F05               	goto	u5040
  5267  0704                     u5041:
  5268  0704  2EAE               	goto	l6774
  5269  0705                     u5040:
  5270  0705  2F06               	goto	l6790
  5271                           	
  5272  0706                     l2422:	
  5273                           	line	879
  5274                           	
  5275  0706                     l6790:	
  5276                           ;Effect.c: 875: }
  5277                           ;Effect.c: 876: }
  5278                           ;Effect.c: 879: rotate_pattern[0] = 0x40;
  5279  0706  3040               	movlw	(040h)
  5280  0707  00F5               	movwf	(??_rotate_plane+0)+0
  5281  0708  0875               	movf	(??_rotate_plane+0)+0,w
  5282  0709  1683               	bsf	status, 5	;RP0=1, select bank1
  5283  070A  1303               	bcf	status, 6	;RP1=0, select bank1
  5284  070B  00DE               	movwf	(rotate_plane@rotate_pattern)^080h
  5285                           	line	880
  5286                           ;Effect.c: 880: rotate_pattern[1] = 0x20;
  5287  070C  3020               	movlw	(020h)
  5288  070D  00F5               	movwf	(??_rotate_plane+0)+0
  5289  070E  0875               	movf	(??_rotate_plane+0)+0,w
  5290  070F  00DF               	movwf	0+(rotate_plane@rotate_pattern)^080h+01h
  5291                           	line	881
  5292                           ;Effect.c: 881: rotate_pattern[2] = 0x10;
  5293  0710  3010               	movlw	(010h)
  5294  0711  00F5               	movwf	(??_rotate_plane+0)+0
  5295  0712  0875               	movf	(??_rotate_plane+0)+0,w
  5296  0713  00E0               	movwf	0+(rotate_plane@rotate_pattern)^080h+02h
  5297                           	line	882
  5298                           ;Effect.c: 882: rotate_pattern[3] = 0x10;
  5299  0714  3010               	movlw	(010h)
  5300  0715  00F5               	movwf	(??_rotate_plane+0)+0
  5301  0716  0875               	movf	(??_rotate_plane+0)+0,w
  5302  0717  00E1               	movwf	0+(rotate_plane@rotate_pattern)^080h+03h
  5303                           	line	883
  5304                           ;Effect.c: 883: rotate_pattern[4] = 0x08;
  5305  0718  3008               	movlw	(08h)
  5306  0719  00F5               	movwf	(??_rotate_plane+0)+0
  5307  071A  0875               	movf	(??_rotate_plane+0)+0,w
  5308  071B  00E2               	movwf	0+(rotate_plane@rotate_pattern)^080h+04h
  5309                           	line	884
  5310                           ;Effect.c: 884: rotate_pattern[5] = 0x08;
  5311  071C  3008               	movlw	(08h)
  5312  071D  00F5               	movwf	(??_rotate_plane+0)+0
  5313  071E  0875               	movf	(??_rotate_plane+0)+0,w
  5314  071F  00E3               	movwf	0+(rotate_plane@rotate_pattern)^080h+05h
  5315                           	line	885
  5316                           ;Effect.c: 885: rotate_pattern[6] = 0x04;
  5317  0720  3004               	movlw	(04h)
  5318  0721  00F5               	movwf	(??_rotate_plane+0)+0
  5319  0722  0875               	movf	(??_rotate_plane+0)+0,w
  5320  0723  00E4               	movwf	0+(rotate_plane@rotate_pattern)^080h+06h
  5321                           	line	886
  5322                           ;Effect.c: 886: rotate_pattern[7] = 0x02;
  5323  0724  3002               	movlw	(02h)
  5324  0725  00F5               	movwf	(??_rotate_plane+0)+0
  5325  0726  0875               	movf	(??_rotate_plane+0)+0,w
  5326  0727  00E5               	movwf	0+(rotate_plane@rotate_pattern)^080h+07h
  5327                           	line	887
  5328                           	
  5329  0728                     l6792:	
  5330                           ;Effect.c: 887: for(int i = 0; i<time; i++)
  5331  0728  01BA               	clrf	(rotate_plane@i_3088)^080h
  5332  0729  01BB               	clrf	(rotate_plane@i_3088+1)^080h
  5333  072A  2F74               	goto	l2423
  5334                           	line	888
  5335                           	
  5336  072B                     l2424:	
  5337                           	line	889
  5338                           	
  5339  072B                     l6794:	
  5340                           ;Effect.c: 888: {
  5341                           ;Effect.c: 889: _delay((unsigned long)((1)*(20000000/4000.0)));
  5342                           	opt asmopt_off
  5343  072B  3007               movlw	7
  5344  072C  00F6               movwf	((??_rotate_plane+0)+0+1),f
  5345  072D  307D               	movlw	125
  5346  072E  00F5               movwf	((??_rotate_plane+0)+0),f
  5347  072F                     u5427:
  5348  072F  0BF5               	decfsz	((??_rotate_plane+0)+0),f
  5349  0730  2F2F               	goto	u5427
  5350  0731  0BF6               	decfsz	((??_rotate_plane+0)+0+1),f
  5351  0732  2F2F               	goto	u5427
  5352                           opt asmopt_on
  5353                           
  5354                           	line	890
  5355                           	
  5356  0733                     l6796:	
  5357                           ;Effect.c: 890: for(int j = 0; j<8; j++)
  5358  0733  1683               	bsf	status, 5	;RP0=1, select bank1
  5359  0734  1303               	bcf	status, 6	;RP1=0, select bank1
  5360  0735  01D8               	clrf	(rotate_plane@j_3089)^080h
  5361  0736  01D9               	clrf	(rotate_plane@j_3089+1)^080h
  5362                           	
  5363  0737                     l6798:	
  5364  0737  0859               	movf	(rotate_plane@j_3089+1)^080h,w
  5365  0738  3A80               	xorlw	80h
  5366  0739  00FF               	movwf	btemp+1
  5367  073A  3080               	movlw	(high(08h))^80h
  5368  073B  027F               	subwf	btemp+1,w
  5369  073C  1D03               	skipz
  5370  073D  2F40               	goto	u5055
  5371  073E  3008               	movlw	low(08h)
  5372  073F  0258               	subwf	(rotate_plane@j_3089)^080h,w
  5373  0740                     u5055:
  5374                           
  5375  0740  1C03               	skipc
  5376  0741  2F43               	goto	u5051
  5377  0742  2F44               	goto	u5050
  5378  0743                     u5051:
  5379  0743  2F46               	goto	l6802
  5380  0744                     u5050:
  5381  0744  2F6C               	goto	l6808
  5382                           	
  5383  0745                     l6800:	
  5384  0745  2F6C               	goto	l6808
  5385                           	line	891
  5386                           	
  5387  0746                     l2425:	
  5388                           	line	892
  5389                           	
  5390  0746                     l6802:	
  5391                           ;Effect.c: 891: {
  5392                           ;Effect.c: 892: show_pattern_on_a_plane(j,3,rotate_pattern);
  5393  0746  3003               	movlw	(03h)
  5394  0747  00F5               	movwf	(??_rotate_plane+0)+0
  5395  0748  0875               	movf	(??_rotate_plane+0)+0,w
  5396  0749  00F0               	movwf	(?_show_pattern_on_a_plane)
  5397  074A  30DE               	movlw	(rotate_plane@rotate_pattern)&0ffh
  5398  074B  00F6               	movwf	(??_rotate_plane+1)+0
  5399  074C  0876               	movf	(??_rotate_plane+1)+0,w
  5400  074D  00F1               	movwf	0+(?_show_pattern_on_a_plane)+01h
  5401  074E  1683               	bsf	status, 5	;RP0=1, select bank1
  5402  074F  1303               	bcf	status, 6	;RP1=0, select bank1
  5403  0750  0858               	movf	(rotate_plane@j_3089)^080h,w
  5404  0751  160A  118A  2451   	fcall	_show_pattern_on_a_plane
              120A  118A         
  5405                           	line	890
  5406                           	
  5407  0756                     l6804:	
  5408  0756  3001               	movlw	low(01h)
  5409  0757  1683               	bsf	status, 5	;RP0=1, select bank1
  5410  0758  1303               	bcf	status, 6	;RP1=0, select bank1
  5411  0759  07D8               	addwf	(rotate_plane@j_3089)^080h,f
  5412  075A  1803               	skipnc
  5413  075B  0AD9               	incf	(rotate_plane@j_3089+1)^080h,f
  5414  075C  3000               	movlw	high(01h)
  5415  075D  07D9               	addwf	(rotate_plane@j_3089+1)^080h,f
  5416                           	
  5417  075E                     l6806:	
  5418  075E  0859               	movf	(rotate_plane@j_3089+1)^080h,w
  5419  075F  3A80               	xorlw	80h
  5420  0760  00FF               	movwf	btemp+1
  5421  0761  3080               	movlw	(high(08h))^80h
  5422  0762  027F               	subwf	btemp+1,w
  5423  0763  1D03               	skipz
  5424  0764  2F67               	goto	u5065
  5425  0765  3008               	movlw	low(08h)
  5426  0766  0258               	subwf	(rotate_plane@j_3089)^080h,w
  5427  0767                     u5065:
  5428                           
  5429  0767  1C03               	skipc
  5430  0768  2F6A               	goto	u5061
  5431  0769  2F6B               	goto	u5060
  5432  076A                     u5061:
  5433  076A  2F46               	goto	l6802
  5434  076B                     u5060:
  5435  076B  2F6C               	goto	l6808
  5436                           	
  5437  076C                     l2426:	
  5438                           	line	887
  5439                           	
  5440  076C                     l6808:	
  5441  076C  3001               	movlw	low(01h)
  5442  076D  1683               	bsf	status, 5	;RP0=1, select bank1
  5443  076E  1303               	bcf	status, 6	;RP1=0, select bank1
  5444  076F  07BA               	addwf	(rotate_plane@i_3088)^080h,f
  5445  0770  1803               	skipnc
  5446  0771  0ABB               	incf	(rotate_plane@i_3088+1)^080h,f
  5447  0772  3000               	movlw	high(01h)
  5448  0773  07BB               	addwf	(rotate_plane@i_3088+1)^080h,f
  5449                           	
  5450  0774                     l2423:	
  5451  0774  083B               	movf	(rotate_plane@i_3088+1)^080h,w
  5452  0775  3A80               	xorlw	80h
  5453  0776  00F5               	movwf	(??_rotate_plane+0)+0
  5454  0777  085D               	movf	(rotate_plane@time+1)^080h,w
  5455  0778  3A80               	xorlw	80h
  5456  0779  0275               	subwf	(??_rotate_plane+0)+0,w
  5457  077A  1D03               	skipz
  5458  077B  2F7E               	goto	u5075
  5459  077C  085C               	movf	(rotate_plane@time)^080h,w
  5460  077D  023A               	subwf	(rotate_plane@i_3088)^080h,w
  5461  077E                     u5075:
  5462                           
  5463  077E  1C03               	skipc
  5464  077F  2F81               	goto	u5071
  5465  0780  2F82               	goto	u5070
  5466  0781                     u5071:
  5467  0781  2F2B               	goto	l6794
  5468  0782                     u5070:
  5469  0782  2F83               	goto	l6810
  5470                           	
  5471  0783                     l2427:	
  5472                           	line	897
  5473                           	
  5474  0783                     l6810:	
  5475                           ;Effect.c: 893: }
  5476                           ;Effect.c: 894: }
  5477                           ;Effect.c: 897: rotate_pattern[0] = 0x80;
  5478  0783  3080               	movlw	(080h)
  5479  0784  00F5               	movwf	(??_rotate_plane+0)+0
  5480  0785  0875               	movf	(??_rotate_plane+0)+0,w
  5481  0786  1683               	bsf	status, 5	;RP0=1, select bank1
  5482  0787  1303               	bcf	status, 6	;RP1=0, select bank1
  5483  0788  00DE               	movwf	(rotate_plane@rotate_pattern)^080h
  5484                           	line	898
  5485                           ;Effect.c: 898: rotate_pattern[1] = 0x40;
  5486  0789  3040               	movlw	(040h)
  5487  078A  00F5               	movwf	(??_rotate_plane+0)+0
  5488  078B  0875               	movf	(??_rotate_plane+0)+0,w
  5489  078C  00DF               	movwf	0+(rotate_plane@rotate_pattern)^080h+01h
  5490                           	line	899
  5491                           ;Effect.c: 899: rotate_pattern[2] = 0x20;
  5492  078D  3020               	movlw	(020h)
  5493  078E  00F5               	movwf	(??_rotate_plane+0)+0
  5494  078F  0875               	movf	(??_rotate_plane+0)+0,w
  5495  0790  00E0               	movwf	0+(rotate_plane@rotate_pattern)^080h+02h
  5496                           	line	900
  5497                           ;Effect.c: 900: rotate_pattern[3] = 0x10;
  5498  0791  3010               	movlw	(010h)
  5499  0792  00F5               	movwf	(??_rotate_plane+0)+0
  5500  0793  0875               	movf	(??_rotate_plane+0)+0,w
  5501  0794  00E1               	movwf	0+(rotate_plane@rotate_pattern)^080h+03h
  5502                           	line	901
  5503                           ;Effect.c: 901: rotate_pattern[4] = 0x08;
  5504  0795  3008               	movlw	(08h)
  5505  0796  00F5               	movwf	(??_rotate_plane+0)+0
  5506  0797  0875               	movf	(??_rotate_plane+0)+0,w
  5507  0798  00E2               	movwf	0+(rotate_plane@rotate_pattern)^080h+04h
  5508                           	line	902
  5509                           ;Effect.c: 902: rotate_pattern[5] = 0x04;
  5510  0799  3004               	movlw	(04h)
  5511  079A  00F5               	movwf	(??_rotate_plane+0)+0
  5512  079B  0875               	movf	(??_rotate_plane+0)+0,w
  5513  079C  00E3               	movwf	0+(rotate_plane@rotate_pattern)^080h+05h
  5514                           	line	903
  5515                           ;Effect.c: 903: rotate_pattern[6] = 0x02;
  5516  079D  3002               	movlw	(02h)
  5517  079E  00F5               	movwf	(??_rotate_plane+0)+0
  5518  079F  0875               	movf	(??_rotate_plane+0)+0,w
  5519  07A0  00E4               	movwf	0+(rotate_plane@rotate_pattern)^080h+06h
  5520                           	line	904
  5521                           	
  5522  07A1                     l6812:	
  5523                           ;Effect.c: 904: rotate_pattern[7] = 0x01;
  5524  07A1  01E5               	clrf	0+(rotate_plane@rotate_pattern)^080h+07h
  5525  07A2  1403               	bsf	status,0
  5526  07A3  0DE5               	rlf	0+(rotate_plane@rotate_pattern)^080h+07h,f
  5527                           	line	905
  5528                           	
  5529  07A4                     l6814:	
  5530                           ;Effect.c: 905: for(int i = 0; i<time; i++)
  5531  07A4  01BC               	clrf	(rotate_plane@i_3090)^080h
  5532  07A5  01BD               	clrf	(rotate_plane@i_3090+1)^080h
  5533  07A6  2FF0               	goto	l2428
  5534                           	line	906
  5535                           	
  5536  07A7                     l2429:	
  5537                           	line	907
  5538                           	
  5539  07A7                     l6816:	
  5540                           ;Effect.c: 906: {
  5541                           ;Effect.c: 907: _delay((unsigned long)((1)*(20000000/4000.0)));
  5542                           	opt asmopt_off
  5543  07A7  3007               movlw	7
  5544  07A8  00F6               movwf	((??_rotate_plane+0)+0+1),f
  5545  07A9  307D               	movlw	125
  5546  07AA  00F5               movwf	((??_rotate_plane+0)+0),f
  5547  07AB                     u5437:
  5548  07AB  0BF5               	decfsz	((??_rotate_plane+0)+0),f
  5549  07AC  2FAB               	goto	u5437
  5550  07AD  0BF6               	decfsz	((??_rotate_plane+0)+0+1),f
  5551  07AE  2FAB               	goto	u5437
  5552                           opt asmopt_on
  5553                           
  5554                           	line	908
  5555                           	
  5556  07AF                     l6818:	
  5557                           ;Effect.c: 908: for(int j = 0; j<8; j++)
  5558  07AF  1683               	bsf	status, 5	;RP0=1, select bank1
  5559  07B0  1303               	bcf	status, 6	;RP1=0, select bank1
  5560  07B1  01DA               	clrf	(rotate_plane@j_3091)^080h
  5561  07B2  01DB               	clrf	(rotate_plane@j_3091+1)^080h
  5562                           	
  5563  07B3                     l6820:	
  5564  07B3  085B               	movf	(rotate_plane@j_3091+1)^080h,w
  5565  07B4  3A80               	xorlw	80h
  5566  07B5  00FF               	movwf	btemp+1
  5567  07B6  3080               	movlw	(high(08h))^80h
  5568  07B7  027F               	subwf	btemp+1,w
  5569  07B8  1D03               	skipz
  5570  07B9  2FBC               	goto	u5085
  5571  07BA  3008               	movlw	low(08h)
  5572  07BB  025A               	subwf	(rotate_plane@j_3091)^080h,w
  5573  07BC                     u5085:
  5574                           
  5575  07BC  1C03               	skipc
  5576  07BD  2FBF               	goto	u5081
  5577  07BE  2FC0               	goto	u5080
  5578  07BF                     u5081:
  5579  07BF  2FC2               	goto	l6824
  5580  07C0                     u5080:
  5581  07C0  2FE8               	goto	l6830
  5582                           	
  5583  07C1                     l6822:	
  5584  07C1  2FE8               	goto	l6830
  5585                           	line	909
  5586                           	
  5587  07C2                     l2430:	
  5588                           	line	910
  5589                           	
  5590  07C2                     l6824:	
  5591                           ;Effect.c: 909: {
  5592                           ;Effect.c: 910: show_pattern_on_a_plane(j,3,rotate_pattern);
  5593  07C2  3003               	movlw	(03h)
  5594  07C3  00F5               	movwf	(??_rotate_plane+0)+0
  5595  07C4  0875               	movf	(??_rotate_plane+0)+0,w
  5596  07C5  00F0               	movwf	(?_show_pattern_on_a_plane)
  5597  07C6  30DE               	movlw	(rotate_plane@rotate_pattern)&0ffh
  5598  07C7  00F6               	movwf	(??_rotate_plane+1)+0
  5599  07C8  0876               	movf	(??_rotate_plane+1)+0,w
  5600  07C9  00F1               	movwf	0+(?_show_pattern_on_a_plane)+01h
  5601  07CA  1683               	bsf	status, 5	;RP0=1, select bank1
  5602  07CB  1303               	bcf	status, 6	;RP1=0, select bank1
  5603  07CC  085A               	movf	(rotate_plane@j_3091)^080h,w
  5604  07CD  160A  118A  2451   	fcall	_show_pattern_on_a_plane
              120A  118A         
  5605                           	line	908
  5606                           	
  5607  07D2                     l6826:	
  5608  07D2  3001               	movlw	low(01h)
  5609  07D3  1683               	bsf	status, 5	;RP0=1, select bank1
  5610  07D4  1303               	bcf	status, 6	;RP1=0, select bank1
  5611  07D5  07DA               	addwf	(rotate_plane@j_3091)^080h,f
  5612  07D6  1803               	skipnc
  5613  07D7  0ADB               	incf	(rotate_plane@j_3091+1)^080h,f
  5614  07D8  3000               	movlw	high(01h)
  5615  07D9  07DB               	addwf	(rotate_plane@j_3091+1)^080h,f
  5616                           	
  5617  07DA                     l6828:	
  5618  07DA  085B               	movf	(rotate_plane@j_3091+1)^080h,w
  5619  07DB  3A80               	xorlw	80h
  5620  07DC  00FF               	movwf	btemp+1
  5621  07DD  3080               	movlw	(high(08h))^80h
  5622  07DE  027F               	subwf	btemp+1,w
  5623  07DF  1D03               	skipz
  5624  07E0  2FE3               	goto	u5095
  5625  07E1  3008               	movlw	low(08h)
  5626  07E2  025A               	subwf	(rotate_plane@j_3091)^080h,w
  5627  07E3                     u5095:
  5628                           
  5629  07E3  1C03               	skipc
  5630  07E4  2FE6               	goto	u5091
  5631  07E5  2FE7               	goto	u5090
  5632  07E6                     u5091:
  5633  07E6  2FC2               	goto	l6824
  5634  07E7                     u5090:
  5635  07E7  2FE8               	goto	l6830
  5636                           	
  5637  07E8                     l2431:	
  5638                           	line	905
  5639                           	
  5640  07E8                     l6830:	
  5641  07E8  3001               	movlw	low(01h)
  5642  07E9  1683               	bsf	status, 5	;RP0=1, select bank1
  5643  07EA  1303               	bcf	status, 6	;RP1=0, select bank1
  5644  07EB  07BC               	addwf	(rotate_plane@i_3090)^080h,f
  5645  07EC  1803               	skipnc
  5646  07ED  0ABD               	incf	(rotate_plane@i_3090+1)^080h,f
  5647  07EE  3000               	movlw	high(01h)
  5648  07EF  07BD               	addwf	(rotate_plane@i_3090+1)^080h,f
  5649                           	
  5650  07F0                     l2428:	
  5651  07F0  083D               	movf	(rotate_plane@i_3090+1)^080h,w
  5652  07F1  3A80               	xorlw	80h
  5653  07F2  00F5               	movwf	(??_rotate_plane+0)+0
  5654  07F3  085D               	movf	(rotate_plane@time+1)^080h,w
  5655  07F4  3A80               	xorlw	80h
  5656  07F5  0275               	subwf	(??_rotate_plane+0)+0,w
  5657  07F6  1D03               	skipz
  5658  07F7  2FFA               	goto	u5105
  5659  07F8  085C               	movf	(rotate_plane@time)^080h,w
  5660  07F9  023C               	subwf	(rotate_plane@i_3090)^080h,w
  5661  07FA                     u5105:
  5662                           
  5663  07FA  1C03               	skipc
  5664  07FB  2FFD               	goto	u5101
  5665  07FC  2FFE               	goto	u5100
  5666  07FD                     u5101:
  5667  07FD  2FA7               	goto	l6816
  5668  07FE                     u5100:
  5669  07FE  2FFF               	goto	l2433
  5670                           	
  5671  07FF                     l2432:	
  5672                           	line	913
  5673                           	
  5674  07FF                     l2433:	
  5675  07FF  0008               	return
  5676                           	opt stack 0
  5677                           GLOBAL	__end_of_rotate_plane
  5678  0800                     	__end_of_rotate_plane:
  5679 ;; =============== function _rotate_plane ends ============
  5680                           
  5681                           	signat	_rotate_plane,88
  5682                           	global	_expansion_box
  5683                           psect	text546,local,class=CODE,delta=2
  5684                           global __ptext546
  5685  15F6                     __ptext546:
  5686                           
  5687 ;; *************** function _expansion_box *****************
  5688 ;; Defined at:
  5689 ;;		line 567 in file "C:\Users\Younce\Desktop\LED Cube 8 x 8 x 8\Effect.c"
  5690 ;; Parameters:    Size  Location     Type
  5691 ;;		None
  5692 ;; Auto vars:     Size  Location     Type
  5693 ;;  j               2   30[BANK0 ] int 
  5694 ;;  j               2   28[BANK0 ] int 
  5695 ;;  j               2   26[BANK0 ] int 
  5696 ;;  j               2   24[BANK0 ] int 
  5697 ;;  i               2   22[BANK0 ] int 
  5698 ;;  i               2   20[BANK0 ] int 
  5699 ;;  i               2   18[BANK0 ] int 
  5700 ;;  i               2   16[BANK0 ] int 
  5701 ;;  box_pattern     8   34[BANK0 ] unsigned char [8]
  5702 ;;  time            2   32[BANK0 ] int 
  5703 ;; Return value:  Size  Location     Type
  5704 ;;		None               void
  5705 ;; Registers used:
  5706 ;;		wreg, fsr0l, fsr0h, status,2, status,0, btemp+1, pclath, cstack
  5707 ;; Tracked objects:
  5708 ;;		On entry : 0/0
  5709 ;;		On exit  : 0/0
  5710 ;;		Unchanged: 0/0
  5711 ;; Data sizes:     COMMON   BANK0   BANK1   BANK3   BANK2
  5712 ;;      Params:         0       0       0       0       0
  5713 ;;      Locals:         0      26       0       0       0
  5714 ;;      Temps:          4       0       0       0       0
  5715 ;;      Totals:         4      26       0       0       0
  5716 ;;Total ram usage:       30 bytes
  5717 ;; Hardware stack levels used:    1
  5718 ;; Hardware stack levels required when called:    1
  5719 ;; This function calls:
  5720 ;;		_show_pattern_on_a_plane
  5721 ;; This function is called by:
  5722 ;;		_main
  5723 ;; This function uses a non-reentrant model
  5724 ;;
  5725                           psect	text546
  5726                           	file	"C:\Users\Younce\Desktop\LED Cube 8 x 8 x 8\Effect.c"
  5727                           	line	567
  5728                           	global	__size_of_expansion_box
  5729  020A                     	__size_of_expansion_box	equ	__end_of_expansion_box-_expansion_box
  5730                           	
  5731  15F6                     _expansion_box:	
  5732                           	opt	stack 6
  5733                           ; Regs used in _expansion_box: [wreg-fsr0h+status,2+status,0+btemp+1+pclath+cstack]
  5734                           	line	568
  5735                           	
  5736  15F6                     l6358:	
  5737                           ;Effect.c: 568: int time = 80;
  5738  15F6  3050               	movlw	low(050h)
  5739  15F7  1283               	bcf	status, 5	;RP0=0, select bank0
  5740  15F8  1303               	bcf	status, 6	;RP1=0, select bank0
  5741  15F9  00C0               	movwf	(expansion_box@time)
  5742  15FA  3000               	movlw	high(050h)
  5743  15FB  00C1               	movwf	((expansion_box@time))+1
  5744                           	line	569
  5745                           	
  5746  15FC                     l6360:	
  5747                           ;Effect.c: 569: unsigned char box_pattern[8] = {{0}};
  5748  15FC  3042               	movlw	(expansion_box@box_pattern)&0ffh
  5749  15FD  0084               	movwf	fsr0
  5750  15FE  3090               	movlw	low(expansion_box@F1188)
  5751  15FF  00F5               	movwf	(??_expansion_box+0)+0
  5752  1600  0804               	movf	fsr0,w
  5753  1601  00F6               	movwf	((??_expansion_box+0)+0+1)
  5754  1602  3008               	movlw	8
  5755  1603  00F7               	movwf	((??_expansion_box+0)+0+2)
  5756  1604                     u4520:
  5757  1604  0875               	movf	(??_expansion_box+0)+0,w
  5758  1605  0084               	movwf	fsr0
  5759  1606  1783               	bsf	status, 7	;select IRP bank3
  5760                           	
  5761  1607  0800               	movf	indf,w
  5762  1608  00F8               	movwf	((??_expansion_box+0)+0+3)
  5763  1609  0AF5               	incf	(??_expansion_box+0)+0,f
  5764  160A  0876               	movf	((??_expansion_box+0)+0+1),w
  5765  160B  0084               	movwf	fsr0
  5766  160C  1383               	bcf	status, 7	;select IRP bank0
  5767                           	
  5768  160D  0878               	movf	((??_expansion_box+0)+0+3),w
  5769  160E  0080               	movwf	indf
  5770  160F  0AF6               	incf	((??_expansion_box+0)+0+1),f
  5771  1610  0BF7               	decfsz	((??_expansion_box+0)+0+2),f
  5772  1611  2E04               	goto	u4520
  5773                           	line	570
  5774                           	
  5775  1612                     l6362:	
  5776                           ;Effect.c: 570: box_pattern[0] = 0x00;
  5777  1612  01C2               	clrf	(expansion_box@box_pattern)
  5778                           	line	571
  5779                           	
  5780  1613                     l6364:	
  5781                           ;Effect.c: 571: box_pattern[1] = 0x00;
  5782  1613  01C3               	clrf	0+(expansion_box@box_pattern)+01h
  5783                           	line	572
  5784                           	
  5785  1614                     l6366:	
  5786                           ;Effect.c: 572: box_pattern[2] = 0x00;
  5787  1614  01C4               	clrf	0+(expansion_box@box_pattern)+02h
  5788                           	line	573
  5789                           	
  5790  1615                     l6368:	
  5791                           ;Effect.c: 573: box_pattern[3] = 0x18;
  5792  1615  3018               	movlw	(018h)
  5793  1616  00F5               	movwf	(??_expansion_box+0)+0
  5794  1617  0875               	movf	(??_expansion_box+0)+0,w
  5795  1618  00C5               	movwf	0+(expansion_box@box_pattern)+03h
  5796                           	line	574
  5797                           	
  5798  1619                     l6370:	
  5799                           ;Effect.c: 574: box_pattern[4] = 0x18;
  5800  1619  3018               	movlw	(018h)
  5801  161A  00F5               	movwf	(??_expansion_box+0)+0
  5802  161B  0875               	movf	(??_expansion_box+0)+0,w
  5803  161C  00C6               	movwf	0+(expansion_box@box_pattern)+04h
  5804                           	line	575
  5805                           	
  5806  161D                     l6372:	
  5807                           ;Effect.c: 575: box_pattern[5] = 0x00;
  5808  161D  01C7               	clrf	0+(expansion_box@box_pattern)+05h
  5809                           	line	576
  5810                           	
  5811  161E                     l6374:	
  5812                           ;Effect.c: 576: box_pattern[6] = 0x00;
  5813  161E  01C8               	clrf	0+(expansion_box@box_pattern)+06h
  5814                           	line	577
  5815                           	
  5816  161F                     l6376:	
  5817                           ;Effect.c: 577: box_pattern[7] = 0x00;
  5818  161F  01C9               	clrf	0+(expansion_box@box_pattern)+07h
  5819                           	line	579
  5820                           	
  5821  1620                     l6378:	
  5822                           ;Effect.c: 579: for(int i = 0; i<time; i++)
  5823  1620  01B0               	clrf	(expansion_box@i)
  5824  1621  01B1               	clrf	(expansion_box@i+1)
  5825  1622  2E6E               	goto	l2333
  5826                           	line	580
  5827                           	
  5828  1623                     l2334:	
  5829                           	line	581
  5830                           	
  5831  1623                     l6380:	
  5832                           ;Effect.c: 580: {
  5833                           ;Effect.c: 581: _delay((unsigned long)((1)*(20000000/4000.0)));
  5834                           	opt asmopt_off
  5835  1623  3007               movlw	7
  5836  1624  00F6               movwf	((??_expansion_box+0)+0+1),f
  5837  1625  307D               	movlw	125
  5838  1626  00F5               movwf	((??_expansion_box+0)+0),f
  5839  1627                     u5447:
  5840  1627  0BF5               	decfsz	((??_expansion_box+0)+0),f
  5841  1628  2E27               	goto	u5447
  5842  1629  0BF6               	decfsz	((??_expansion_box+0)+0+1),f
  5843  162A  2E27               	goto	u5447
  5844                           opt asmopt_on
  5845                           
  5846                           	line	582
  5847                           ;Effect.c: 582: for(int j = 3; j<5; j++)
  5848  162B  3003               	movlw	low(03h)
  5849  162C  1283               	bcf	status, 5	;RP0=0, select bank0
  5850  162D  1303               	bcf	status, 6	;RP1=0, select bank0
  5851  162E  00B8               	movwf	(expansion_box@j)
  5852  162F  3000               	movlw	high(03h)
  5853  1630  00B9               	movwf	((expansion_box@j))+1
  5854                           	
  5855  1631                     l6382:	
  5856  1631  0839               	movf	(expansion_box@j+1),w
  5857  1632  3A80               	xorlw	80h
  5858  1633  00FF               	movwf	btemp+1
  5859  1634  3080               	movlw	(high(05h))^80h
  5860  1635  027F               	subwf	btemp+1,w
  5861  1636  1D03               	skipz
  5862  1637  2E3A               	goto	u4535
  5863  1638  3005               	movlw	low(05h)
  5864  1639  0238               	subwf	(expansion_box@j),w
  5865  163A                     u4535:
  5866                           
  5867  163A  1C03               	skipc
  5868  163B  2E3D               	goto	u4531
  5869  163C  2E3E               	goto	u4530
  5870  163D                     u4531:
  5871  163D  2E40               	goto	l6386
  5872  163E                     u4530:
  5873  163E  2E66               	goto	l6392
  5874                           	
  5875  163F                     l6384:	
  5876  163F  2E66               	goto	l6392
  5877                           	line	583
  5878                           	
  5879  1640                     l2335:	
  5880                           	line	584
  5881                           	
  5882  1640                     l6386:	
  5883                           ;Effect.c: 583: {
  5884                           ;Effect.c: 584: show_pattern_on_a_plane(j,3,box_pattern);
  5885  1640  3003               	movlw	(03h)
  5886  1641  00F5               	movwf	(??_expansion_box+0)+0
  5887  1642  0875               	movf	(??_expansion_box+0)+0,w
  5888  1643  00F0               	movwf	(?_show_pattern_on_a_plane)
  5889  1644  3042               	movlw	(expansion_box@box_pattern)&0ffh
  5890  1645  00F6               	movwf	(??_expansion_box+1)+0
  5891  1646  0876               	movf	(??_expansion_box+1)+0,w
  5892  1647  00F1               	movwf	0+(?_show_pattern_on_a_plane)+01h
  5893  1648  1283               	bcf	status, 5	;RP0=0, select bank0
  5894  1649  1303               	bcf	status, 6	;RP1=0, select bank0
  5895  164A  0838               	movf	(expansion_box@j),w
  5896  164B  160A  118A  2451   	fcall	_show_pattern_on_a_plane
              160A  118A         
  5897                           	line	582
  5898                           	
  5899  1650                     l6388:	
  5900  1650  3001               	movlw	low(01h)
  5901  1651  1283               	bcf	status, 5	;RP0=0, select bank0
  5902  1652  1303               	bcf	status, 6	;RP1=0, select bank0
  5903  1653  07B8               	addwf	(expansion_box@j),f
  5904  1654  1803               	skipnc
  5905  1655  0AB9               	incf	(expansion_box@j+1),f
  5906  1656  3000               	movlw	high(01h)
  5907  1657  07B9               	addwf	(expansion_box@j+1),f
  5908                           	
  5909  1658                     l6390:	
  5910  1658  0839               	movf	(expansion_box@j+1),w
  5911  1659  3A80               	xorlw	80h
  5912  165A  00FF               	movwf	btemp+1
  5913  165B  3080               	movlw	(high(05h))^80h
  5914  165C  027F               	subwf	btemp+1,w
  5915  165D  1D03               	skipz
  5916  165E  2E61               	goto	u4545
  5917  165F  3005               	movlw	low(05h)
  5918  1660  0238               	subwf	(expansion_box@j),w
  5919  1661                     u4545:
  5920                           
  5921  1661  1C03               	skipc
  5922  1662  2E64               	goto	u4541
  5923  1663  2E65               	goto	u4540
  5924  1664                     u4541:
  5925  1664  2E40               	goto	l6386
  5926  1665                     u4540:
  5927  1665  2E66               	goto	l6392
  5928                           	
  5929  1666                     l2336:	
  5930                           	line	579
  5931                           	
  5932  1666                     l6392:	
  5933  1666  3001               	movlw	low(01h)
  5934  1667  1283               	bcf	status, 5	;RP0=0, select bank0
  5935  1668  1303               	bcf	status, 6	;RP1=0, select bank0
  5936  1669  07B0               	addwf	(expansion_box@i),f
  5937  166A  1803               	skipnc
  5938  166B  0AB1               	incf	(expansion_box@i+1),f
  5939  166C  3000               	movlw	high(01h)
  5940  166D  07B1               	addwf	(expansion_box@i+1),f
  5941                           	
  5942  166E                     l2333:	
  5943  166E  0831               	movf	(expansion_box@i+1),w
  5944  166F  3A80               	xorlw	80h
  5945  1670  00F5               	movwf	(??_expansion_box+0)+0
  5946  1671  0841               	movf	(expansion_box@time+1),w
  5947  1672  3A80               	xorlw	80h
  5948  1673  0275               	subwf	(??_expansion_box+0)+0,w
  5949  1674  1D03               	skipz
  5950  1675  2E78               	goto	u4555
  5951  1676  0840               	movf	(expansion_box@time),w
  5952  1677  0230               	subwf	(expansion_box@i),w
  5953  1678                     u4555:
  5954                           
  5955  1678  1C03               	skipc
  5956  1679  2E7B               	goto	u4551
  5957  167A  2E7C               	goto	u4550
  5958  167B                     u4551:
  5959  167B  2E23               	goto	l6380
  5960  167C                     u4550:
  5961                           	
  5962  167C                     l2337:	
  5963                           	line	588
  5964                           ;Effect.c: 585: }
  5965                           ;Effect.c: 586: }
  5966                           ;Effect.c: 588: box_pattern[0] = 0x00;
  5967  167C  1283               	bcf	status, 5	;RP0=0, select bank0
  5968  167D  1303               	bcf	status, 6	;RP1=0, select bank0
  5969  167E  01C2               	clrf	(expansion_box@box_pattern)
  5970                           	line	589
  5971                           ;Effect.c: 589: box_pattern[1] = 0x00;
  5972  167F  01C3               	clrf	0+(expansion_box@box_pattern)+01h
  5973                           	line	590
  5974                           	
  5975  1680                     l6394:	
  5976                           ;Effect.c: 590: box_pattern[2] = 0x3c;
  5977  1680  303C               	movlw	(03Ch)
  5978  1681  00F5               	movwf	(??_expansion_box+0)+0
  5979  1682  0875               	movf	(??_expansion_box+0)+0,w
  5980  1683  00C4               	movwf	0+(expansion_box@box_pattern)+02h
  5981                           	line	591
  5982                           ;Effect.c: 591: box_pattern[3] = 0x3c;
  5983  1684  303C               	movlw	(03Ch)
  5984  1685  00F5               	movwf	(??_expansion_box+0)+0
  5985  1686  0875               	movf	(??_expansion_box+0)+0,w
  5986  1687  00C5               	movwf	0+(expansion_box@box_pattern)+03h
  5987                           	line	592
  5988                           ;Effect.c: 592: box_pattern[4] = 0x3c;
  5989  1688  303C               	movlw	(03Ch)
  5990  1689  00F5               	movwf	(??_expansion_box+0)+0
  5991  168A  0875               	movf	(??_expansion_box+0)+0,w
  5992  168B  00C6               	movwf	0+(expansion_box@box_pattern)+04h
  5993                           	line	593
  5994                           ;Effect.c: 593: box_pattern[5] = 0x3c;
  5995  168C  303C               	movlw	(03Ch)
  5996  168D  00F5               	movwf	(??_expansion_box+0)+0
  5997  168E  0875               	movf	(??_expansion_box+0)+0,w
  5998  168F  00C7               	movwf	0+(expansion_box@box_pattern)+05h
  5999                           	line	594
  6000                           	
  6001  1690                     l6396:	
  6002                           ;Effect.c: 594: box_pattern[6] = 0x00;
  6003  1690  01C8               	clrf	0+(expansion_box@box_pattern)+06h
  6004                           	line	595
  6005                           	
  6006  1691                     l6398:	
  6007                           ;Effect.c: 595: box_pattern[7] = 0x00;
  6008  1691  01C9               	clrf	0+(expansion_box@box_pattern)+07h
  6009                           	line	597
  6010                           	
  6011  1692                     l6400:	
  6012                           ;Effect.c: 597: for(int i = 0; i<(time-10); i++)
  6013  1692  01B2               	clrf	(expansion_box@i_3052)
  6014  1693  01B3               	clrf	(expansion_box@i_3052+1)
  6015  1694  2EE1               	goto	l6416
  6016                           	line	598
  6017                           	
  6018  1695                     l2339:	
  6019                           	line	599
  6020                           	
  6021  1695                     l6402:	
  6022                           ;Effect.c: 598: {
  6023                           ;Effect.c: 599: _delay((unsigned long)((1)*(20000000/4000.0)));
  6024                           	opt asmopt_off
  6025  1695  3007               movlw	7
  6026  1696  00F6               movwf	((??_expansion_box+0)+0+1),f
  6027  1697  307D               	movlw	125
  6028  1698  00F5               movwf	((??_expansion_box+0)+0),f
  6029  1699                     u5457:
  6030  1699  0BF5               	decfsz	((??_expansion_box+0)+0),f
  6031  169A  2E99               	goto	u5457
  6032  169B  0BF6               	decfsz	((??_expansion_box+0)+0+1),f
  6033  169C  2E99               	goto	u5457
  6034                           opt asmopt_on
  6035                           
  6036                           	line	600
  6037                           ;Effect.c: 600: for(int j = 2; j<6; j++)
  6038  169D  3002               	movlw	low(02h)
  6039  169E  1283               	bcf	status, 5	;RP0=0, select bank0
  6040  169F  1303               	bcf	status, 6	;RP1=0, select bank0
  6041  16A0  00BA               	movwf	(expansion_box@j_3053)
  6042  16A1  3000               	movlw	high(02h)
  6043  16A2  00BB               	movwf	((expansion_box@j_3053))+1
  6044                           	
  6045  16A3                     l6404:	
  6046  16A3  083B               	movf	(expansion_box@j_3053+1),w
  6047  16A4  3A80               	xorlw	80h
  6048  16A5  00FF               	movwf	btemp+1
  6049  16A6  3080               	movlw	(high(06h))^80h
  6050  16A7  027F               	subwf	btemp+1,w
  6051  16A8  1D03               	skipz
  6052  16A9  2EAC               	goto	u4565
  6053  16AA  3006               	movlw	low(06h)
  6054  16AB  023A               	subwf	(expansion_box@j_3053),w
  6055  16AC                     u4565:
  6056                           
  6057  16AC  1C03               	skipc
  6058  16AD  2EAF               	goto	u4561
  6059  16AE  2EB0               	goto	u4560
  6060  16AF                     u4561:
  6061  16AF  2EB2               	goto	l6408
  6062  16B0                     u4560:
  6063  16B0  2ED8               	goto	l6414
  6064                           	
  6065  16B1                     l6406:	
  6066  16B1  2ED8               	goto	l6414
  6067                           	line	601
  6068                           	
  6069  16B2                     l2340:	
  6070                           	line	602
  6071                           	
  6072  16B2                     l6408:	
  6073                           ;Effect.c: 601: {
  6074                           ;Effect.c: 602: show_pattern_on_a_plane(j,3,box_pattern);
  6075  16B2  3003               	movlw	(03h)
  6076  16B3  00F5               	movwf	(??_expansion_box+0)+0
  6077  16B4  0875               	movf	(??_expansion_box+0)+0,w
  6078  16B5  00F0               	movwf	(?_show_pattern_on_a_plane)
  6079  16B6  3042               	movlw	(expansion_box@box_pattern)&0ffh
  6080  16B7  00F6               	movwf	(??_expansion_box+1)+0
  6081  16B8  0876               	movf	(??_expansion_box+1)+0,w
  6082  16B9  00F1               	movwf	0+(?_show_pattern_on_a_plane)+01h
  6083  16BA  1283               	bcf	status, 5	;RP0=0, select bank0
  6084  16BB  1303               	bcf	status, 6	;RP1=0, select bank0
  6085  16BC  083A               	movf	(expansion_box@j_3053),w
  6086  16BD  160A  118A  2451   	fcall	_show_pattern_on_a_plane
              160A  118A         
  6087                           	line	600
  6088                           	
  6089  16C2                     l6410:	
  6090  16C2  3001               	movlw	low(01h)
  6091  16C3  1283               	bcf	status, 5	;RP0=0, select bank0
  6092  16C4  1303               	bcf	status, 6	;RP1=0, select bank0
  6093  16C5  07BA               	addwf	(expansion_box@j_3053),f
  6094  16C6  1803               	skipnc
  6095  16C7  0ABB               	incf	(expansion_box@j_3053+1),f
  6096  16C8  3000               	movlw	high(01h)
  6097  16C9  07BB               	addwf	(expansion_box@j_3053+1),f
  6098                           	
  6099  16CA                     l6412:	
  6100  16CA  083B               	movf	(expansion_box@j_3053+1),w
  6101  16CB  3A80               	xorlw	80h
  6102  16CC  00FF               	movwf	btemp+1
  6103  16CD  3080               	movlw	(high(06h))^80h
  6104  16CE  027F               	subwf	btemp+1,w
  6105  16CF  1D03               	skipz
  6106  16D0  2ED3               	goto	u4575
  6107  16D1  3006               	movlw	low(06h)
  6108  16D2  023A               	subwf	(expansion_box@j_3053),w
  6109  16D3                     u4575:
  6110                           
  6111  16D3  1C03               	skipc
  6112  16D4  2ED6               	goto	u4571
  6113  16D5  2ED7               	goto	u4570
  6114  16D6                     u4571:
  6115  16D6  2EB2               	goto	l6408
  6116  16D7                     u4570:
  6117  16D7  2ED8               	goto	l6414
  6118                           	
  6119  16D8                     l2341:	
  6120                           	line	597
  6121                           	
  6122  16D8                     l6414:	
  6123  16D8  3001               	movlw	low(01h)
  6124  16D9  1283               	bcf	status, 5	;RP0=0, select bank0
  6125  16DA  1303               	bcf	status, 6	;RP1=0, select bank0
  6126  16DB  07B2               	addwf	(expansion_box@i_3052),f
  6127  16DC  1803               	skipnc
  6128  16DD  0AB3               	incf	(expansion_box@i_3052+1),f
  6129  16DE  3000               	movlw	high(01h)
  6130  16DF  07B3               	addwf	(expansion_box@i_3052+1),f
  6131  16E0  2EE1               	goto	l6416
  6132                           	
  6133  16E1                     l2338:	
  6134                           	
  6135  16E1                     l6416:	
  6136  16E1  0840               	movf	(expansion_box@time),w
  6137  16E2  3EF6               	addlw	low(-10)
  6138  16E3  00F5               	movwf	(??_expansion_box+0)+0
  6139  16E4  0841               	movf	(expansion_box@time+1),w
  6140  16E5  1803               	skipnc
  6141  16E6  3E01               	addlw	1
  6142  16E7  3EFF               	addlw	high(-10)
  6143  16E8  00F6               	movwf	1+(??_expansion_box+0)+0
  6144  16E9  0833               	movf	(expansion_box@i_3052+1),w
  6145  16EA  3A80               	xorlw	80h
  6146  16EB  00F7               	movwf	(??_expansion_box+2)+0
  6147  16EC  0876               	movf	1+(??_expansion_box+0)+0,w
  6148  16ED  3A80               	xorlw	80h
  6149  16EE  0277               	subwf	(??_expansion_box+2)+0,w
  6150  16EF  1D03               	skipz
  6151  16F0  2EF3               	goto	u4585
  6152  16F1  0875               	movf	0+(??_expansion_box+0)+0,w
  6153  16F2  0232               	subwf	(expansion_box@i_3052),w
  6154  16F3                     u4585:
  6155                           
  6156  16F3  1C03               	skipc
  6157  16F4  2EF6               	goto	u4581
  6158  16F5  2EF7               	goto	u4580
  6159  16F6                     u4581:
  6160  16F6  2E95               	goto	l6402
  6161  16F7                     u4580:
  6162                           	
  6163  16F7                     l2342:	
  6164                           	line	606
  6165                           ;Effect.c: 603: }
  6166                           ;Effect.c: 604: }
  6167                           ;Effect.c: 606: box_pattern[0] = 0x00;
  6168  16F7  1283               	bcf	status, 5	;RP0=0, select bank0
  6169  16F8  1303               	bcf	status, 6	;RP1=0, select bank0
  6170  16F9  01C2               	clrf	(expansion_box@box_pattern)
  6171                           	line	607
  6172                           	
  6173  16FA                     l6418:	
  6174                           ;Effect.c: 607: box_pattern[1] = 0x7e;
  6175  16FA  307E               	movlw	(07Eh)
  6176  16FB  00F5               	movwf	(??_expansion_box+0)+0
  6177  16FC  0875               	movf	(??_expansion_box+0)+0,w
  6178  16FD  00C3               	movwf	0+(expansion_box@box_pattern)+01h
  6179                           	line	608
  6180                           ;Effect.c: 608: box_pattern[2] = 0x7e;
  6181  16FE  307E               	movlw	(07Eh)
  6182  16FF  00F5               	movwf	(??_expansion_box+0)+0
  6183  1700  0875               	movf	(??_expansion_box+0)+0,w
  6184  1701  00C4               	movwf	0+(expansion_box@box_pattern)+02h
  6185                           	line	609
  6186                           ;Effect.c: 609: box_pattern[3] = 0x7e;
  6187  1702  307E               	movlw	(07Eh)
  6188  1703  00F5               	movwf	(??_expansion_box+0)+0
  6189  1704  0875               	movf	(??_expansion_box+0)+0,w
  6190  1705  00C5               	movwf	0+(expansion_box@box_pattern)+03h
  6191                           	line	610
  6192                           ;Effect.c: 610: box_pattern[4] = 0x7e;
  6193  1706  307E               	movlw	(07Eh)
  6194  1707  00F5               	movwf	(??_expansion_box+0)+0
  6195  1708  0875               	movf	(??_expansion_box+0)+0,w
  6196  1709  00C6               	movwf	0+(expansion_box@box_pattern)+04h
  6197                           	line	611
  6198                           ;Effect.c: 611: box_pattern[5] = 0x7e;
  6199  170A  307E               	movlw	(07Eh)
  6200  170B  00F5               	movwf	(??_expansion_box+0)+0
  6201  170C  0875               	movf	(??_expansion_box+0)+0,w
  6202  170D  00C7               	movwf	0+(expansion_box@box_pattern)+05h
  6203                           	line	612
  6204                           ;Effect.c: 612: box_pattern[6] = 0x7e;
  6205  170E  307E               	movlw	(07Eh)
  6206  170F  00F5               	movwf	(??_expansion_box+0)+0
  6207  1710  0875               	movf	(??_expansion_box+0)+0,w
  6208  1711  00C8               	movwf	0+(expansion_box@box_pattern)+06h
  6209                           	line	613
  6210                           	
  6211  1712                     l6420:	
  6212                           ;Effect.c: 613: box_pattern[7] = 0x00;
  6213  1712  01C9               	clrf	0+(expansion_box@box_pattern)+07h
  6214                           	line	615
  6215                           	
  6216  1713                     l6422:	
  6217                           ;Effect.c: 615: for(int i = 0; i<(time-20); i++)
  6218  1713  01B4               	clrf	(expansion_box@i_3054)
  6219  1714  01B5               	clrf	(expansion_box@i_3054+1)
  6220  1715  2F62               	goto	l6438
  6221                           	line	616
  6222                           	
  6223  1716                     l2344:	
  6224                           	line	617
  6225                           	
  6226  1716                     l6424:	
  6227                           ;Effect.c: 616: {
  6228                           ;Effect.c: 617: _delay((unsigned long)((1)*(20000000/4000.0)));
  6229                           	opt asmopt_off
  6230  1716  3007               movlw	7
  6231  1717  00F6               movwf	((??_expansion_box+0)+0+1),f
  6232  1718  307D               	movlw	125
  6233  1719  00F5               movwf	((??_expansion_box+0)+0),f
  6234  171A                     u5467:
  6235  171A  0BF5               	decfsz	((??_expansion_box+0)+0),f
  6236  171B  2F1A               	goto	u5467
  6237  171C  0BF6               	decfsz	((??_expansion_box+0)+0+1),f
  6238  171D  2F1A               	goto	u5467
  6239                           opt asmopt_on
  6240                           
  6241                           	line	618
  6242                           ;Effect.c: 618: for(int j = 1; j<7; j++)
  6243  171E  3001               	movlw	low(01h)
  6244  171F  1283               	bcf	status, 5	;RP0=0, select bank0
  6245  1720  1303               	bcf	status, 6	;RP1=0, select bank0
  6246  1721  00BC               	movwf	(expansion_box@j_3055)
  6247  1722  3000               	movlw	high(01h)
  6248  1723  00BD               	movwf	((expansion_box@j_3055))+1
  6249                           	
  6250  1724                     l6426:	
  6251  1724  083D               	movf	(expansion_box@j_3055+1),w
  6252  1725  3A80               	xorlw	80h
  6253  1726  00FF               	movwf	btemp+1
  6254  1727  3080               	movlw	(high(07h))^80h
  6255  1728  027F               	subwf	btemp+1,w
  6256  1729  1D03               	skipz
  6257  172A  2F2D               	goto	u4595
  6258  172B  3007               	movlw	low(07h)
  6259  172C  023C               	subwf	(expansion_box@j_3055),w
  6260  172D                     u4595:
  6261                           
  6262  172D  1C03               	skipc
  6263  172E  2F30               	goto	u4591
  6264  172F  2F31               	goto	u4590
  6265  1730                     u4591:
  6266  1730  2F33               	goto	l6430
  6267  1731                     u4590:
  6268  1731  2F59               	goto	l6436
  6269                           	
  6270  1732                     l6428:	
  6271  1732  2F59               	goto	l6436
  6272                           	line	619
  6273                           	
  6274  1733                     l2345:	
  6275                           	line	620
  6276                           	
  6277  1733                     l6430:	
  6278                           ;Effect.c: 619: {
  6279                           ;Effect.c: 620: show_pattern_on_a_plane(j,3,box_pattern);
  6280  1733  3003               	movlw	(03h)
  6281  1734  00F5               	movwf	(??_expansion_box+0)+0
  6282  1735  0875               	movf	(??_expansion_box+0)+0,w
  6283  1736  00F0               	movwf	(?_show_pattern_on_a_plane)
  6284  1737  3042               	movlw	(expansion_box@box_pattern)&0ffh
  6285  1738  00F6               	movwf	(??_expansion_box+1)+0
  6286  1739  0876               	movf	(??_expansion_box+1)+0,w
  6287  173A  00F1               	movwf	0+(?_show_pattern_on_a_plane)+01h
  6288  173B  1283               	bcf	status, 5	;RP0=0, select bank0
  6289  173C  1303               	bcf	status, 6	;RP1=0, select bank0
  6290  173D  083C               	movf	(expansion_box@j_3055),w
  6291  173E  160A  118A  2451   	fcall	_show_pattern_on_a_plane
              160A  118A         
  6292                           	line	618
  6293                           	
  6294  1743                     l6432:	
  6295  1743  3001               	movlw	low(01h)
  6296  1744  1283               	bcf	status, 5	;RP0=0, select bank0
  6297  1745  1303               	bcf	status, 6	;RP1=0, select bank0
  6298  1746  07BC               	addwf	(expansion_box@j_3055),f
  6299  1747  1803               	skipnc
  6300  1748  0ABD               	incf	(expansion_box@j_3055+1),f
  6301  1749  3000               	movlw	high(01h)
  6302  174A  07BD               	addwf	(expansion_box@j_3055+1),f
  6303                           	
  6304  174B                     l6434:	
  6305  174B  083D               	movf	(expansion_box@j_3055+1),w
  6306  174C  3A80               	xorlw	80h
  6307  174D  00FF               	movwf	btemp+1
  6308  174E  3080               	movlw	(high(07h))^80h
  6309  174F  027F               	subwf	btemp+1,w
  6310  1750  1D03               	skipz
  6311  1751  2F54               	goto	u4605
  6312  1752  3007               	movlw	low(07h)
  6313  1753  023C               	subwf	(expansion_box@j_3055),w
  6314  1754                     u4605:
  6315                           
  6316  1754  1C03               	skipc
  6317  1755  2F57               	goto	u4601
  6318  1756  2F58               	goto	u4600
  6319  1757                     u4601:
  6320  1757  2F33               	goto	l6430
  6321  1758                     u4600:
  6322  1758  2F59               	goto	l6436
  6323                           	
  6324  1759                     l2346:	
  6325                           	line	615
  6326                           	
  6327  1759                     l6436:	
  6328  1759  3001               	movlw	low(01h)
  6329  175A  1283               	bcf	status, 5	;RP0=0, select bank0
  6330  175B  1303               	bcf	status, 6	;RP1=0, select bank0
  6331  175C  07B4               	addwf	(expansion_box@i_3054),f
  6332  175D  1803               	skipnc
  6333  175E  0AB5               	incf	(expansion_box@i_3054+1),f
  6334  175F  3000               	movlw	high(01h)
  6335  1760  07B5               	addwf	(expansion_box@i_3054+1),f
  6336  1761  2F62               	goto	l6438
  6337                           	
  6338  1762                     l2343:	
  6339                           	
  6340  1762                     l6438:	
  6341  1762  0840               	movf	(expansion_box@time),w
  6342  1763  3EEC               	addlw	low(-20)
  6343  1764  00F5               	movwf	(??_expansion_box+0)+0
  6344  1765  0841               	movf	(expansion_box@time+1),w
  6345  1766  1803               	skipnc
  6346  1767  3E01               	addlw	1
  6347  1768  3EFF               	addlw	high(-20)
  6348  1769  00F6               	movwf	1+(??_expansion_box+0)+0
  6349  176A  0835               	movf	(expansion_box@i_3054+1),w
  6350  176B  3A80               	xorlw	80h
  6351  176C  00F7               	movwf	(??_expansion_box+2)+0
  6352  176D  0876               	movf	1+(??_expansion_box+0)+0,w
  6353  176E  3A80               	xorlw	80h
  6354  176F  0277               	subwf	(??_expansion_box+2)+0,w
  6355  1770  1D03               	skipz
  6356  1771  2F74               	goto	u4615
  6357  1772  0875               	movf	0+(??_expansion_box+0)+0,w
  6358  1773  0234               	subwf	(expansion_box@i_3054),w
  6359  1774                     u4615:
  6360                           
  6361  1774  1C03               	skipc
  6362  1775  2F77               	goto	u4611
  6363  1776  2F78               	goto	u4610
  6364  1777                     u4611:
  6365  1777  2F16               	goto	l6424
  6366  1778                     u4610:
  6367  1778  2F79               	goto	l6440
  6368                           	
  6369  1779                     l2347:	
  6370                           	line	624
  6371                           	
  6372  1779                     l6440:	
  6373                           ;Effect.c: 621: }
  6374                           ;Effect.c: 622: }
  6375                           ;Effect.c: 624: box_pattern[0] = 0xff;
  6376  1779  30FF               	movlw	(0FFh)
  6377  177A  00F5               	movwf	(??_expansion_box+0)+0
  6378  177B  0875               	movf	(??_expansion_box+0)+0,w
  6379  177C  1283               	bcf	status, 5	;RP0=0, select bank0
  6380  177D  1303               	bcf	status, 6	;RP1=0, select bank0
  6381  177E  00C2               	movwf	(expansion_box@box_pattern)
  6382                           	line	625
  6383                           ;Effect.c: 625: box_pattern[1] = 0xff;
  6384  177F  30FF               	movlw	(0FFh)
  6385  1780  00F5               	movwf	(??_expansion_box+0)+0
  6386  1781  0875               	movf	(??_expansion_box+0)+0,w
  6387  1782  00C3               	movwf	0+(expansion_box@box_pattern)+01h
  6388                           	line	626
  6389                           ;Effect.c: 626: box_pattern[2] = 0xff;
  6390  1783  30FF               	movlw	(0FFh)
  6391  1784  00F5               	movwf	(??_expansion_box+0)+0
  6392  1785  0875               	movf	(??_expansion_box+0)+0,w
  6393  1786  00C4               	movwf	0+(expansion_box@box_pattern)+02h
  6394                           	line	627
  6395                           ;Effect.c: 627: box_pattern[3] = 0xff;
  6396  1787  30FF               	movlw	(0FFh)
  6397  1788  00F5               	movwf	(??_expansion_box+0)+0
  6398  1789  0875               	movf	(??_expansion_box+0)+0,w
  6399  178A  00C5               	movwf	0+(expansion_box@box_pattern)+03h
  6400                           	line	628
  6401                           ;Effect.c: 628: box_pattern[4] = 0xff;
  6402  178B  30FF               	movlw	(0FFh)
  6403  178C  00F5               	movwf	(??_expansion_box+0)+0
  6404  178D  0875               	movf	(??_expansion_box+0)+0,w
  6405  178E  00C6               	movwf	0+(expansion_box@box_pattern)+04h
  6406                           	line	629
  6407                           ;Effect.c: 629: box_pattern[5] = 0xff;
  6408  178F  30FF               	movlw	(0FFh)
  6409  1790  00F5               	movwf	(??_expansion_box+0)+0
  6410  1791  0875               	movf	(??_expansion_box+0)+0,w
  6411  1792  00C7               	movwf	0+(expansion_box@box_pattern)+05h
  6412                           	line	630
  6413                           ;Effect.c: 630: box_pattern[6] = 0xff;
  6414  1793  30FF               	movlw	(0FFh)
  6415  1794  00F5               	movwf	(??_expansion_box+0)+0
  6416  1795  0875               	movf	(??_expansion_box+0)+0,w
  6417  1796  00C8               	movwf	0+(expansion_box@box_pattern)+06h
  6418                           	line	631
  6419                           ;Effect.c: 631: box_pattern[7] = 0xff;
  6420  1797  30FF               	movlw	(0FFh)
  6421  1798  00F5               	movwf	(??_expansion_box+0)+0
  6422  1799  0875               	movf	(??_expansion_box+0)+0,w
  6423  179A  00C9               	movwf	0+(expansion_box@box_pattern)+07h
  6424                           	line	633
  6425                           	
  6426  179B                     l6442:	
  6427                           ;Effect.c: 633: for(int i = 0; i<(time-30); i++)
  6428  179B  01B6               	clrf	(expansion_box@i_3056)
  6429  179C  01B7               	clrf	(expansion_box@i_3056+1)
  6430  179D  2FE8               	goto	l6460
  6431                           	line	634
  6432                           	
  6433  179E                     l2349:	
  6434                           	line	635
  6435                           	
  6436  179E                     l6444:	
  6437                           ;Effect.c: 634: {
  6438                           ;Effect.c: 635: _delay((unsigned long)((1)*(20000000/4000.0)));
  6439                           	opt asmopt_off
  6440  179E  3007               movlw	7
  6441  179F  00F6               movwf	((??_expansion_box+0)+0+1),f
  6442  17A0  307D               	movlw	125
  6443  17A1  00F5               movwf	((??_expansion_box+0)+0),f
  6444  17A2                     u5477:
  6445  17A2  0BF5               	decfsz	((??_expansion_box+0)+0),f
  6446  17A3  2FA2               	goto	u5477
  6447  17A4  0BF6               	decfsz	((??_expansion_box+0)+0+1),f
  6448  17A5  2FA2               	goto	u5477
  6449                           opt asmopt_on
  6450                           
  6451                           	line	636
  6452                           	
  6453  17A6                     l6446:	
  6454                           ;Effect.c: 636: for(int j = 0; j<8; j++)
  6455  17A6  1283               	bcf	status, 5	;RP0=0, select bank0
  6456  17A7  1303               	bcf	status, 6	;RP1=0, select bank0
  6457  17A8  01BE               	clrf	(expansion_box@j_3057)
  6458  17A9  01BF               	clrf	(expansion_box@j_3057+1)
  6459                           	
  6460  17AA                     l6448:	
  6461  17AA  083F               	movf	(expansion_box@j_3057+1),w
  6462  17AB  3A80               	xorlw	80h
  6463  17AC  00FF               	movwf	btemp+1
  6464  17AD  3080               	movlw	(high(08h))^80h
  6465  17AE  027F               	subwf	btemp+1,w
  6466  17AF  1D03               	skipz
  6467  17B0  2FB3               	goto	u4625
  6468  17B1  3008               	movlw	low(08h)
  6469  17B2  023E               	subwf	(expansion_box@j_3057),w
  6470  17B3                     u4625:
  6471                           
  6472  17B3  1C03               	skipc
  6473  17B4  2FB6               	goto	u4621
  6474  17B5  2FB7               	goto	u4620
  6475  17B6                     u4621:
  6476  17B6  2FB9               	goto	l6452
  6477  17B7                     u4620:
  6478  17B7  2FDF               	goto	l6458
  6479                           	
  6480  17B8                     l6450:	
  6481  17B8  2FDF               	goto	l6458
  6482                           	line	637
  6483                           	
  6484  17B9                     l2350:	
  6485                           	line	638
  6486                           	
  6487  17B9                     l6452:	
  6488                           ;Effect.c: 637: {
  6489                           ;Effect.c: 638: show_pattern_on_a_plane(j,3,box_pattern);
  6490  17B9  3003               	movlw	(03h)
  6491  17BA  00F5               	movwf	(??_expansion_box+0)+0
  6492  17BB  0875               	movf	(??_expansion_box+0)+0,w
  6493  17BC  00F0               	movwf	(?_show_pattern_on_a_plane)
  6494  17BD  3042               	movlw	(expansion_box@box_pattern)&0ffh
  6495  17BE  00F6               	movwf	(??_expansion_box+1)+0
  6496  17BF  0876               	movf	(??_expansion_box+1)+0,w
  6497  17C0  00F1               	movwf	0+(?_show_pattern_on_a_plane)+01h
  6498  17C1  1283               	bcf	status, 5	;RP0=0, select bank0
  6499  17C2  1303               	bcf	status, 6	;RP1=0, select bank0
  6500  17C3  083E               	movf	(expansion_box@j_3057),w
  6501  17C4  160A  118A  2451   	fcall	_show_pattern_on_a_plane
              160A  118A         
  6502                           	line	636
  6503                           	
  6504  17C9                     l6454:	
  6505  17C9  3001               	movlw	low(01h)
  6506  17CA  1283               	bcf	status, 5	;RP0=0, select bank0
  6507  17CB  1303               	bcf	status, 6	;RP1=0, select bank0
  6508  17CC  07BE               	addwf	(expansion_box@j_3057),f
  6509  17CD  1803               	skipnc
  6510  17CE  0ABF               	incf	(expansion_box@j_3057+1),f
  6511  17CF  3000               	movlw	high(01h)
  6512  17D0  07BF               	addwf	(expansion_box@j_3057+1),f
  6513                           	
  6514  17D1                     l6456:	
  6515  17D1  083F               	movf	(expansion_box@j_3057+1),w
  6516  17D2  3A80               	xorlw	80h
  6517  17D3  00FF               	movwf	btemp+1
  6518  17D4  3080               	movlw	(high(08h))^80h
  6519  17D5  027F               	subwf	btemp+1,w
  6520  17D6  1D03               	skipz
  6521  17D7  2FDA               	goto	u4635
  6522  17D8  3008               	movlw	low(08h)
  6523  17D9  023E               	subwf	(expansion_box@j_3057),w
  6524  17DA                     u4635:
  6525                           
  6526  17DA  1C03               	skipc
  6527  17DB  2FDD               	goto	u4631
  6528  17DC  2FDE               	goto	u4630
  6529  17DD                     u4631:
  6530  17DD  2FB9               	goto	l6452
  6531  17DE                     u4630:
  6532  17DE  2FDF               	goto	l6458
  6533                           	
  6534  17DF                     l2351:	
  6535                           	line	633
  6536                           	
  6537  17DF                     l6458:	
  6538  17DF  3001               	movlw	low(01h)
  6539  17E0  1283               	bcf	status, 5	;RP0=0, select bank0
  6540  17E1  1303               	bcf	status, 6	;RP1=0, select bank0
  6541  17E2  07B6               	addwf	(expansion_box@i_3056),f
  6542  17E3  1803               	skipnc
  6543  17E4  0AB7               	incf	(expansion_box@i_3056+1),f
  6544  17E5  3000               	movlw	high(01h)
  6545  17E6  07B7               	addwf	(expansion_box@i_3056+1),f
  6546  17E7  2FE8               	goto	l6460
  6547                           	
  6548  17E8                     l2348:	
  6549                           	
  6550  17E8                     l6460:	
  6551  17E8  0840               	movf	(expansion_box@time),w
  6552  17E9  3EE2               	addlw	low(-30)
  6553  17EA  00F5               	movwf	(??_expansion_box+0)+0
  6554  17EB  0841               	movf	(expansion_box@time+1),w
  6555  17EC  1803               	skipnc
  6556  17ED  3E01               	addlw	1
  6557  17EE  3EFF               	addlw	high(-30)
  6558  17EF  00F6               	movwf	1+(??_expansion_box+0)+0
  6559  17F0  0837               	movf	(expansion_box@i_3056+1),w
  6560  17F1  3A80               	xorlw	80h
  6561  17F2  00F7               	movwf	(??_expansion_box+2)+0
  6562  17F3  0876               	movf	1+(??_expansion_box+0)+0,w
  6563  17F4  3A80               	xorlw	80h
  6564  17F5  0277               	subwf	(??_expansion_box+2)+0,w
  6565  17F6  1D03               	skipz
  6566  17F7  2FFA               	goto	u4645
  6567  17F8  0875               	movf	0+(??_expansion_box+0)+0,w
  6568  17F9  0236               	subwf	(expansion_box@i_3056),w
  6569  17FA                     u4645:
  6570                           
  6571  17FA  1C03               	skipc
  6572  17FB  2FFD               	goto	u4641
  6573  17FC  2FFE               	goto	u4640
  6574  17FD                     u4641:
  6575  17FD  2F9E               	goto	l6444
  6576  17FE                     u4640:
  6577  17FE  2FFF               	goto	l2353
  6578                           	
  6579  17FF                     l2352:	
  6580                           	line	641
  6581                           	
  6582  17FF                     l2353:	
  6583  17FF  0008               	return
  6584                           	opt stack 0
  6585                           GLOBAL	__end_of_expansion_box
  6586  1800                     	__end_of_expansion_box:
  6587 ;; =============== function _expansion_box ends ============
  6588                           
  6589                           	signat	_expansion_box,88
  6590                           	global	_contraction_expansion_square_ri
  6591                           psect	text547,local,class=CODE,delta=2
  6592                           global __ptext547
  6593  0802                     __ptext547:
  6594                           
  6595 ;; *************** function _contraction_expansion_square_ri *****************
  6596 ;; Defined at:
  6597 ;;		line 363 in file "C:\Users\Younce\Desktop\LED Cube 8 x 8 x 8\Effect.c"
  6598 ;; Parameters:    Size  Location     Type
  6599 ;;		None
  6600 ;; Auto vars:     Size  Location     Type
  6601 ;;  i               2   16[BANK0 ] int 
  6602 ;;  square_ring_    8   18[BANK0 ] unsigned char [8]
  6603 ;; Return value:  Size  Location     Type
  6604 ;;		None               void
  6605 ;; Registers used:
  6606 ;;		wreg, fsr0l, fsr0h, status,2, status,0, btemp+1, pclath, cstack
  6607 ;; Tracked objects:
  6608 ;;		On entry : 0/0
  6609 ;;		On exit  : 0/0
  6610 ;;		Unchanged: 0/0
  6611 ;; Data sizes:     COMMON   BANK0   BANK1   BANK3   BANK2
  6612 ;;      Params:         0       0       0       0       0
  6613 ;;      Locals:         0      10       0       0       0
  6614 ;;      Temps:          4       0       0       0       0
  6615 ;;      Totals:         4      10       0       0       0
  6616 ;;Total ram usage:       14 bytes
  6617 ;; Hardware stack levels used:    1
  6618 ;; Hardware stack levels required when called:    1
  6619 ;; This function calls:
  6620 ;;		_show_pattern_on_a_plane
  6621 ;; This function is called by:
  6622 ;;		_main
  6623 ;; This function uses a non-reentrant model
  6624 ;;
  6625                           psect	text547
  6626                           	file	"C:\Users\Younce\Desktop\LED Cube 8 x 8 x 8\Effect.c"
  6627                           	line	363
  6628                           	global	__size_of_contraction_expansion_square_ri
  6629  01E1                     	__size_of_contraction_expansion_square_ri	equ	__end_of_contraction_expansion_square_ri-
                                 _contraction_expansion_square_ri
  6630                           	
  6631  0802                     _contraction_expansion_square_ri:	
  6632                           	opt	stack 6
  6633                           ; Regs used in _contraction_expansion_square_ri: [wreg-fsr0h+status,2+status,0+btemp+1+p
                                 clath+cstack]
  6634                           	line	364
  6635                           	
  6636  0802                     l6186:	
  6637                           ;Effect.c: 364: unsigned char square_ring_pattern[8] = {{0}};
  6638  0802  3032               	movlw	(contraction_expansion_square_ri@square_ring_pattern)&0ffh
  6639  0803  0084               	movwf	fsr0
  6640  0804  304C               	movlw	low(contraction_expansion_square_ri@F1168)
  6641  0805  00F5               	movwf	(??_contraction_expansion_square_ri+0)+0
  6642  0806  0804               	movf	fsr0,w
  6643  0807  00F6               	movwf	((??_contraction_expansion_square_ri+0)+0+1)
  6644  0808  3008               	movlw	8
  6645  0809  00F7               	movwf	((??_contraction_expansion_square_ri+0)+0+2)
  6646  080A                     u4490:
  6647  080A  0875               	movf	(??_contraction_expansion_square_ri+0)+0,w
  6648  080B  0084               	movwf	fsr0
  6649  080C  1383               	bcf	status, 7	;select IRP bank0
  6650                           	
  6651  080D  0800               	movf	indf,w
  6652  080E  00F8               	movwf	((??_contraction_expansion_square_ri+0)+0+3)
  6653  080F  0AF5               	incf	(??_contraction_expansion_square_ri+0)+0,f
  6654  0810  0876               	movf	((??_contraction_expansion_square_ri+0)+0+1),w
  6655  0811  0084               	movwf	fsr0
  6656                           	
  6657  0812  0878               	movf	((??_contraction_expansion_square_ri+0)+0+3),w
  6658  0813  0080               	movwf	indf
  6659  0814  0AF6               	incf	((??_contraction_expansion_square_ri+0)+0+1),f
  6660  0815  0BF7               	decfsz	((??_contraction_expansion_square_ri+0)+0+2),f
  6661  0816  280A               	goto	u4490
  6662                           	line	365
  6663                           	
  6664  0817                     l6188:	
  6665                           ;Effect.c: 365: square_ring_pattern[0] = 0xff;
  6666  0817  30FF               	movlw	(0FFh)
  6667  0818  00F5               	movwf	(??_contraction_expansion_square_ri+0)+0
  6668  0819  0875               	movf	(??_contraction_expansion_square_ri+0)+0,w
  6669  081A  1283               	bcf	status, 5	;RP0=0, select bank0
  6670  081B  1303               	bcf	status, 6	;RP1=0, select bank0
  6671  081C  00B2               	movwf	(contraction_expansion_square_ri@square_ring_pattern)
  6672                           	line	366
  6673                           	
  6674  081D                     l6190:	
  6675                           ;Effect.c: 366: square_ring_pattern[1] = 0x81;
  6676  081D  3081               	movlw	(081h)
  6677  081E  00F5               	movwf	(??_contraction_expansion_square_ri+0)+0
  6678  081F  0875               	movf	(??_contraction_expansion_square_ri+0)+0,w
  6679  0820  00B3               	movwf	0+(contraction_expansion_square_ri@square_ring_pattern)+01h
  6680                           	line	367
  6681                           	
  6682  0821                     l6192:	
  6683                           ;Effect.c: 367: square_ring_pattern[2] = 0x81;
  6684  0821  3081               	movlw	(081h)
  6685  0822  00F5               	movwf	(??_contraction_expansion_square_ri+0)+0
  6686  0823  0875               	movf	(??_contraction_expansion_square_ri+0)+0,w
  6687  0824  00B4               	movwf	0+(contraction_expansion_square_ri@square_ring_pattern)+02h
  6688                           	line	368
  6689                           	
  6690  0825                     l6194:	
  6691                           ;Effect.c: 368: square_ring_pattern[3] = 0x81;
  6692  0825  3081               	movlw	(081h)
  6693  0826  00F5               	movwf	(??_contraction_expansion_square_ri+0)+0
  6694  0827  0875               	movf	(??_contraction_expansion_square_ri+0)+0,w
  6695  0828  00B5               	movwf	0+(contraction_expansion_square_ri@square_ring_pattern)+03h
  6696                           	line	369
  6697                           	
  6698  0829                     l6196:	
  6699                           ;Effect.c: 369: square_ring_pattern[4] = 0x81;
  6700  0829  3081               	movlw	(081h)
  6701  082A  00F5               	movwf	(??_contraction_expansion_square_ri+0)+0
  6702  082B  0875               	movf	(??_contraction_expansion_square_ri+0)+0,w
  6703  082C  00B6               	movwf	0+(contraction_expansion_square_ri@square_ring_pattern)+04h
  6704                           	line	370
  6705                           	
  6706  082D                     l6198:	
  6707                           ;Effect.c: 370: square_ring_pattern[5] = 0x81;
  6708  082D  3081               	movlw	(081h)
  6709  082E  00F5               	movwf	(??_contraction_expansion_square_ri+0)+0
  6710  082F  0875               	movf	(??_contraction_expansion_square_ri+0)+0,w
  6711  0830  00B7               	movwf	0+(contraction_expansion_square_ri@square_ring_pattern)+05h
  6712                           	line	371
  6713                           	
  6714  0831                     l6200:	
  6715                           ;Effect.c: 371: square_ring_pattern[6] = 0x81;
  6716  0831  3081               	movlw	(081h)
  6717  0832  00F5               	movwf	(??_contraction_expansion_square_ri+0)+0
  6718  0833  0875               	movf	(??_contraction_expansion_square_ri+0)+0,w
  6719  0834  00B8               	movwf	0+(contraction_expansion_square_ri@square_ring_pattern)+06h
  6720                           	line	372
  6721                           	
  6722  0835                     l6202:	
  6723                           ;Effect.c: 372: square_ring_pattern[7] = 0xff;
  6724  0835  30FF               	movlw	(0FFh)
  6725  0836  00F5               	movwf	(??_contraction_expansion_square_ri+0)+0
  6726  0837  0875               	movf	(??_contraction_expansion_square_ri+0)+0,w
  6727  0838  00B9               	movwf	0+(contraction_expansion_square_ri@square_ring_pattern)+07h
  6728                           	line	374
  6729                           	
  6730  0839                     l6204:	
  6731                           ;Effect.c: 374: show_pattern_on_a_plane(0,3,square_ring_pattern);
  6732  0839  3003               	movlw	(03h)
  6733  083A  00F5               	movwf	(??_contraction_expansion_square_ri+0)+0
  6734  083B  0875               	movf	(??_contraction_expansion_square_ri+0)+0,w
  6735  083C  00F0               	movwf	(?_show_pattern_on_a_plane)
  6736  083D  3032               	movlw	(contraction_expansion_square_ri@square_ring_pattern)&0ffh
  6737  083E  00F6               	movwf	(??_contraction_expansion_square_ri+1)+0
  6738  083F  0876               	movf	(??_contraction_expansion_square_ri+1)+0,w
  6739  0840  00F1               	movwf	0+(?_show_pattern_on_a_plane)+01h
  6740  0841  3000               	movlw	(0)
  6741  0842  160A  118A  2451   	fcall	_show_pattern_on_a_plane
              120A  158A         
  6742                           	line	375
  6743                           	
  6744  0847                     l6206:	
  6745                           ;Effect.c: 375: _delay((unsigned long)((500)*(20000000/4000.0)));
  6746                           	opt asmopt_off
  6747  0847  300D               movlw  13
  6748  0848  00F7               movwf	((??_contraction_expansion_square_ri+0)+0+2),f
  6749  0849  30AF               movlw	175
  6750  084A  00F6               movwf	((??_contraction_expansion_square_ri+0)+0+1),f
  6751  084B  30C1               	movlw	193
  6752  084C  00F5               movwf	((??_contraction_expansion_square_ri+0)+0),f
  6753  084D                     u5487:
  6754  084D  0BF5               	decfsz	((??_contraction_expansion_square_ri+0)+0),f
  6755  084E  284D               	goto	u5487
  6756  084F  0BF6               	decfsz	((??_contraction_expansion_square_ri+0)+0+1),f
  6757  0850  284D               	goto	u5487
  6758  0851  0BF7               	decfsz	((??_contraction_expansion_square_ri+0)+0+2),f
  6759  0852  284D               	goto	u5487
  6760  0853  0064               	clrwdt
  6761                           opt asmopt_on
  6762                           
  6763                           	line	377
  6764                           	
  6765  0854                     l6208:	
  6766                           ;Effect.c: 377: square_ring_pattern[0] = 0x00;
  6767  0854  1283               	bcf	status, 5	;RP0=0, select bank0
  6768  0855  1303               	bcf	status, 6	;RP1=0, select bank0
  6769  0856  01B2               	clrf	(contraction_expansion_square_ri@square_ring_pattern)
  6770                           	line	378
  6771                           	
  6772  0857                     l6210:	
  6773                           ;Effect.c: 378: square_ring_pattern[1] = 0x7e;
  6774  0857  307E               	movlw	(07Eh)
  6775  0858  00F5               	movwf	(??_contraction_expansion_square_ri+0)+0
  6776  0859  0875               	movf	(??_contraction_expansion_square_ri+0)+0,w
  6777  085A  00B3               	movwf	0+(contraction_expansion_square_ri@square_ring_pattern)+01h
  6778                           	line	379
  6779                           	
  6780  085B                     l6212:	
  6781                           ;Effect.c: 379: square_ring_pattern[2] = 0x42;
  6782  085B  3042               	movlw	(042h)
  6783  085C  00F5               	movwf	(??_contraction_expansion_square_ri+0)+0
  6784  085D  0875               	movf	(??_contraction_expansion_square_ri+0)+0,w
  6785  085E  00B4               	movwf	0+(contraction_expansion_square_ri@square_ring_pattern)+02h
  6786                           	line	380
  6787                           	
  6788  085F                     l6214:	
  6789                           ;Effect.c: 380: square_ring_pattern[3] = 0x42;
  6790  085F  3042               	movlw	(042h)
  6791  0860  00F5               	movwf	(??_contraction_expansion_square_ri+0)+0
  6792  0861  0875               	movf	(??_contraction_expansion_square_ri+0)+0,w
  6793  0862  00B5               	movwf	0+(contraction_expansion_square_ri@square_ring_pattern)+03h
  6794                           	line	381
  6795                           	
  6796  0863                     l6216:	
  6797                           ;Effect.c: 381: square_ring_pattern[4] = 0x42;
  6798  0863  3042               	movlw	(042h)
  6799  0864  00F5               	movwf	(??_contraction_expansion_square_ri+0)+0
  6800  0865  0875               	movf	(??_contraction_expansion_square_ri+0)+0,w
  6801  0866  00B6               	movwf	0+(contraction_expansion_square_ri@square_ring_pattern)+04h
  6802                           	line	382
  6803                           	
  6804  0867                     l6218:	
  6805                           ;Effect.c: 382: square_ring_pattern[5] = 0x42;
  6806  0867  3042               	movlw	(042h)
  6807  0868  00F5               	movwf	(??_contraction_expansion_square_ri+0)+0
  6808  0869  0875               	movf	(??_contraction_expansion_square_ri+0)+0,w
  6809  086A  00B7               	movwf	0+(contraction_expansion_square_ri@square_ring_pattern)+05h
  6810                           	line	383
  6811                           	
  6812  086B                     l6220:	
  6813                           ;Effect.c: 383: square_ring_pattern[6] = 0x7e;
  6814  086B  307E               	movlw	(07Eh)
  6815  086C  00F5               	movwf	(??_contraction_expansion_square_ri+0)+0
  6816  086D  0875               	movf	(??_contraction_expansion_square_ri+0)+0,w
  6817  086E  00B8               	movwf	0+(contraction_expansion_square_ri@square_ring_pattern)+06h
  6818                           	line	384
  6819                           	
  6820  086F                     l6222:	
  6821                           ;Effect.c: 384: square_ring_pattern[7] = 0x00;
  6822  086F  01B9               	clrf	0+(contraction_expansion_square_ri@square_ring_pattern)+07h
  6823                           	line	386
  6824                           	
  6825  0870                     l6224:	
  6826                           ;Effect.c: 386: show_pattern_on_a_plane(1,3,square_ring_pattern);
  6827  0870  3003               	movlw	(03h)
  6828  0871  00F5               	movwf	(??_contraction_expansion_square_ri+0)+0
  6829  0872  0875               	movf	(??_contraction_expansion_square_ri+0)+0,w
  6830  0873  00F0               	movwf	(?_show_pattern_on_a_plane)
  6831  0874  3032               	movlw	(contraction_expansion_square_ri@square_ring_pattern)&0ffh
  6832  0875  00F6               	movwf	(??_contraction_expansion_square_ri+1)+0
  6833  0876  0876               	movf	(??_contraction_expansion_square_ri+1)+0,w
  6834  0877  00F1               	movwf	0+(?_show_pattern_on_a_plane)+01h
  6835  0878  3001               	movlw	(01h)
  6836  0879  160A  118A  2451   	fcall	_show_pattern_on_a_plane
              120A  158A         
  6837                           	line	387
  6838                           	
  6839  087E                     l6226:	
  6840                           ;Effect.c: 387: _delay((unsigned long)((500)*(20000000/4000.0)));
  6841                           	opt asmopt_off
  6842  087E  300D               movlw  13
  6843  087F  00F7               movwf	((??_contraction_expansion_square_ri+0)+0+2),f
  6844  0880  30AF               movlw	175
  6845  0881  00F6               movwf	((??_contraction_expansion_square_ri+0)+0+1),f
  6846  0882  30C1               	movlw	193
  6847  0883  00F5               movwf	((??_contraction_expansion_square_ri+0)+0),f
  6848  0884                     u5497:
  6849  0884  0BF5               	decfsz	((??_contraction_expansion_square_ri+0)+0),f
  6850  0885  2884               	goto	u5497
  6851  0886  0BF6               	decfsz	((??_contraction_expansion_square_ri+0)+0+1),f
  6852  0887  2884               	goto	u5497
  6853  0888  0BF7               	decfsz	((??_contraction_expansion_square_ri+0)+0+2),f
  6854  0889  2884               	goto	u5497
  6855  088A  0064               	clrwdt
  6856                           opt asmopt_on
  6857                           
  6858                           	line	391
  6859                           	
  6860  088B                     l6228:	
  6861                           ;Effect.c: 391: square_ring_pattern[0] = 0x00;
  6862  088B  1283               	bcf	status, 5	;RP0=0, select bank0
  6863  088C  1303               	bcf	status, 6	;RP1=0, select bank0
  6864  088D  01B2               	clrf	(contraction_expansion_square_ri@square_ring_pattern)
  6865                           	line	392
  6866                           	
  6867  088E                     l6230:	
  6868                           ;Effect.c: 392: square_ring_pattern[1] = 0x00;
  6869  088E  01B3               	clrf	0+(contraction_expansion_square_ri@square_ring_pattern)+01h
  6870                           	line	393
  6871                           	
  6872  088F                     l6232:	
  6873                           ;Effect.c: 393: square_ring_pattern[2] = 0x3c;
  6874  088F  303C               	movlw	(03Ch)
  6875  0890  00F5               	movwf	(??_contraction_expansion_square_ri+0)+0
  6876  0891  0875               	movf	(??_contraction_expansion_square_ri+0)+0,w
  6877  0892  00B4               	movwf	0+(contraction_expansion_square_ri@square_ring_pattern)+02h
  6878                           	line	394
  6879                           	
  6880  0893                     l6234:	
  6881                           ;Effect.c: 394: square_ring_pattern[3] = 0x24;
  6882  0893  3024               	movlw	(024h)
  6883  0894  00F5               	movwf	(??_contraction_expansion_square_ri+0)+0
  6884  0895  0875               	movf	(??_contraction_expansion_square_ri+0)+0,w
  6885  0896  00B5               	movwf	0+(contraction_expansion_square_ri@square_ring_pattern)+03h
  6886                           	line	395
  6887                           	
  6888  0897                     l6236:	
  6889                           ;Effect.c: 395: square_ring_pattern[4] = 0x24;
  6890  0897  3024               	movlw	(024h)
  6891  0898  00F5               	movwf	(??_contraction_expansion_square_ri+0)+0
  6892  0899  0875               	movf	(??_contraction_expansion_square_ri+0)+0,w
  6893  089A  00B6               	movwf	0+(contraction_expansion_square_ri@square_ring_pattern)+04h
  6894                           	line	396
  6895                           	
  6896  089B                     l6238:	
  6897                           ;Effect.c: 396: square_ring_pattern[5] = 0x3c;
  6898  089B  303C               	movlw	(03Ch)
  6899  089C  00F5               	movwf	(??_contraction_expansion_square_ri+0)+0
  6900  089D  0875               	movf	(??_contraction_expansion_square_ri+0)+0,w
  6901  089E  00B7               	movwf	0+(contraction_expansion_square_ri@square_ring_pattern)+05h
  6902                           	line	397
  6903                           	
  6904  089F                     l6240:	
  6905                           ;Effect.c: 397: square_ring_pattern[6] = 0x00;
  6906  089F  01B8               	clrf	0+(contraction_expansion_square_ri@square_ring_pattern)+06h
  6907                           	line	398
  6908                           	
  6909  08A0                     l6242:	
  6910                           ;Effect.c: 398: square_ring_pattern[7] = 0x00;
  6911  08A0  01B9               	clrf	0+(contraction_expansion_square_ri@square_ring_pattern)+07h
  6912                           	line	400
  6913                           	
  6914  08A1                     l6244:	
  6915                           ;Effect.c: 400: show_pattern_on_a_plane(2,3,square_ring_pattern);
  6916  08A1  3003               	movlw	(03h)
  6917  08A2  00F5               	movwf	(??_contraction_expansion_square_ri+0)+0
  6918  08A3  0875               	movf	(??_contraction_expansion_square_ri+0)+0,w
  6919  08A4  00F0               	movwf	(?_show_pattern_on_a_plane)
  6920  08A5  3032               	movlw	(contraction_expansion_square_ri@square_ring_pattern)&0ffh
  6921  08A6  00F6               	movwf	(??_contraction_expansion_square_ri+1)+0
  6922  08A7  0876               	movf	(??_contraction_expansion_square_ri+1)+0,w
  6923  08A8  00F1               	movwf	0+(?_show_pattern_on_a_plane)+01h
  6924  08A9  3002               	movlw	(02h)
  6925  08AA  160A  118A  2451   	fcall	_show_pattern_on_a_plane
              120A  158A         
  6926                           	line	401
  6927                           	
  6928  08AF                     l6246:	
  6929                           ;Effect.c: 401: _delay((unsigned long)((500)*(20000000/4000.0)));
  6930                           	opt asmopt_off
  6931  08AF  300D               movlw  13
  6932  08B0  00F7               movwf	((??_contraction_expansion_square_ri+0)+0+2),f
  6933  08B1  30AF               movlw	175
  6934  08B2  00F6               movwf	((??_contraction_expansion_square_ri+0)+0+1),f
  6935  08B3  30C1               	movlw	193
  6936  08B4  00F5               movwf	((??_contraction_expansion_square_ri+0)+0),f
  6937  08B5                     u5507:
  6938  08B5  0BF5               	decfsz	((??_contraction_expansion_square_ri+0)+0),f
  6939  08B6  28B5               	goto	u5507
  6940  08B7  0BF6               	decfsz	((??_contraction_expansion_square_ri+0)+0+1),f
  6941  08B8  28B5               	goto	u5507
  6942  08B9  0BF7               	decfsz	((??_contraction_expansion_square_ri+0)+0+2),f
  6943  08BA  28B5               	goto	u5507
  6944  08BB  0064               	clrwdt
  6945                           opt asmopt_on
  6946                           
  6947                           	line	405
  6948                           	
  6949  08BC                     l6248:	
  6950                           ;Effect.c: 405: square_ring_pattern[0] = 0x00;
  6951  08BC  1283               	bcf	status, 5	;RP0=0, select bank0
  6952  08BD  1303               	bcf	status, 6	;RP1=0, select bank0
  6953  08BE  01B2               	clrf	(contraction_expansion_square_ri@square_ring_pattern)
  6954                           	line	406
  6955                           	
  6956  08BF                     l6250:	
  6957                           ;Effect.c: 406: square_ring_pattern[1] = 0x00;
  6958  08BF  01B3               	clrf	0+(contraction_expansion_square_ri@square_ring_pattern)+01h
  6959                           	line	407
  6960                           	
  6961  08C0                     l6252:	
  6962                           ;Effect.c: 407: square_ring_pattern[2] = 0x00;
  6963  08C0  01B4               	clrf	0+(contraction_expansion_square_ri@square_ring_pattern)+02h
  6964                           	line	408
  6965                           	
  6966  08C1                     l6254:	
  6967                           ;Effect.c: 408: square_ring_pattern[3] = 0x18;
  6968  08C1  3018               	movlw	(018h)
  6969  08C2  00F5               	movwf	(??_contraction_expansion_square_ri+0)+0
  6970  08C3  0875               	movf	(??_contraction_expansion_square_ri+0)+0,w
  6971  08C4  00B5               	movwf	0+(contraction_expansion_square_ri@square_ring_pattern)+03h
  6972                           	line	409
  6973                           	
  6974  08C5                     l6256:	
  6975                           ;Effect.c: 409: square_ring_pattern[4] = 0x18;
  6976  08C5  3018               	movlw	(018h)
  6977  08C6  00F5               	movwf	(??_contraction_expansion_square_ri+0)+0
  6978  08C7  0875               	movf	(??_contraction_expansion_square_ri+0)+0,w
  6979  08C8  00B6               	movwf	0+(contraction_expansion_square_ri@square_ring_pattern)+04h
  6980                           	line	410
  6981                           	
  6982  08C9                     l6258:	
  6983                           ;Effect.c: 410: square_ring_pattern[5] = 0x00;
  6984  08C9  01B7               	clrf	0+(contraction_expansion_square_ri@square_ring_pattern)+05h
  6985                           	line	411
  6986                           	
  6987  08CA                     l6260:	
  6988                           ;Effect.c: 411: square_ring_pattern[6] = 0x00;
  6989  08CA  01B8               	clrf	0+(contraction_expansion_square_ri@square_ring_pattern)+06h
  6990                           	line	412
  6991                           	
  6992  08CB                     l6262:	
  6993                           ;Effect.c: 412: square_ring_pattern[7] = 0x00;
  6994  08CB  01B9               	clrf	0+(contraction_expansion_square_ri@square_ring_pattern)+07h
  6995                           	line	414
  6996                           	
  6997  08CC                     l6264:	
  6998                           ;Effect.c: 414: show_pattern_on_a_plane(3,3,square_ring_pattern);
  6999  08CC  3003               	movlw	(03h)
  7000  08CD  00F5               	movwf	(??_contraction_expansion_square_ri+0)+0
  7001  08CE  0875               	movf	(??_contraction_expansion_square_ri+0)+0,w
  7002  08CF  00F0               	movwf	(?_show_pattern_on_a_plane)
  7003  08D0  3032               	movlw	(contraction_expansion_square_ri@square_ring_pattern)&0ffh
  7004  08D1  00F6               	movwf	(??_contraction_expansion_square_ri+1)+0
  7005  08D2  0876               	movf	(??_contraction_expansion_square_ri+1)+0,w
  7006  08D3  00F1               	movwf	0+(?_show_pattern_on_a_plane)+01h
  7007  08D4  3003               	movlw	(03h)
  7008  08D5  160A  118A  2451   	fcall	_show_pattern_on_a_plane
              120A  158A         
  7009                           	line	415
  7010                           	
  7011  08DA                     l6266:	
  7012                           ;Effect.c: 415: _delay((unsigned long)((500)*(20000000/4000.0)));
  7013                           	opt asmopt_off
  7014  08DA  300D               movlw  13
  7015  08DB  00F7               movwf	((??_contraction_expansion_square_ri+0)+0+2),f
  7016  08DC  30AF               movlw	175
  7017  08DD  00F6               movwf	((??_contraction_expansion_square_ri+0)+0+1),f
  7018  08DE  30C1               	movlw	193
  7019  08DF  00F5               movwf	((??_contraction_expansion_square_ri+0)+0),f
  7020  08E0                     u5517:
  7021  08E0  0BF5               	decfsz	((??_contraction_expansion_square_ri+0)+0),f
  7022  08E1  28E0               	goto	u5517
  7023  08E2  0BF6               	decfsz	((??_contraction_expansion_square_ri+0)+0+1),f
  7024  08E3  28E0               	goto	u5517
  7025  08E4  0BF7               	decfsz	((??_contraction_expansion_square_ri+0)+0+2),f
  7026  08E5  28E0               	goto	u5517
  7027  08E6  0064               	clrwdt
  7028                           opt asmopt_on
  7029                           
  7030                           	line	419
  7031                           	
  7032  08E7                     l6268:	
  7033                           ;Effect.c: 419: square_ring_pattern[0] = 0x00;
  7034  08E7  1283               	bcf	status, 5	;RP0=0, select bank0
  7035  08E8  1303               	bcf	status, 6	;RP1=0, select bank0
  7036  08E9  01B2               	clrf	(contraction_expansion_square_ri@square_ring_pattern)
  7037                           	line	420
  7038                           	
  7039  08EA                     l6270:	
  7040                           ;Effect.c: 420: square_ring_pattern[1] = 0x00;
  7041  08EA  01B3               	clrf	0+(contraction_expansion_square_ri@square_ring_pattern)+01h
  7042                           	line	421
  7043                           	
  7044  08EB                     l6272:	
  7045                           ;Effect.c: 421: square_ring_pattern[2] = 0x00;
  7046  08EB  01B4               	clrf	0+(contraction_expansion_square_ri@square_ring_pattern)+02h
  7047                           	line	422
  7048                           	
  7049  08EC                     l6274:	
  7050                           ;Effect.c: 422: square_ring_pattern[3] = 0x18;
  7051  08EC  3018               	movlw	(018h)
  7052  08ED  00F5               	movwf	(??_contraction_expansion_square_ri+0)+0
  7053  08EE  0875               	movf	(??_contraction_expansion_square_ri+0)+0,w
  7054  08EF  00B5               	movwf	0+(contraction_expansion_square_ri@square_ring_pattern)+03h
  7055                           	line	423
  7056                           	
  7057  08F0                     l6276:	
  7058                           ;Effect.c: 423: square_ring_pattern[4] = 0x18;
  7059  08F0  3018               	movlw	(018h)
  7060  08F1  00F5               	movwf	(??_contraction_expansion_square_ri+0)+0
  7061  08F2  0875               	movf	(??_contraction_expansion_square_ri+0)+0,w
  7062  08F3  00B6               	movwf	0+(contraction_expansion_square_ri@square_ring_pattern)+04h
  7063                           	line	424
  7064                           	
  7065  08F4                     l6278:	
  7066                           ;Effect.c: 424: square_ring_pattern[5] = 0x00;
  7067  08F4  01B7               	clrf	0+(contraction_expansion_square_ri@square_ring_pattern)+05h
  7068                           	line	425
  7069                           	
  7070  08F5                     l6280:	
  7071                           ;Effect.c: 425: square_ring_pattern[6] = 0x00;
  7072  08F5  01B8               	clrf	0+(contraction_expansion_square_ri@square_ring_pattern)+06h
  7073                           	line	426
  7074                           	
  7075  08F6                     l6282:	
  7076                           ;Effect.c: 426: square_ring_pattern[7] = 0x00;
  7077  08F6  01B9               	clrf	0+(contraction_expansion_square_ri@square_ring_pattern)+07h
  7078                           	line	428
  7079                           	
  7080  08F7                     l6284:	
  7081                           ;Effect.c: 428: show_pattern_on_a_plane(4,3,square_ring_pattern);
  7082  08F7  3003               	movlw	(03h)
  7083  08F8  00F5               	movwf	(??_contraction_expansion_square_ri+0)+0
  7084  08F9  0875               	movf	(??_contraction_expansion_square_ri+0)+0,w
  7085  08FA  00F0               	movwf	(?_show_pattern_on_a_plane)
  7086  08FB  3032               	movlw	(contraction_expansion_square_ri@square_ring_pattern)&0ffh
  7087  08FC  00F6               	movwf	(??_contraction_expansion_square_ri+1)+0
  7088  08FD  0876               	movf	(??_contraction_expansion_square_ri+1)+0,w
  7089  08FE  00F1               	movwf	0+(?_show_pattern_on_a_plane)+01h
  7090  08FF  3004               	movlw	(04h)
  7091  0900  160A  118A  2451   	fcall	_show_pattern_on_a_plane
              120A  158A         
  7092                           	line	429
  7093                           	
  7094  0905                     l6286:	
  7095                           ;Effect.c: 429: _delay((unsigned long)((500)*(20000000/4000.0)));
  7096                           	opt asmopt_off
  7097  0905  300D               movlw  13
  7098  0906  00F7               movwf	((??_contraction_expansion_square_ri+0)+0+2),f
  7099  0907  30AF               movlw	175
  7100  0908  00F6               movwf	((??_contraction_expansion_square_ri+0)+0+1),f
  7101  0909  30C1               	movlw	193
  7102  090A  00F5               movwf	((??_contraction_expansion_square_ri+0)+0),f
  7103  090B                     u5527:
  7104  090B  0BF5               	decfsz	((??_contraction_expansion_square_ri+0)+0),f
  7105  090C  290B               	goto	u5527
  7106  090D  0BF6               	decfsz	((??_contraction_expansion_square_ri+0)+0+1),f
  7107  090E  290B               	goto	u5527
  7108  090F  0BF7               	decfsz	((??_contraction_expansion_square_ri+0)+0+2),f
  7109  0910  290B               	goto	u5527
  7110  0911  0064               	clrwdt
  7111                           opt asmopt_on
  7112                           
  7113                           	line	432
  7114                           	
  7115  0912                     l6288:	
  7116                           ;Effect.c: 432: square_ring_pattern[0] = 0x00;
  7117  0912  1283               	bcf	status, 5	;RP0=0, select bank0
  7118  0913  1303               	bcf	status, 6	;RP1=0, select bank0
  7119  0914  01B2               	clrf	(contraction_expansion_square_ri@square_ring_pattern)
  7120                           	line	433
  7121                           	
  7122  0915                     l6290:	
  7123                           ;Effect.c: 433: square_ring_pattern[1] = 0x00;
  7124  0915  01B3               	clrf	0+(contraction_expansion_square_ri@square_ring_pattern)+01h
  7125                           	line	434
  7126                           	
  7127  0916                     l6292:	
  7128                           ;Effect.c: 434: square_ring_pattern[2] = 0x3c;
  7129  0916  303C               	movlw	(03Ch)
  7130  0917  00F5               	movwf	(??_contraction_expansion_square_ri+0)+0
  7131  0918  0875               	movf	(??_contraction_expansion_square_ri+0)+0,w
  7132  0919  00B4               	movwf	0+(contraction_expansion_square_ri@square_ring_pattern)+02h
  7133                           	line	435
  7134                           	
  7135  091A                     l6294:	
  7136                           ;Effect.c: 435: square_ring_pattern[3] = 0x24;
  7137  091A  3024               	movlw	(024h)
  7138  091B  00F5               	movwf	(??_contraction_expansion_square_ri+0)+0
  7139  091C  0875               	movf	(??_contraction_expansion_square_ri+0)+0,w
  7140  091D  00B5               	movwf	0+(contraction_expansion_square_ri@square_ring_pattern)+03h
  7141                           	line	436
  7142                           	
  7143  091E                     l6296:	
  7144                           ;Effect.c: 436: square_ring_pattern[4] = 0x24;
  7145  091E  3024               	movlw	(024h)
  7146  091F  00F5               	movwf	(??_contraction_expansion_square_ri+0)+0
  7147  0920  0875               	movf	(??_contraction_expansion_square_ri+0)+0,w
  7148  0921  00B6               	movwf	0+(contraction_expansion_square_ri@square_ring_pattern)+04h
  7149                           	line	437
  7150                           	
  7151  0922                     l6298:	
  7152                           ;Effect.c: 437: square_ring_pattern[5] = 0x3c;
  7153  0922  303C               	movlw	(03Ch)
  7154  0923  00F5               	movwf	(??_contraction_expansion_square_ri+0)+0
  7155  0924  0875               	movf	(??_contraction_expansion_square_ri+0)+0,w
  7156  0925  00B7               	movwf	0+(contraction_expansion_square_ri@square_ring_pattern)+05h
  7157                           	line	438
  7158                           	
  7159  0926                     l6300:	
  7160                           ;Effect.c: 438: square_ring_pattern[6] = 0x00;
  7161  0926  01B8               	clrf	0+(contraction_expansion_square_ri@square_ring_pattern)+06h
  7162                           	line	439
  7163                           	
  7164  0927                     l6302:	
  7165                           ;Effect.c: 439: square_ring_pattern[7] = 0x00;
  7166  0927  01B9               	clrf	0+(contraction_expansion_square_ri@square_ring_pattern)+07h
  7167                           	line	441
  7168                           	
  7169  0928                     l6304:	
  7170                           ;Effect.c: 441: show_pattern_on_a_plane(5,3,square_ring_pattern);
  7171  0928  3003               	movlw	(03h)
  7172  0929  00F5               	movwf	(??_contraction_expansion_square_ri+0)+0
  7173  092A  0875               	movf	(??_contraction_expansion_square_ri+0)+0,w
  7174  092B  00F0               	movwf	(?_show_pattern_on_a_plane)
  7175  092C  3032               	movlw	(contraction_expansion_square_ri@square_ring_pattern)&0ffh
  7176  092D  00F6               	movwf	(??_contraction_expansion_square_ri+1)+0
  7177  092E  0876               	movf	(??_contraction_expansion_square_ri+1)+0,w
  7178  092F  00F1               	movwf	0+(?_show_pattern_on_a_plane)+01h
  7179  0930  3005               	movlw	(05h)
  7180  0931  160A  118A  2451   	fcall	_show_pattern_on_a_plane
              120A  158A         
  7181                           	line	442
  7182                           	
  7183  0936                     l6306:	
  7184                           ;Effect.c: 442: _delay((unsigned long)((500)*(20000000/4000.0)));
  7185                           	opt asmopt_off
  7186  0936  300D               movlw  13
  7187  0937  00F7               movwf	((??_contraction_expansion_square_ri+0)+0+2),f
  7188  0938  30AF               movlw	175
  7189  0939  00F6               movwf	((??_contraction_expansion_square_ri+0)+0+1),f
  7190  093A  30C1               	movlw	193
  7191  093B  00F5               movwf	((??_contraction_expansion_square_ri+0)+0),f
  7192  093C                     u5537:
  7193  093C  0BF5               	decfsz	((??_contraction_expansion_square_ri+0)+0),f
  7194  093D  293C               	goto	u5537
  7195  093E  0BF6               	decfsz	((??_contraction_expansion_square_ri+0)+0+1),f
  7196  093F  293C               	goto	u5537
  7197  0940  0BF7               	decfsz	((??_contraction_expansion_square_ri+0)+0+2),f
  7198  0941  293C               	goto	u5537
  7199  0942  0064               	clrwdt
  7200                           opt asmopt_on
  7201                           
  7202                           	line	446
  7203                           	
  7204  0943                     l6308:	
  7205                           ;Effect.c: 446: square_ring_pattern[0] = 0x00;
  7206  0943  1283               	bcf	status, 5	;RP0=0, select bank0
  7207  0944  1303               	bcf	status, 6	;RP1=0, select bank0
  7208  0945  01B2               	clrf	(contraction_expansion_square_ri@square_ring_pattern)
  7209                           	line	447
  7210                           	
  7211  0946                     l6310:	
  7212                           ;Effect.c: 447: square_ring_pattern[1] = 0x7e;
  7213  0946  307E               	movlw	(07Eh)
  7214  0947  00F5               	movwf	(??_contraction_expansion_square_ri+0)+0
  7215  0948  0875               	movf	(??_contraction_expansion_square_ri+0)+0,w
  7216  0949  00B3               	movwf	0+(contraction_expansion_square_ri@square_ring_pattern)+01h
  7217                           	line	448
  7218                           	
  7219  094A                     l6312:	
  7220                           ;Effect.c: 448: square_ring_pattern[2] = 0x42;
  7221  094A  3042               	movlw	(042h)
  7222  094B  00F5               	movwf	(??_contraction_expansion_square_ri+0)+0
  7223  094C  0875               	movf	(??_contraction_expansion_square_ri+0)+0,w
  7224  094D  00B4               	movwf	0+(contraction_expansion_square_ri@square_ring_pattern)+02h
  7225                           	line	449
  7226                           	
  7227  094E                     l6314:	
  7228                           ;Effect.c: 449: square_ring_pattern[3] = 0x42;
  7229  094E  3042               	movlw	(042h)
  7230  094F  00F5               	movwf	(??_contraction_expansion_square_ri+0)+0
  7231  0950  0875               	movf	(??_contraction_expansion_square_ri+0)+0,w
  7232  0951  00B5               	movwf	0+(contraction_expansion_square_ri@square_ring_pattern)+03h
  7233                           	line	450
  7234                           	
  7235  0952                     l6316:	
  7236                           ;Effect.c: 450: square_ring_pattern[4] = 0x42;
  7237  0952  3042               	movlw	(042h)
  7238  0953  00F5               	movwf	(??_contraction_expansion_square_ri+0)+0
  7239  0954  0875               	movf	(??_contraction_expansion_square_ri+0)+0,w
  7240  0955  00B6               	movwf	0+(contraction_expansion_square_ri@square_ring_pattern)+04h
  7241                           	line	451
  7242                           	
  7243  0956                     l6318:	
  7244                           ;Effect.c: 451: square_ring_pattern[5] = 0x42;
  7245  0956  3042               	movlw	(042h)
  7246  0957  00F5               	movwf	(??_contraction_expansion_square_ri+0)+0
  7247  0958  0875               	movf	(??_contraction_expansion_square_ri+0)+0,w
  7248  0959  00B7               	movwf	0+(contraction_expansion_square_ri@square_ring_pattern)+05h
  7249                           	line	452
  7250                           	
  7251  095A                     l6320:	
  7252                           ;Effect.c: 452: square_ring_pattern[6] = 0x7e;
  7253  095A  307E               	movlw	(07Eh)
  7254  095B  00F5               	movwf	(??_contraction_expansion_square_ri+0)+0
  7255  095C  0875               	movf	(??_contraction_expansion_square_ri+0)+0,w
  7256  095D  00B8               	movwf	0+(contraction_expansion_square_ri@square_ring_pattern)+06h
  7257                           	line	453
  7258                           	
  7259  095E                     l6322:	
  7260                           ;Effect.c: 453: square_ring_pattern[7] = 0x00;
  7261  095E  01B9               	clrf	0+(contraction_expansion_square_ri@square_ring_pattern)+07h
  7262                           	line	455
  7263                           	
  7264  095F                     l6324:	
  7265                           ;Effect.c: 455: show_pattern_on_a_plane(6,3,square_ring_pattern);
  7266  095F  3003               	movlw	(03h)
  7267  0960  00F5               	movwf	(??_contraction_expansion_square_ri+0)+0
  7268  0961  0875               	movf	(??_contraction_expansion_square_ri+0)+0,w
  7269  0962  00F0               	movwf	(?_show_pattern_on_a_plane)
  7270  0963  3032               	movlw	(contraction_expansion_square_ri@square_ring_pattern)&0ffh
  7271  0964  00F6               	movwf	(??_contraction_expansion_square_ri+1)+0
  7272  0965  0876               	movf	(??_contraction_expansion_square_ri+1)+0,w
  7273  0966  00F1               	movwf	0+(?_show_pattern_on_a_plane)+01h
  7274  0967  3006               	movlw	(06h)
  7275  0968  160A  118A  2451   	fcall	_show_pattern_on_a_plane
              120A  158A         
  7276                           	line	456
  7277                           	
  7278  096D                     l6326:	
  7279                           ;Effect.c: 456: _delay((unsigned long)((500)*(20000000/4000.0)));
  7280                           	opt asmopt_off
  7281  096D  300D               movlw  13
  7282  096E  00F7               movwf	((??_contraction_expansion_square_ri+0)+0+2),f
  7283  096F  30AF               movlw	175
  7284  0970  00F6               movwf	((??_contraction_expansion_square_ri+0)+0+1),f
  7285  0971  30C1               	movlw	193
  7286  0972  00F5               movwf	((??_contraction_expansion_square_ri+0)+0),f
  7287  0973                     u5547:
  7288  0973  0BF5               	decfsz	((??_contraction_expansion_square_ri+0)+0),f
  7289  0974  2973               	goto	u5547
  7290  0975  0BF6               	decfsz	((??_contraction_expansion_square_ri+0)+0+1),f
  7291  0976  2973               	goto	u5547
  7292  0977  0BF7               	decfsz	((??_contraction_expansion_square_ri+0)+0+2),f
  7293  0978  2973               	goto	u5547
  7294  0979  0064               	clrwdt
  7295                           opt asmopt_on
  7296                           
  7297                           	line	460
  7298                           	
  7299  097A                     l6328:	
  7300                           ;Effect.c: 460: square_ring_pattern[0] = 0xff;
  7301  097A  30FF               	movlw	(0FFh)
  7302  097B  00F5               	movwf	(??_contraction_expansion_square_ri+0)+0
  7303  097C  0875               	movf	(??_contraction_expansion_square_ri+0)+0,w
  7304  097D  1283               	bcf	status, 5	;RP0=0, select bank0
  7305  097E  1303               	bcf	status, 6	;RP1=0, select bank0
  7306  097F  00B2               	movwf	(contraction_expansion_square_ri@square_ring_pattern)
  7307                           	line	461
  7308                           	
  7309  0980                     l6330:	
  7310                           ;Effect.c: 461: square_ring_pattern[1] = 0x81;
  7311  0980  3081               	movlw	(081h)
  7312  0981  00F5               	movwf	(??_contraction_expansion_square_ri+0)+0
  7313  0982  0875               	movf	(??_contraction_expansion_square_ri+0)+0,w
  7314  0983  00B3               	movwf	0+(contraction_expansion_square_ri@square_ring_pattern)+01h
  7315                           	line	462
  7316                           	
  7317  0984                     l6332:	
  7318                           ;Effect.c: 462: square_ring_pattern[2] = 0x81;
  7319  0984  3081               	movlw	(081h)
  7320  0985  00F5               	movwf	(??_contraction_expansion_square_ri+0)+0
  7321  0986  0875               	movf	(??_contraction_expansion_square_ri+0)+0,w
  7322  0987  00B4               	movwf	0+(contraction_expansion_square_ri@square_ring_pattern)+02h
  7323                           	line	463
  7324                           	
  7325  0988                     l6334:	
  7326                           ;Effect.c: 463: square_ring_pattern[3] = 0x81;
  7327  0988  3081               	movlw	(081h)
  7328  0989  00F5               	movwf	(??_contraction_expansion_square_ri+0)+0
  7329  098A  0875               	movf	(??_contraction_expansion_square_ri+0)+0,w
  7330  098B  00B5               	movwf	0+(contraction_expansion_square_ri@square_ring_pattern)+03h
  7331                           	line	464
  7332                           	
  7333  098C                     l6336:	
  7334                           ;Effect.c: 464: square_ring_pattern[4] = 0x81;
  7335  098C  3081               	movlw	(081h)
  7336  098D  00F5               	movwf	(??_contraction_expansion_square_ri+0)+0
  7337  098E  0875               	movf	(??_contraction_expansion_square_ri+0)+0,w
  7338  098F  00B6               	movwf	0+(contraction_expansion_square_ri@square_ring_pattern)+04h
  7339                           	line	465
  7340                           	
  7341  0990                     l6338:	
  7342                           ;Effect.c: 465: square_ring_pattern[5] = 0x81;
  7343  0990  3081               	movlw	(081h)
  7344  0991  00F5               	movwf	(??_contraction_expansion_square_ri+0)+0
  7345  0992  0875               	movf	(??_contraction_expansion_square_ri+0)+0,w
  7346  0993  00B7               	movwf	0+(contraction_expansion_square_ri@square_ring_pattern)+05h
  7347                           	line	466
  7348                           	
  7349  0994                     l6340:	
  7350                           ;Effect.c: 466: square_ring_pattern[6] = 0x81;
  7351  0994  3081               	movlw	(081h)
  7352  0995  00F5               	movwf	(??_contraction_expansion_square_ri+0)+0
  7353  0996  0875               	movf	(??_contraction_expansion_square_ri+0)+0,w
  7354  0997  00B8               	movwf	0+(contraction_expansion_square_ri@square_ring_pattern)+06h
  7355                           	line	467
  7356                           	
  7357  0998                     l6342:	
  7358                           ;Effect.c: 467: square_ring_pattern[7] = 0xff;
  7359  0998  30FF               	movlw	(0FFh)
  7360  0999  00F5               	movwf	(??_contraction_expansion_square_ri+0)+0
  7361  099A  0875               	movf	(??_contraction_expansion_square_ri+0)+0,w
  7362  099B  00B9               	movwf	0+(contraction_expansion_square_ri@square_ring_pattern)+07h
  7363                           	line	469
  7364                           	
  7365  099C                     l6344:	
  7366                           ;Effect.c: 469: for(int i = 7; i>=1; i--)
  7367  099C  3007               	movlw	low(07h)
  7368  099D  00B0               	movwf	(contraction_expansion_square_ri@i)
  7369  099E  3000               	movlw	high(07h)
  7370  099F  00B1               	movwf	((contraction_expansion_square_ri@i))+1
  7371                           	
  7372  09A0                     l6346:	
  7373  09A0  0831               	movf	(contraction_expansion_square_ri@i+1),w
  7374  09A1  3A80               	xorlw	80h
  7375  09A2  00FF               	movwf	btemp+1
  7376  09A3  3080               	movlw	(high(01h))^80h
  7377  09A4  027F               	subwf	btemp+1,w
  7378  09A5  1D03               	skipz
  7379  09A6  29A9               	goto	u4505
  7380  09A7  3001               	movlw	low(01h)
  7381  09A8  0230               	subwf	(contraction_expansion_square_ri@i),w
  7382  09A9                     u4505:
  7383                           
  7384  09A9  1803               	skipnc
  7385  09AA  29AC               	goto	u4501
  7386  09AB  29AD               	goto	u4500
  7387  09AC                     u4501:
  7388  09AC  29AF               	goto	l6350
  7389  09AD                     u4500:
  7390  09AD  29E2               	goto	l2300
  7391                           	
  7392  09AE                     l6348:	
  7393  09AE  29E2               	goto	l2300
  7394                           	line	470
  7395                           	
  7396  09AF                     l2298:	
  7397                           	line	471
  7398                           	
  7399  09AF                     l6350:	
  7400                           ;Effect.c: 470: {
  7401                           ;Effect.c: 471: show_pattern_on_a_plane(i,3,square_ring_pattern);
  7402  09AF  3003               	movlw	(03h)
  7403  09B0  00F5               	movwf	(??_contraction_expansion_square_ri+0)+0
  7404  09B1  0875               	movf	(??_contraction_expansion_square_ri+0)+0,w
  7405  09B2  00F0               	movwf	(?_show_pattern_on_a_plane)
  7406  09B3  3032               	movlw	(contraction_expansion_square_ri@square_ring_pattern)&0ffh
  7407  09B4  00F6               	movwf	(??_contraction_expansion_square_ri+1)+0
  7408  09B5  0876               	movf	(??_contraction_expansion_square_ri+1)+0,w
  7409  09B6  00F1               	movwf	0+(?_show_pattern_on_a_plane)+01h
  7410  09B7  1283               	bcf	status, 5	;RP0=0, select bank0
  7411  09B8  1303               	bcf	status, 6	;RP1=0, select bank0
  7412  09B9  0830               	movf	(contraction_expansion_square_ri@i),w
  7413  09BA  160A  118A  2451   	fcall	_show_pattern_on_a_plane
              120A  158A         
  7414                           	line	472
  7415                           	
  7416  09BF                     l6352:	
  7417                           ;Effect.c: 472: _delay((unsigned long)((500)*(20000000/4000.0)));
  7418                           	opt asmopt_off
  7419  09BF  300D               movlw  13
  7420  09C0  00F7               movwf	((??_contraction_expansion_square_ri+0)+0+2),f
  7421  09C1  30AF               movlw	175
  7422  09C2  00F6               movwf	((??_contraction_expansion_square_ri+0)+0+1),f
  7423  09C3  30C1               	movlw	193
  7424  09C4  00F5               movwf	((??_contraction_expansion_square_ri+0)+0),f
  7425  09C5                     u5557:
  7426  09C5  0BF5               	decfsz	((??_contraction_expansion_square_ri+0)+0),f
  7427  09C6  29C5               	goto	u5557
  7428  09C7  0BF6               	decfsz	((??_contraction_expansion_square_ri+0)+0+1),f
  7429  09C8  29C5               	goto	u5557
  7430  09C9  0BF7               	decfsz	((??_contraction_expansion_square_ri+0)+0+2),f
  7431  09CA  29C5               	goto	u5557
  7432  09CB  0064               	clrwdt
  7433                           opt asmopt_on
  7434                           
  7435                           	line	469
  7436                           	
  7437  09CC                     l6354:	
  7438  09CC  30FF               	movlw	low(-1)
  7439  09CD  1283               	bcf	status, 5	;RP0=0, select bank0
  7440  09CE  1303               	bcf	status, 6	;RP1=0, select bank0
  7441  09CF  07B0               	addwf	(contraction_expansion_square_ri@i),f
  7442  09D0  1803               	skipnc
  7443  09D1  0AB1               	incf	(contraction_expansion_square_ri@i+1),f
  7444  09D2  30FF               	movlw	high(-1)
  7445  09D3  07B1               	addwf	(contraction_expansion_square_ri@i+1),f
  7446                           	
  7447  09D4                     l6356:	
  7448  09D4  0831               	movf	(contraction_expansion_square_ri@i+1),w
  7449  09D5  3A80               	xorlw	80h
  7450  09D6  00FF               	movwf	btemp+1
  7451  09D7  3080               	movlw	(high(01h))^80h
  7452  09D8  027F               	subwf	btemp+1,w
  7453  09D9  1D03               	skipz
  7454  09DA  29DD               	goto	u4515
  7455  09DB  3001               	movlw	low(01h)
  7456  09DC  0230               	subwf	(contraction_expansion_square_ri@i),w
  7457  09DD                     u4515:
  7458                           
  7459  09DD  1803               	skipnc
  7460  09DE  29E0               	goto	u4511
  7461  09DF  29E1               	goto	u4510
  7462  09E0                     u4511:
  7463  09E0  29AF               	goto	l6350
  7464  09E1                     u4510:
  7465  09E1  29E2               	goto	l2300
  7466                           	
  7467  09E2                     l2299:	
  7468                           	line	474
  7469                           	
  7470  09E2                     l2300:	
  7471  09E2  0008               	return
  7472                           	opt stack 0
  7473                           GLOBAL	__end_of_contraction_expansion_square_ri
  7474  09E3                     	__end_of_contraction_expansion_square_ri:
  7475 ;; =============== function _contraction_expansion_square_ri ends ============
  7476                           
  7477                           	signat	_contraction_expansion_square_ri,88
  7478                           	global	_flying_character_of_a_word
  7479                           psect	text548,local,class=CODE,delta=2
  7480                           global __ptext548
  7481  106D                     __ptext548:
  7482                           
  7483 ;; *************** function _flying_character_of_a_word *****************
  7484 ;; Defined at:
  7485 ;;		line 349 in file "C:\Users\Younce\Desktop\LED Cube 8 x 8 x 8\Effect.c"
  7486 ;; Parameters:    Size  Location     Type
  7487 ;;  word            1    wreg     PTR unsigned char 
  7488 ;;		 -> STR_1(7), 
  7489 ;; Auto vars:     Size  Location     Type
  7490 ;;  word            1   16[BANK0 ] PTR unsigned char 
  7491 ;;		 -> STR_1(7), 
  7492 ;;  j               2   19[BANK0 ] int 
  7493 ;;  i               2   17[BANK0 ] int 
  7494 ;;  alphabet_pat    8   21[BANK0 ] unsigned char [8]
  7495 ;; Return value:  Size  Location     Type
  7496 ;;		None               void
  7497 ;; Registers used:
  7498 ;;		wreg, fsr0l, fsr0h, status,2, status,0, btemp+1, pclath, cstack
  7499 ;; Tracked objects:
  7500 ;;		On entry : 0/0
  7501 ;;		On exit  : 0/0
  7502 ;;		Unchanged: 0/0
  7503 ;; Data sizes:     COMMON   BANK0   BANK1   BANK3   BANK2
  7504 ;;      Params:         0       0       0       0       0
  7505 ;;      Locals:         0      13       0       0       0
  7506 ;;      Temps:          4       0       0       0       0
  7507 ;;      Totals:         4      13       0       0       0
  7508 ;;Total ram usage:       17 bytes
  7509 ;; Hardware stack levels used:    1
  7510 ;; Hardware stack levels required when called:    1
  7511 ;; This function calls:
  7512 ;;		_choose_alphabet
  7513 ;;		_show_pattern_on_a_plane
  7514 ;; This function is called by:
  7515 ;;		_main
  7516 ;; This function uses a non-reentrant model
  7517 ;;
  7518                           psect	text548
  7519                           	file	"C:\Users\Younce\Desktop\LED Cube 8 x 8 x 8\Effect.c"
  7520                           	line	349
  7521                           	global	__size_of_flying_character_of_a_word
  7522  008A                     	__size_of_flying_character_of_a_word	equ	__end_of_flying_character_of_a_word-_flying_ch
                                 aracter_of_a_word
  7523                           	
  7524  106D                     _flying_character_of_a_word:	
  7525                           	opt	stack 6
  7526                           ; Regs used in _flying_character_of_a_word: [wreg-fsr0h+status,2+status,0+btemp+1+pclath
                                 +cstack]
  7527                           ;flying_character_of_a_word@word stored from wreg
  7528                           	line	350
  7529  106D  1283               	bcf	status, 5	;RP0=0, select bank0
  7530  106E  1303               	bcf	status, 6	;RP1=0, select bank0
  7531  106F  00B0               	movwf	(flying_character_of_a_word@word)
  7532                           	
  7533  1070                     l6162:	
  7534                           ;Effect.c: 350: unsigned char alphabet_pattern[8] = {{0}};
  7535  1070  3035               	movlw	(flying_character_of_a_word@alphabet_pattern)&0ffh
  7536  1071  0084               	movwf	fsr0
  7537  1072  305C               	movlw	low(flying_character_of_a_word@F1162)
  7538  1073  00F5               	movwf	(??_flying_character_of_a_word+0)+0
  7539  1074  0804               	movf	fsr0,w
  7540  1075  00F6               	movwf	((??_flying_character_of_a_word+0)+0+1)
  7541  1076  3008               	movlw	8
  7542  1077  00F7               	movwf	((??_flying_character_of_a_word+0)+0+2)
  7543  1078                     u4450:
  7544  1078  0875               	movf	(??_flying_character_of_a_word+0)+0,w
  7545  1079  0084               	movwf	fsr0
  7546  107A  1383               	bcf	status, 7	;select IRP bank0
  7547                           	
  7548  107B  0800               	movf	indf,w
  7549  107C  00F8               	movwf	((??_flying_character_of_a_word+0)+0+3)
  7550  107D  0AF5               	incf	(??_flying_character_of_a_word+0)+0,f
  7551  107E  0876               	movf	((??_flying_character_of_a_word+0)+0+1),w
  7552  107F  0084               	movwf	fsr0
  7553                           	
  7554  1080  0878               	movf	((??_flying_character_of_a_word+0)+0+3),w
  7555  1081  0080               	movwf	indf
  7556  1082  0AF6               	incf	((??_flying_character_of_a_word+0)+0+1),f
  7557  1083  0BF7               	decfsz	((??_flying_character_of_a_word+0)+0+2),f
  7558  1084  2878               	goto	u4450
  7559                           	line	351
  7560                           	
  7561  1085                     l6164:	
  7562                           ;Effect.c: 351: for(int i = 0; word[i] != '\0'; i++)
  7563  1085  01B1               	clrf	(flying_character_of_a_word@i)
  7564  1086  01B2               	clrf	(flying_character_of_a_word@i+1)
  7565  1087  28E8               	goto	l6184
  7566                           	line	352
  7567                           	
  7568  1088                     l2289:	
  7569                           	line	353
  7570                           	
  7571  1088                     l6166:	
  7572                           ;Effect.c: 352: {
  7573                           ;Effect.c: 353: choose_alphabet(word[i],alphabet_pattern);
  7574  1088  3035               	movlw	(flying_character_of_a_word@alphabet_pattern)&0ffh
  7575  1089  00F5               	movwf	(??_flying_character_of_a_word+0)+0
  7576  108A  0875               	movf	(??_flying_character_of_a_word+0)+0,w
  7577  108B  00F0               	movwf	(?_choose_alphabet)
  7578  108C  0831               	movf	(flying_character_of_a_word@i),w
  7579  108D  0730               	addwf	(flying_character_of_a_word@word),w
  7580  108E  0084               	movwf	fsr0
  7581  108F  120A  118A  2003   	fcall	stringdir
              160A  118A         
  7582  1094  120A  158A  21E3   	fcall	_choose_alphabet
              160A  118A         
  7583                           	line	354
  7584                           	
  7585  1099                     l6168:	
  7586                           ;Effect.c: 354: for(int j = 0; j<8; j++)
  7587  1099  1283               	bcf	status, 5	;RP0=0, select bank0
  7588  109A  1303               	bcf	status, 6	;RP1=0, select bank0
  7589  109B  01B3               	clrf	(flying_character_of_a_word@j)
  7590  109C  01B4               	clrf	(flying_character_of_a_word@j+1)
  7591                           	
  7592  109D                     l6170:	
  7593  109D  0834               	movf	(flying_character_of_a_word@j+1),w
  7594  109E  3A80               	xorlw	80h
  7595  109F  00FF               	movwf	btemp+1
  7596  10A0  3080               	movlw	(high(08h))^80h
  7597  10A1  027F               	subwf	btemp+1,w
  7598  10A2  1D03               	skipz
  7599  10A3  28A6               	goto	u4465
  7600  10A4  3008               	movlw	low(08h)
  7601  10A5  0233               	subwf	(flying_character_of_a_word@j),w
  7602  10A6                     u4465:
  7603                           
  7604  10A6  1C03               	skipc
  7605  10A7  28A9               	goto	u4461
  7606  10A8  28AA               	goto	u4460
  7607  10A9                     u4461:
  7608  10A9  28AC               	goto	l6174
  7609  10AA                     u4460:
  7610  10AA  28DF               	goto	l6182
  7611                           	
  7612  10AB                     l6172:	
  7613  10AB  28DF               	goto	l6182
  7614                           	line	355
  7615                           	
  7616  10AC                     l2290:	
  7617                           	line	356
  7618                           	
  7619  10AC                     l6174:	
  7620                           ;Effect.c: 355: {
  7621                           ;Effect.c: 356: show_pattern_on_a_plane(j,3,alphabet_pattern);
  7622  10AC  3003               	movlw	(03h)
  7623  10AD  00F5               	movwf	(??_flying_character_of_a_word+0)+0
  7624  10AE  0875               	movf	(??_flying_character_of_a_word+0)+0,w
  7625  10AF  00F0               	movwf	(?_show_pattern_on_a_plane)
  7626  10B0  3035               	movlw	(flying_character_of_a_word@alphabet_pattern)&0ffh
  7627  10B1  00F6               	movwf	(??_flying_character_of_a_word+1)+0
  7628  10B2  0876               	movf	(??_flying_character_of_a_word+1)+0,w
  7629  10B3  00F1               	movwf	0+(?_show_pattern_on_a_plane)+01h
  7630  10B4  1283               	bcf	status, 5	;RP0=0, select bank0
  7631  10B5  1303               	bcf	status, 6	;RP1=0, select bank0
  7632  10B6  0833               	movf	(flying_character_of_a_word@j),w
  7633  10B7  160A  118A  2451   	fcall	_show_pattern_on_a_plane
              160A  118A         
  7634                           	line	357
  7635                           	
  7636  10BC                     l6176:	
  7637                           ;Effect.c: 357: _delay((unsigned long)((100)*(20000000/4000.0)));
  7638                           	opt asmopt_off
  7639  10BC  3003               movlw  3
  7640  10BD  00F7               movwf	((??_flying_character_of_a_word+0)+0+2),f
  7641  10BE  308A               movlw	138
  7642  10BF  00F6               movwf	((??_flying_character_of_a_word+0)+0+1),f
  7643  10C0  3056               	movlw	86
  7644  10C1  00F5               movwf	((??_flying_character_of_a_word+0)+0),f
  7645  10C2                     u5567:
  7646  10C2  0BF5               	decfsz	((??_flying_character_of_a_word+0)+0),f
  7647  10C3  28C2               	goto	u5567
  7648  10C4  0BF6               	decfsz	((??_flying_character_of_a_word+0)+0+1),f
  7649  10C5  28C2               	goto	u5567
  7650  10C6  0BF7               	decfsz	((??_flying_character_of_a_word+0)+0+2),f
  7651  10C7  28C2               	goto	u5567
  7652  10C8  28C9               	nop2
  7653                           opt asmopt_on
  7654                           
  7655                           	line	354
  7656                           	
  7657  10C9                     l6178:	
  7658  10C9  3001               	movlw	low(01h)
  7659  10CA  1283               	bcf	status, 5	;RP0=0, select bank0
  7660  10CB  1303               	bcf	status, 6	;RP1=0, select bank0
  7661  10CC  07B3               	addwf	(flying_character_of_a_word@j),f
  7662  10CD  1803               	skipnc
  7663  10CE  0AB4               	incf	(flying_character_of_a_word@j+1),f
  7664  10CF  3000               	movlw	high(01h)
  7665  10D0  07B4               	addwf	(flying_character_of_a_word@j+1),f
  7666                           	
  7667  10D1                     l6180:	
  7668  10D1  0834               	movf	(flying_character_of_a_word@j+1),w
  7669  10D2  3A80               	xorlw	80h
  7670  10D3  00FF               	movwf	btemp+1
  7671  10D4  3080               	movlw	(high(08h))^80h
  7672  10D5  027F               	subwf	btemp+1,w
  7673  10D6  1D03               	skipz
  7674  10D7  28DA               	goto	u4475
  7675  10D8  3008               	movlw	low(08h)
  7676  10D9  0233               	subwf	(flying_character_of_a_word@j),w
  7677  10DA                     u4475:
  7678                           
  7679  10DA  1C03               	skipc
  7680  10DB  28DD               	goto	u4471
  7681  10DC  28DE               	goto	u4470
  7682  10DD                     u4471:
  7683  10DD  28AC               	goto	l6174
  7684  10DE                     u4470:
  7685  10DE  28DF               	goto	l6182
  7686                           	
  7687  10DF                     l2291:	
  7688                           	line	351
  7689                           	
  7690  10DF                     l6182:	
  7691  10DF  3001               	movlw	low(01h)
  7692  10E0  1283               	bcf	status, 5	;RP0=0, select bank0
  7693  10E1  1303               	bcf	status, 6	;RP1=0, select bank0
  7694  10E2  07B1               	addwf	(flying_character_of_a_word@i),f
  7695  10E3  1803               	skipnc
  7696  10E4  0AB2               	incf	(flying_character_of_a_word@i+1),f
  7697  10E5  3000               	movlw	high(01h)
  7698  10E6  07B2               	addwf	(flying_character_of_a_word@i+1),f
  7699  10E7  28E8               	goto	l6184
  7700                           	
  7701  10E8                     l2288:	
  7702                           	
  7703  10E8                     l6184:	
  7704  10E8  0831               	movf	(flying_character_of_a_word@i),w
  7705  10E9  0730               	addwf	(flying_character_of_a_word@word),w
  7706  10EA  0084               	movwf	fsr0
  7707  10EB  120A  118A  2003   	fcall	stringdir
              160A  118A         
  7708  10F0  3800               	iorlw	0
  7709  10F1  1D03               	skipz
  7710  10F2  28F4               	goto	u4481
  7711  10F3  28F5               	goto	u4480
  7712  10F4                     u4481:
  7713  10F4  2888               	goto	l6166
  7714  10F5                     u4480:
  7715  10F5  28F6               	goto	l2293
  7716                           	
  7717  10F6                     l2292:	
  7718                           	line	360
  7719                           	
  7720  10F6                     l2293:	
  7721  10F6  0008               	return
  7722                           	opt stack 0
  7723                           GLOBAL	__end_of_flying_character_of_a_word
  7724  10F7                     	__end_of_flying_character_of_a_word:
  7725 ;; =============== function _flying_character_of_a_word ends ============
  7726                           
  7727                           	signat	_flying_character_of_a_word,4216
  7728                           	global	_plane_bottom_to_top
  7729                           psect	text549,local,class=CODE,delta=2
  7730                           global __ptext549
  7731  1F87                     __ptext549:
  7732                           
  7733 ;; *************** function _plane_bottom_to_top *****************
  7734 ;; Defined at:
  7735 ;;		line 37 in file "C:\Users\Younce\Desktop\LED Cube 8 x 8 x 8\Effect.c"
  7736 ;; Parameters:    Size  Location     Type
  7737 ;;		None
  7738 ;; Auto vars:     Size  Location     Type
  7739 ;;  i               2    8[BANK0 ] int 
  7740 ;;  i               2    6[BANK0 ] int 
  7741 ;; Return value:  Size  Location     Type
  7742 ;;		None               void
  7743 ;; Registers used:
  7744 ;;		wreg, status,2, status,0, btemp+1, pclath, cstack
  7745 ;; Tracked objects:
  7746 ;;		On entry : 0/0
  7747 ;;		On exit  : 0/0
  7748 ;;		Unchanged: 0/0
  7749 ;; Data sizes:     COMMON   BANK0   BANK1   BANK3   BANK2
  7750 ;;      Params:         0       0       0       0       0
  7751 ;;      Locals:         0       4       0       0       0
  7752 ;;      Temps:          0       1       0       0       0
  7753 ;;      Totals:         0       5       0       0       0
  7754 ;;Total ram usage:        5 bytes
  7755 ;; Hardware stack levels used:    1
  7756 ;; Hardware stack levels required when called:    2
  7757 ;; This function calls:
  7758 ;;		_set_a_plane
  7759 ;;		_delay_using_adc
  7760 ;; This function is called by:
  7761 ;;		_main
  7762 ;; This function uses a non-reentrant model
  7763 ;;
  7764                           psect	text549
  7765                           	file	"C:\Users\Younce\Desktop\LED Cube 8 x 8 x 8\Effect.c"
  7766                           	line	37
  7767                           	global	__size_of_plane_bottom_to_top
  7768  0079                     	__size_of_plane_bottom_to_top	equ	__end_of_plane_bottom_to_top-_plane_bottom_to_top
  7769                           	
  7770  1F87                     _plane_bottom_to_top:	
  7771                           	opt	stack 5
  7772                           ; Regs used in _plane_bottom_to_top: [wreg+status,2+status,0+btemp+1+pclath+cstack]
  7773                           	line	38
  7774                           	
  7775  1F87                     l6138:	
  7776                           ;Effect.c: 38: for(int i = 0; i<8; i++)
  7777  1F87  1283               	bcf	status, 5	;RP0=0, select bank0
  7778  1F88  1303               	bcf	status, 6	;RP1=0, select bank0
  7779  1F89  01A6               	clrf	(plane_bottom_to_top@i)
  7780  1F8A  01A7               	clrf	(plane_bottom_to_top@i+1)
  7781                           	
  7782  1F8B                     l6140:	
  7783  1F8B  0827               	movf	(plane_bottom_to_top@i+1),w
  7784  1F8C  3A80               	xorlw	80h
  7785  1F8D  00FF               	movwf	btemp+1
  7786  1F8E  3080               	movlw	(high(08h))^80h
  7787  1F8F  027F               	subwf	btemp+1,w
  7788  1F90  1D03               	skipz
  7789  1F91  2F94               	goto	u4415
  7790  1F92  3008               	movlw	low(08h)
  7791  1F93  0226               	subwf	(plane_bottom_to_top@i),w
  7792  1F94                     u4415:
  7793                           
  7794  1F94  1C03               	skipc
  7795  1F95  2F97               	goto	u4411
  7796  1F96  2F98               	goto	u4410
  7797  1F97                     u4411:
  7798  1F97  2F9A               	goto	l6144
  7799  1F98                     u4410:
  7800  1F98  2FC2               	goto	l6150
  7801                           	
  7802  1F99                     l6142:	
  7803  1F99  2FC2               	goto	l6150
  7804                           	line	39
  7805                           	
  7806  1F9A                     l2227:	
  7807                           	line	40
  7808                           	
  7809  1F9A                     l6144:	
  7810                           ;Effect.c: 39: {
  7811                           ;Effect.c: 40: set_a_plane(i,3);
  7812  1F9A  3003               	movlw	(03h)
  7813  1F9B  1283               	bcf	status, 5	;RP0=0, select bank0
  7814  1F9C  1303               	bcf	status, 6	;RP1=0, select bank0
  7815  1F9D  00A5               	movwf	(??_plane_bottom_to_top+0)+0
  7816  1F9E  0825               	movf	(??_plane_bottom_to_top+0)+0,w
  7817  1F9F  00F0               	movwf	(?_set_a_plane)
  7818  1FA0  0826               	movf	(plane_bottom_to_top@i),w
  7819  1FA1  160A  118A  21DB   	fcall	_set_a_plane
              160A  158A         
  7820                           	line	41
  7821                           ;Effect.c: 41: delay_using_adc(10);
  7822  1FA6  300A               	movlw	(0Ah)
  7823  1FA7  120A  118A  2013   	fcall	_delay_using_adc
              160A  158A         
  7824                           	line	38
  7825                           	
  7826  1FAC                     l6146:	
  7827  1FAC  3001               	movlw	low(01h)
  7828  1FAD  1283               	bcf	status, 5	;RP0=0, select bank0
  7829  1FAE  1303               	bcf	status, 6	;RP1=0, select bank0
  7830  1FAF  07A6               	addwf	(plane_bottom_to_top@i),f
  7831  1FB0  1803               	skipnc
  7832  1FB1  0AA7               	incf	(plane_bottom_to_top@i+1),f
  7833  1FB2  3000               	movlw	high(01h)
  7834  1FB3  07A7               	addwf	(plane_bottom_to_top@i+1),f
  7835                           	
  7836  1FB4                     l6148:	
  7837  1FB4  0827               	movf	(plane_bottom_to_top@i+1),w
  7838  1FB5  3A80               	xorlw	80h
  7839  1FB6  00FF               	movwf	btemp+1
  7840  1FB7  3080               	movlw	(high(08h))^80h
  7841  1FB8  027F               	subwf	btemp+1,w
  7842  1FB9  1D03               	skipz
  7843  1FBA  2FBD               	goto	u4425
  7844  1FBB  3008               	movlw	low(08h)
  7845  1FBC  0226               	subwf	(plane_bottom_to_top@i),w
  7846  1FBD                     u4425:
  7847                           
  7848  1FBD  1C03               	skipc
  7849  1FBE  2FC0               	goto	u4421
  7850  1FBF  2FC1               	goto	u4420
  7851  1FC0                     u4421:
  7852  1FC0  2F9A               	goto	l6144
  7853  1FC1                     u4420:
  7854  1FC1  2FC2               	goto	l6150
  7855                           	
  7856  1FC2                     l2228:	
  7857                           	line	44
  7858                           	
  7859  1FC2                     l6150:	
  7860                           ;Effect.c: 42: }
  7861                           ;Effect.c: 44: for(int i = 7; i>0; i--)
  7862  1FC2  3007               	movlw	low(07h)
  7863  1FC3  1283               	bcf	status, 5	;RP0=0, select bank0
  7864  1FC4  1303               	bcf	status, 6	;RP1=0, select bank0
  7865  1FC5  00A8               	movwf	(plane_bottom_to_top@i_3015)
  7866  1FC6  3000               	movlw	high(07h)
  7867  1FC7  00A9               	movwf	((plane_bottom_to_top@i_3015))+1
  7868                           	
  7869  1FC8                     l6152:	
  7870  1FC8  0829               	movf	(plane_bottom_to_top@i_3015+1),w
  7871  1FC9  3A80               	xorlw	80h
  7872  1FCA  00FF               	movwf	btemp+1
  7873  1FCB  3080               	movlw	(high(01h))^80h
  7874  1FCC  027F               	subwf	btemp+1,w
  7875  1FCD  1D03               	skipz
  7876  1FCE  2FD1               	goto	u4435
  7877  1FCF  3001               	movlw	low(01h)
  7878  1FD0  0228               	subwf	(plane_bottom_to_top@i_3015),w
  7879  1FD1                     u4435:
  7880                           
  7881  1FD1  1803               	skipnc
  7882  1FD2  2FD4               	goto	u4431
  7883  1FD3  2FD5               	goto	u4430
  7884  1FD4                     u4431:
  7885  1FD4  2FD7               	goto	l6156
  7886  1FD5                     u4430:
  7887  1FD5  2FFF               	goto	l2231
  7888                           	
  7889  1FD6                     l6154:	
  7890  1FD6  2FFF               	goto	l2231
  7891                           	line	45
  7892                           	
  7893  1FD7                     l2229:	
  7894                           	line	46
  7895                           	
  7896  1FD7                     l6156:	
  7897                           ;Effect.c: 45: {
  7898                           ;Effect.c: 46: set_a_plane(i,3);
  7899  1FD7  3003               	movlw	(03h)
  7900  1FD8  1283               	bcf	status, 5	;RP0=0, select bank0
  7901  1FD9  1303               	bcf	status, 6	;RP1=0, select bank0
  7902  1FDA  00A5               	movwf	(??_plane_bottom_to_top+0)+0
  7903  1FDB  0825               	movf	(??_plane_bottom_to_top+0)+0,w
  7904  1FDC  00F0               	movwf	(?_set_a_plane)
  7905  1FDD  0828               	movf	(plane_bottom_to_top@i_3015),w
  7906  1FDE  160A  118A  21DB   	fcall	_set_a_plane
              160A  158A         
  7907                           	line	47
  7908                           ;Effect.c: 47: delay_using_adc(10);
  7909  1FE3  300A               	movlw	(0Ah)
  7910  1FE4  120A  118A  2013   	fcall	_delay_using_adc
              160A  158A         
  7911                           	line	44
  7912                           	
  7913  1FE9                     l6158:	
  7914  1FE9  30FF               	movlw	low(-1)
  7915  1FEA  1283               	bcf	status, 5	;RP0=0, select bank0
  7916  1FEB  1303               	bcf	status, 6	;RP1=0, select bank0
  7917  1FEC  07A8               	addwf	(plane_bottom_to_top@i_3015),f
  7918  1FED  1803               	skipnc
  7919  1FEE  0AA9               	incf	(plane_bottom_to_top@i_3015+1),f
  7920  1FEF  30FF               	movlw	high(-1)
  7921  1FF0  07A9               	addwf	(plane_bottom_to_top@i_3015+1),f
  7922                           	
  7923  1FF1                     l6160:	
  7924  1FF1  0829               	movf	(plane_bottom_to_top@i_3015+1),w
  7925  1FF2  3A80               	xorlw	80h
  7926  1FF3  00FF               	movwf	btemp+1
  7927  1FF4  3080               	movlw	(high(01h))^80h
  7928  1FF5  027F               	subwf	btemp+1,w
  7929  1FF6  1D03               	skipz
  7930  1FF7  2FFA               	goto	u4445
  7931  1FF8  3001               	movlw	low(01h)
  7932  1FF9  0228               	subwf	(plane_bottom_to_top@i_3015),w
  7933  1FFA                     u4445:
  7934                           
  7935  1FFA  1803               	skipnc
  7936  1FFB  2FFD               	goto	u4441
  7937  1FFC  2FFE               	goto	u4440
  7938  1FFD                     u4441:
  7939  1FFD  2FD7               	goto	l6156
  7940  1FFE                     u4440:
  7941  1FFE  2FFF               	goto	l2231
  7942                           	
  7943  1FFF                     l2230:	
  7944                           	line	49
  7945                           	
  7946  1FFF                     l2231:	
  7947  1FFF  0008               	return
  7948                           	opt stack 0
  7949                           GLOBAL	__end_of_plane_bottom_to_top
  7950  2000                     	__end_of_plane_bottom_to_top:
  7951 ;; =============== function _plane_bottom_to_top ends ============
  7952                           
  7953                           	signat	_plane_bottom_to_top,88
  7954                           	global	_plane_forward_to_back
  7955                           psect	text550,local,class=CODE,delta=2
  7956                           global __ptext550
  7957  1F0E                     __ptext550:
  7958                           
  7959 ;; *************** function _plane_forward_to_back *****************
  7960 ;; Defined at:
  7961 ;;		line 52 in file "C:\Users\Younce\Desktop\LED Cube 8 x 8 x 8\Effect.c"
  7962 ;; Parameters:    Size  Location     Type
  7963 ;;		None
  7964 ;; Auto vars:     Size  Location     Type
  7965 ;;  i               2    8[BANK0 ] int 
  7966 ;;  i               2    6[BANK0 ] int 
  7967 ;; Return value:  Size  Location     Type
  7968 ;;		None               void
  7969 ;; Registers used:
  7970 ;;		wreg, status,2, status,0, btemp+1, pclath, cstack
  7971 ;; Tracked objects:
  7972 ;;		On entry : 0/0
  7973 ;;		On exit  : 0/0
  7974 ;;		Unchanged: 0/0
  7975 ;; Data sizes:     COMMON   BANK0   BANK1   BANK3   BANK2
  7976 ;;      Params:         0       0       0       0       0
  7977 ;;      Locals:         0       4       0       0       0
  7978 ;;      Temps:          0       1       0       0       0
  7979 ;;      Totals:         0       5       0       0       0
  7980 ;;Total ram usage:        5 bytes
  7981 ;; Hardware stack levels used:    1
  7982 ;; Hardware stack levels required when called:    2
  7983 ;; This function calls:
  7984 ;;		_set_a_plane
  7985 ;;		_delay_using_adc
  7986 ;; This function is called by:
  7987 ;;		_main
  7988 ;; This function uses a non-reentrant model
  7989 ;;
  7990                           psect	text550
  7991                           	file	"C:\Users\Younce\Desktop\LED Cube 8 x 8 x 8\Effect.c"
  7992                           	line	52
  7993                           	global	__size_of_plane_forward_to_back
  7994  0079                     	__size_of_plane_forward_to_back	equ	__end_of_plane_forward_to_back-_plane_forward_to_ba
                                 ck
  7995                           	
  7996  1F0E                     _plane_forward_to_back:	
  7997                           	opt	stack 5
  7998                           ; Regs used in _plane_forward_to_back: [wreg+status,2+status,0+btemp+1+pclath+cstack]
  7999                           	line	53
  8000                           	
  8001  1F0E                     l6114:	
  8002                           ;Effect.c: 53: for(int i = 0; i<8; i++)
  8003  1F0E  1283               	bcf	status, 5	;RP0=0, select bank0
  8004  1F0F  1303               	bcf	status, 6	;RP1=0, select bank0
  8005  1F10  01A6               	clrf	(plane_forward_to_back@i)
  8006  1F11  01A7               	clrf	(plane_forward_to_back@i+1)
  8007                           	
  8008  1F12                     l6116:	
  8009  1F12  0827               	movf	(plane_forward_to_back@i+1),w
  8010  1F13  3A80               	xorlw	80h
  8011  1F14  00FF               	movwf	btemp+1
  8012  1F15  3080               	movlw	(high(08h))^80h
  8013  1F16  027F               	subwf	btemp+1,w
  8014  1F17  1D03               	skipz
  8015  1F18  2F1B               	goto	u4375
  8016  1F19  3008               	movlw	low(08h)
  8017  1F1A  0226               	subwf	(plane_forward_to_back@i),w
  8018  1F1B                     u4375:
  8019                           
  8020  1F1B  1C03               	skipc
  8021  1F1C  2F1E               	goto	u4371
  8022  1F1D  2F1F               	goto	u4370
  8023  1F1E                     u4371:
  8024  1F1E  2F21               	goto	l6120
  8025  1F1F                     u4370:
  8026  1F1F  2F49               	goto	l6126
  8027                           	
  8028  1F20                     l6118:	
  8029  1F20  2F49               	goto	l6126
  8030                           	line	54
  8031                           	
  8032  1F21                     l2234:	
  8033                           	line	55
  8034                           	
  8035  1F21                     l6120:	
  8036                           ;Effect.c: 54: {
  8037                           ;Effect.c: 55: set_a_plane(i,2);
  8038  1F21  3002               	movlw	(02h)
  8039  1F22  1283               	bcf	status, 5	;RP0=0, select bank0
  8040  1F23  1303               	bcf	status, 6	;RP1=0, select bank0
  8041  1F24  00A5               	movwf	(??_plane_forward_to_back+0)+0
  8042  1F25  0825               	movf	(??_plane_forward_to_back+0)+0,w
  8043  1F26  00F0               	movwf	(?_set_a_plane)
  8044  1F27  0826               	movf	(plane_forward_to_back@i),w
  8045  1F28  160A  118A  21DB   	fcall	_set_a_plane
              160A  158A         
  8046                           	line	56
  8047                           ;Effect.c: 56: delay_using_adc(10);
  8048  1F2D  300A               	movlw	(0Ah)
  8049  1F2E  120A  118A  2013   	fcall	_delay_using_adc
              160A  158A         
  8050                           	line	53
  8051                           	
  8052  1F33                     l6122:	
  8053  1F33  3001               	movlw	low(01h)
  8054  1F34  1283               	bcf	status, 5	;RP0=0, select bank0
  8055  1F35  1303               	bcf	status, 6	;RP1=0, select bank0
  8056  1F36  07A6               	addwf	(plane_forward_to_back@i),f
  8057  1F37  1803               	skipnc
  8058  1F38  0AA7               	incf	(plane_forward_to_back@i+1),f
  8059  1F39  3000               	movlw	high(01h)
  8060  1F3A  07A7               	addwf	(plane_forward_to_back@i+1),f
  8061                           	
  8062  1F3B                     l6124:	
  8063  1F3B  0827               	movf	(plane_forward_to_back@i+1),w
  8064  1F3C  3A80               	xorlw	80h
  8065  1F3D  00FF               	movwf	btemp+1
  8066  1F3E  3080               	movlw	(high(08h))^80h
  8067  1F3F  027F               	subwf	btemp+1,w
  8068  1F40  1D03               	skipz
  8069  1F41  2F44               	goto	u4385
  8070  1F42  3008               	movlw	low(08h)
  8071  1F43  0226               	subwf	(plane_forward_to_back@i),w
  8072  1F44                     u4385:
  8073                           
  8074  1F44  1C03               	skipc
  8075  1F45  2F47               	goto	u4381
  8076  1F46  2F48               	goto	u4380
  8077  1F47                     u4381:
  8078  1F47  2F21               	goto	l6120
  8079  1F48                     u4380:
  8080  1F48  2F49               	goto	l6126
  8081                           	
  8082  1F49                     l2235:	
  8083                           	line	59
  8084                           	
  8085  1F49                     l6126:	
  8086                           ;Effect.c: 57: }
  8087                           ;Effect.c: 59: for(int i = 7; i>0; i--)
  8088  1F49  3007               	movlw	low(07h)
  8089  1F4A  1283               	bcf	status, 5	;RP0=0, select bank0
  8090  1F4B  1303               	bcf	status, 6	;RP1=0, select bank0
  8091  1F4C  00A8               	movwf	(plane_forward_to_back@i_3018)
  8092  1F4D  3000               	movlw	high(07h)
  8093  1F4E  00A9               	movwf	((plane_forward_to_back@i_3018))+1
  8094                           	
  8095  1F4F                     l6128:	
  8096  1F4F  0829               	movf	(plane_forward_to_back@i_3018+1),w
  8097  1F50  3A80               	xorlw	80h
  8098  1F51  00FF               	movwf	btemp+1
  8099  1F52  3080               	movlw	(high(01h))^80h
  8100  1F53  027F               	subwf	btemp+1,w
  8101  1F54  1D03               	skipz
  8102  1F55  2F58               	goto	u4395
  8103  1F56  3001               	movlw	low(01h)
  8104  1F57  0228               	subwf	(plane_forward_to_back@i_3018),w
  8105  1F58                     u4395:
  8106                           
  8107  1F58  1803               	skipnc
  8108  1F59  2F5B               	goto	u4391
  8109  1F5A  2F5C               	goto	u4390
  8110  1F5B                     u4391:
  8111  1F5B  2F5E               	goto	l6132
  8112  1F5C                     u4390:
  8113  1F5C  2F86               	goto	l2238
  8114                           	
  8115  1F5D                     l6130:	
  8116  1F5D  2F86               	goto	l2238
  8117                           	line	60
  8118                           	
  8119  1F5E                     l2236:	
  8120                           	line	61
  8121                           	
  8122  1F5E                     l6132:	
  8123                           ;Effect.c: 60: {
  8124                           ;Effect.c: 61: set_a_plane(i,2);
  8125  1F5E  3002               	movlw	(02h)
  8126  1F5F  1283               	bcf	status, 5	;RP0=0, select bank0
  8127  1F60  1303               	bcf	status, 6	;RP1=0, select bank0
  8128  1F61  00A5               	movwf	(??_plane_forward_to_back+0)+0
  8129  1F62  0825               	movf	(??_plane_forward_to_back+0)+0,w
  8130  1F63  00F0               	movwf	(?_set_a_plane)
  8131  1F64  0828               	movf	(plane_forward_to_back@i_3018),w
  8132  1F65  160A  118A  21DB   	fcall	_set_a_plane
              160A  158A         
  8133                           	line	62
  8134                           ;Effect.c: 62: delay_using_adc(10);
  8135  1F6A  300A               	movlw	(0Ah)
  8136  1F6B  120A  118A  2013   	fcall	_delay_using_adc
              160A  158A         
  8137                           	line	59
  8138                           	
  8139  1F70                     l6134:	
  8140  1F70  30FF               	movlw	low(-1)
  8141  1F71  1283               	bcf	status, 5	;RP0=0, select bank0
  8142  1F72  1303               	bcf	status, 6	;RP1=0, select bank0
  8143  1F73  07A8               	addwf	(plane_forward_to_back@i_3018),f
  8144  1F74  1803               	skipnc
  8145  1F75  0AA9               	incf	(plane_forward_to_back@i_3018+1),f
  8146  1F76  30FF               	movlw	high(-1)
  8147  1F77  07A9               	addwf	(plane_forward_to_back@i_3018+1),f
  8148                           	
  8149  1F78                     l6136:	
  8150  1F78  0829               	movf	(plane_forward_to_back@i_3018+1),w
  8151  1F79  3A80               	xorlw	80h
  8152  1F7A  00FF               	movwf	btemp+1
  8153  1F7B  3080               	movlw	(high(01h))^80h
  8154  1F7C  027F               	subwf	btemp+1,w
  8155  1F7D  1D03               	skipz
  8156  1F7E  2F81               	goto	u4405
  8157  1F7F  3001               	movlw	low(01h)
  8158  1F80  0228               	subwf	(plane_forward_to_back@i_3018),w
  8159  1F81                     u4405:
  8160                           
  8161  1F81  1803               	skipnc
  8162  1F82  2F84               	goto	u4401
  8163  1F83  2F85               	goto	u4400
  8164  1F84                     u4401:
  8165  1F84  2F5E               	goto	l6132
  8166  1F85                     u4400:
  8167  1F85  2F86               	goto	l2238
  8168                           	
  8169  1F86                     l2237:	
  8170                           	line	64
  8171                           	
  8172  1F86                     l2238:	
  8173  1F86  0008               	return
  8174                           	opt stack 0
  8175                           GLOBAL	__end_of_plane_forward_to_back
  8176  1F87                     	__end_of_plane_forward_to_back:
  8177 ;; =============== function _plane_forward_to_back ends ============
  8178                           
  8179                           	signat	_plane_forward_to_back,88
  8180                           	global	_plane_left_to_right
  8181                           psect	text551,local,class=CODE,delta=2
  8182                           global __ptext551
  8183  1E20                     __ptext551:
  8184                           
  8185 ;; *************** function _plane_left_to_right *****************
  8186 ;; Defined at:
  8187 ;;		line 22 in file "C:\Users\Younce\Desktop\LED Cube 8 x 8 x 8\Effect.c"
  8188 ;; Parameters:    Size  Location     Type
  8189 ;;		None
  8190 ;; Auto vars:     Size  Location     Type
  8191 ;;  i               2    7[BANK0 ] int 
  8192 ;;  i               2    5[BANK0 ] int 
  8193 ;; Return value:  Size  Location     Type
  8194 ;;		None               void
  8195 ;; Registers used:
  8196 ;;		wreg, status,2, status,0, btemp+1, pclath, cstack
  8197 ;; Tracked objects:
  8198 ;;		On entry : 0/0
  8199 ;;		On exit  : 0/0
  8200 ;;		Unchanged: 0/0
  8201 ;; Data sizes:     COMMON   BANK0   BANK1   BANK3   BANK2
  8202 ;;      Params:         0       0       0       0       0
  8203 ;;      Locals:         0       4       0       0       0
  8204 ;;      Temps:          0       0       0       0       0
  8205 ;;      Totals:         0       4       0       0       0
  8206 ;;Total ram usage:        4 bytes
  8207 ;; Hardware stack levels used:    1
  8208 ;; Hardware stack levels required when called:    2
  8209 ;; This function calls:
  8210 ;;		_set_a_plane
  8211 ;;		_delay_using_adc
  8212 ;; This function is called by:
  8213 ;;		_main
  8214 ;; This function uses a non-reentrant model
  8215 ;;
  8216                           psect	text551
  8217                           	file	"C:\Users\Younce\Desktop\LED Cube 8 x 8 x 8\Effect.c"
  8218                           	line	22
  8219                           	global	__size_of_plane_left_to_right
  8220  0077                     	__size_of_plane_left_to_right	equ	__end_of_plane_left_to_right-_plane_left_to_right
  8221                           	
  8222  1E20                     _plane_left_to_right:	
  8223                           	opt	stack 5
  8224                           ; Regs used in _plane_left_to_right: [wreg+status,2+status,0+btemp+1+pclath+cstack]
  8225                           	line	23
  8226                           	
  8227  1E20                     l6090:	
  8228                           ;Effect.c: 23: for(int i = 0; i<8; i++)
  8229  1E20  1283               	bcf	status, 5	;RP0=0, select bank0
  8230  1E21  1303               	bcf	status, 6	;RP1=0, select bank0
  8231  1E22  01A5               	clrf	(plane_left_to_right@i)
  8232  1E23  01A6               	clrf	(plane_left_to_right@i+1)
  8233                           	
  8234  1E24                     l6092:	
  8235  1E24  0826               	movf	(plane_left_to_right@i+1),w
  8236  1E25  3A80               	xorlw	80h
  8237  1E26  00FF               	movwf	btemp+1
  8238  1E27  3080               	movlw	(high(08h))^80h
  8239  1E28  027F               	subwf	btemp+1,w
  8240  1E29  1D03               	skipz
  8241  1E2A  2E2D               	goto	u4335
  8242  1E2B  3008               	movlw	low(08h)
  8243  1E2C  0225               	subwf	(plane_left_to_right@i),w
  8244  1E2D                     u4335:
  8245                           
  8246  1E2D  1C03               	skipc
  8247  1E2E  2E30               	goto	u4331
  8248  1E2F  2E31               	goto	u4330
  8249  1E30                     u4331:
  8250  1E30  2E33               	goto	l6096
  8251  1E31                     u4330:
  8252  1E31  2E5A               	goto	l6102
  8253                           	
  8254  1E32                     l6094:	
  8255  1E32  2E5A               	goto	l6102
  8256                           	line	24
  8257                           	
  8258  1E33                     l2220:	
  8259                           	line	25
  8260                           	
  8261  1E33                     l6096:	
  8262                           ;Effect.c: 24: {
  8263                           ;Effect.c: 25: set_a_plane(i,1);
  8264  1E33  01F0               	clrf	(?_set_a_plane)
  8265  1E34  1403               	bsf	status,0
  8266  1E35  0DF0               	rlf	(?_set_a_plane),f
  8267  1E36  1283               	bcf	status, 5	;RP0=0, select bank0
  8268  1E37  1303               	bcf	status, 6	;RP1=0, select bank0
  8269  1E38  0825               	movf	(plane_left_to_right@i),w
  8270  1E39  160A  118A  21DB   	fcall	_set_a_plane
              160A  158A         
  8271                           	line	26
  8272                           ;Effect.c: 26: delay_using_adc(10);
  8273  1E3E  300A               	movlw	(0Ah)
  8274  1E3F  120A  118A  2013   	fcall	_delay_using_adc
              160A  158A         
  8275                           	line	23
  8276                           	
  8277  1E44                     l6098:	
  8278  1E44  3001               	movlw	low(01h)
  8279  1E45  1283               	bcf	status, 5	;RP0=0, select bank0
  8280  1E46  1303               	bcf	status, 6	;RP1=0, select bank0
  8281  1E47  07A5               	addwf	(plane_left_to_right@i),f
  8282  1E48  1803               	skipnc
  8283  1E49  0AA6               	incf	(plane_left_to_right@i+1),f
  8284  1E4A  3000               	movlw	high(01h)
  8285  1E4B  07A6               	addwf	(plane_left_to_right@i+1),f
  8286                           	
  8287  1E4C                     l6100:	
  8288  1E4C  0826               	movf	(plane_left_to_right@i+1),w
  8289  1E4D  3A80               	xorlw	80h
  8290  1E4E  00FF               	movwf	btemp+1
  8291  1E4F  3080               	movlw	(high(08h))^80h
  8292  1E50  027F               	subwf	btemp+1,w
  8293  1E51  1D03               	skipz
  8294  1E52  2E55               	goto	u4345
  8295  1E53  3008               	movlw	low(08h)
  8296  1E54  0225               	subwf	(plane_left_to_right@i),w
  8297  1E55                     u4345:
  8298                           
  8299  1E55  1C03               	skipc
  8300  1E56  2E58               	goto	u4341
  8301  1E57  2E59               	goto	u4340
  8302  1E58                     u4341:
  8303  1E58  2E33               	goto	l6096
  8304  1E59                     u4340:
  8305  1E59  2E5A               	goto	l6102
  8306                           	
  8307  1E5A                     l2221:	
  8308                           	line	29
  8309                           	
  8310  1E5A                     l6102:	
  8311                           ;Effect.c: 27: }
  8312                           ;Effect.c: 29: for(int i = 7; i>0; i--)
  8313  1E5A  3007               	movlw	low(07h)
  8314  1E5B  1283               	bcf	status, 5	;RP0=0, select bank0
  8315  1E5C  1303               	bcf	status, 6	;RP1=0, select bank0
  8316  1E5D  00A7               	movwf	(plane_left_to_right@i_3012)
  8317  1E5E  3000               	movlw	high(07h)
  8318  1E5F  00A8               	movwf	((plane_left_to_right@i_3012))+1
  8319                           	
  8320  1E60                     l6104:	
  8321  1E60  0828               	movf	(plane_left_to_right@i_3012+1),w
  8322  1E61  3A80               	xorlw	80h
  8323  1E62  00FF               	movwf	btemp+1
  8324  1E63  3080               	movlw	(high(01h))^80h
  8325  1E64  027F               	subwf	btemp+1,w
  8326  1E65  1D03               	skipz
  8327  1E66  2E69               	goto	u4355
  8328  1E67  3001               	movlw	low(01h)
  8329  1E68  0227               	subwf	(plane_left_to_right@i_3012),w
  8330  1E69                     u4355:
  8331                           
  8332  1E69  1803               	skipnc
  8333  1E6A  2E6C               	goto	u4351
  8334  1E6B  2E6D               	goto	u4350
  8335  1E6C                     u4351:
  8336  1E6C  2E6F               	goto	l6108
  8337  1E6D                     u4350:
  8338  1E6D  2E96               	goto	l2224
  8339                           	
  8340  1E6E                     l6106:	
  8341  1E6E  2E96               	goto	l2224
  8342                           	line	30
  8343                           	
  8344  1E6F                     l2222:	
  8345                           	line	31
  8346                           	
  8347  1E6F                     l6108:	
  8348                           ;Effect.c: 30: {
  8349                           ;Effect.c: 31: set_a_plane(i,1);
  8350  1E6F  01F0               	clrf	(?_set_a_plane)
  8351  1E70  1403               	bsf	status,0
  8352  1E71  0DF0               	rlf	(?_set_a_plane),f
  8353  1E72  1283               	bcf	status, 5	;RP0=0, select bank0
  8354  1E73  1303               	bcf	status, 6	;RP1=0, select bank0
  8355  1E74  0827               	movf	(plane_left_to_right@i_3012),w
  8356  1E75  160A  118A  21DB   	fcall	_set_a_plane
              160A  158A         
  8357                           	line	32
  8358                           ;Effect.c: 32: delay_using_adc(10);
  8359  1E7A  300A               	movlw	(0Ah)
  8360  1E7B  120A  118A  2013   	fcall	_delay_using_adc
              160A  158A         
  8361                           	line	29
  8362                           	
  8363  1E80                     l6110:	
  8364  1E80  30FF               	movlw	low(-1)
  8365  1E81  1283               	bcf	status, 5	;RP0=0, select bank0
  8366  1E82  1303               	bcf	status, 6	;RP1=0, select bank0
  8367  1E83  07A7               	addwf	(plane_left_to_right@i_3012),f
  8368  1E84  1803               	skipnc
  8369  1E85  0AA8               	incf	(plane_left_to_right@i_3012+1),f
  8370  1E86  30FF               	movlw	high(-1)
  8371  1E87  07A8               	addwf	(plane_left_to_right@i_3012+1),f
  8372                           	
  8373  1E88                     l6112:	
  8374  1E88  0828               	movf	(plane_left_to_right@i_3012+1),w
  8375  1E89  3A80               	xorlw	80h
  8376  1E8A  00FF               	movwf	btemp+1
  8377  1E8B  3080               	movlw	(high(01h))^80h
  8378  1E8C  027F               	subwf	btemp+1,w
  8379  1E8D  1D03               	skipz
  8380  1E8E  2E91               	goto	u4365
  8381  1E8F  3001               	movlw	low(01h)
  8382  1E90  0227               	subwf	(plane_left_to_right@i_3012),w
  8383  1E91                     u4365:
  8384                           
  8385  1E91  1803               	skipnc
  8386  1E92  2E94               	goto	u4361
  8387  1E93  2E95               	goto	u4360
  8388  1E94                     u4361:
  8389  1E94  2E6F               	goto	l6108
  8390  1E95                     u4360:
  8391  1E95  2E96               	goto	l2224
  8392                           	
  8393  1E96                     l2223:	
  8394                           	line	34
  8395                           	
  8396  1E96                     l2224:	
  8397  1E96  0008               	return
  8398                           	opt stack 0
  8399                           GLOBAL	__end_of_plane_left_to_right
  8400  1E97                     	__end_of_plane_left_to_right:
  8401 ;; =============== function _plane_left_to_right ends ============
  8402                           
  8403                           	signat	_plane_left_to_right,88
  8404                           	global	_moving_point_in_sequence
  8405                           psect	text552,local,class=CODE,delta=2
  8406                           global __ptext552
  8407  004A                     __ptext552:
  8408                           
  8409 ;; *************** function _moving_point_in_sequence *****************
  8410 ;; Defined at:
  8411 ;;		line 7 in file "C:\Users\Younce\Desktop\LED Cube 8 x 8 x 8\Effect.c"
  8412 ;; Parameters:    Size  Location     Type
  8413 ;;		None
  8414 ;; Auto vars:     Size  Location     Type
  8415 ;;  k               2    9[BANK0 ] int 
  8416 ;;  j               2    7[BANK0 ] int 
  8417 ;;  i               2    5[BANK0 ] int 
  8418 ;; Return value:  Size  Location     Type
  8419 ;;		None               void
  8420 ;; Registers used:
  8421 ;;		wreg, status,2, status,0, btemp+1, pclath, cstack
  8422 ;; Tracked objects:
  8423 ;;		On entry : 0/0
  8424 ;;		On exit  : 0/0
  8425 ;;		Unchanged: 0/0
  8426 ;; Data sizes:     COMMON   BANK0   BANK1   BANK3   BANK2
  8427 ;;      Params:         0       0       0       0       0
  8428 ;;      Locals:         0       6       0       0       0
  8429 ;;      Temps:          0       0       0       0       0
  8430 ;;      Totals:         0       6       0       0       0
  8431 ;;Total ram usage:        6 bytes
  8432 ;; Hardware stack levels used:    1
  8433 ;; Hardware stack levels required when called:    2
  8434 ;; This function calls:
  8435 ;;		_set_a_point
  8436 ;;		_delay_using_adc
  8437 ;; This function is called by:
  8438 ;;		_main
  8439 ;; This function uses a non-reentrant model
  8440 ;;
  8441                           psect	text552
  8442                           	file	"C:\Users\Younce\Desktop\LED Cube 8 x 8 x 8\Effect.c"
  8443                           	line	7
  8444                           	global	__size_of_moving_point_in_sequence
  8445  009B                     	__size_of_moving_point_in_sequence	equ	__end_of_moving_point_in_sequence-_moving_point_
                                 in_sequence
  8446                           	
  8447  004A                     _moving_point_in_sequence:	
  8448                           	opt	stack 5
  8449                           ; Regs used in _moving_point_in_sequence: [wreg+status,2+status,0+btemp+1+pclath+cstack]
  8450                           	line	8
  8451                           	
  8452  004A                     l6058:	
  8453                           ;Effect.c: 8: for(int i = 0; i<8; i++)
  8454  004A  1283               	bcf	status, 5	;RP0=0, select bank0
  8455  004B  1303               	bcf	status, 6	;RP1=0, select bank0
  8456  004C  01A5               	clrf	(moving_point_in_sequence@i)
  8457  004D  01A6               	clrf	(moving_point_in_sequence@i+1)
  8458                           	
  8459  004E                     l6060:	
  8460  004E  0826               	movf	(moving_point_in_sequence@i+1),w
  8461  004F  3A80               	xorlw	80h
  8462  0050  00FF               	movwf	btemp+1
  8463  0051  3080               	movlw	(high(08h))^80h
  8464  0052  027F               	subwf	btemp+1,w
  8465  0053  1D03               	skipz
  8466  0054  2857               	goto	u4275
  8467  0055  3008               	movlw	low(08h)
  8468  0056  0225               	subwf	(moving_point_in_sequence@i),w
  8469  0057                     u4275:
  8470                           
  8471  0057  1C03               	skipc
  8472  0058  285A               	goto	u4271
  8473  0059  285B               	goto	u4270
  8474  005A                     u4271:
  8475  005A  285D               	goto	l6064
  8476  005B                     u4270:
  8477  005B  28E4               	goto	l2217
  8478                           	
  8479  005C                     l6062:	
  8480  005C  28E4               	goto	l2217
  8481                           	line	9
  8482                           	
  8483  005D                     l2211:	
  8484                           	line	10
  8485                           	
  8486  005D                     l6064:	
  8487                           ;Effect.c: 9: {
  8488                           ;Effect.c: 10: for(int j = 0; j<8; j++)
  8489  005D  1283               	bcf	status, 5	;RP0=0, select bank0
  8490  005E  1303               	bcf	status, 6	;RP1=0, select bank0
  8491  005F  01A7               	clrf	(moving_point_in_sequence@j)
  8492  0060  01A8               	clrf	(moving_point_in_sequence@j+1)
  8493                           	
  8494  0061                     l6066:	
  8495  0061  0828               	movf	(moving_point_in_sequence@j+1),w
  8496  0062  3A80               	xorlw	80h
  8497  0063  00FF               	movwf	btemp+1
  8498  0064  3080               	movlw	(high(08h))^80h
  8499  0065  027F               	subwf	btemp+1,w
  8500  0066  1D03               	skipz
  8501  0067  286A               	goto	u4285
  8502  0068  3008               	movlw	low(08h)
  8503  0069  0227               	subwf	(moving_point_in_sequence@j),w
  8504  006A                     u4285:
  8505                           
  8506  006A  1C03               	skipc
  8507  006B  286D               	goto	u4281
  8508  006C  286E               	goto	u4280
  8509  006D                     u4281:
  8510  006D  2870               	goto	l6070
  8511  006E                     u4280:
  8512  006E  28CE               	goto	l6086
  8513                           	
  8514  006F                     l6068:	
  8515  006F  28CE               	goto	l6086
  8516                           	line	11
  8517                           	
  8518  0070                     l2213:	
  8519                           	line	12
  8520                           	
  8521  0070                     l6070:	
  8522                           ;Effect.c: 11: {
  8523                           ;Effect.c: 12: for(int k = 0; k<8; k++)
  8524  0070  1283               	bcf	status, 5	;RP0=0, select bank0
  8525  0071  1303               	bcf	status, 6	;RP1=0, select bank0
  8526  0072  01A9               	clrf	(moving_point_in_sequence@k)
  8527  0073  01AA               	clrf	(moving_point_in_sequence@k+1)
  8528                           	
  8529  0074                     l6072:	
  8530  0074  082A               	movf	(moving_point_in_sequence@k+1),w
  8531  0075  3A80               	xorlw	80h
  8532  0076  00FF               	movwf	btemp+1
  8533  0077  3080               	movlw	(high(08h))^80h
  8534  0078  027F               	subwf	btemp+1,w
  8535  0079  1D03               	skipz
  8536  007A  287D               	goto	u4295
  8537  007B  3008               	movlw	low(08h)
  8538  007C  0229               	subwf	(moving_point_in_sequence@k),w
  8539  007D                     u4295:
  8540                           
  8541  007D  1C03               	skipc
  8542  007E  2880               	goto	u4291
  8543  007F  2881               	goto	u4290
  8544  0080                     u4291:
  8545  0080  2883               	goto	l6076
  8546  0081                     u4290:
  8547  0081  28B8               	goto	l6082
  8548                           	
  8549  0082                     l6074:	
  8550  0082  28B8               	goto	l6082
  8551                           	line	13
  8552                           	
  8553  0083                     l2215:	
  8554                           	line	14
  8555                           	
  8556  0083                     l6076:	
  8557                           ;Effect.c: 13: {
  8558                           ;Effect.c: 14: set_a_point(k,j,i);
  8559  0083  1283               	bcf	status, 5	;RP0=0, select bank0
  8560  0084  1303               	bcf	status, 6	;RP1=0, select bank0
  8561  0085  082A               	movf	(moving_point_in_sequence@k+1),w
  8562  0086  01F1               	clrf	(?_set_a_point+1)
  8563  0087  07F1               	addwf	(?_set_a_point+1)
  8564  0088  0829               	movf	(moving_point_in_sequence@k),w
  8565  0089  01F0               	clrf	(?_set_a_point)
  8566  008A  07F0               	addwf	(?_set_a_point)
  8567                           
  8568  008B  0828               	movf	(moving_point_in_sequence@j+1),w
  8569  008C  01F3               	clrf	1+(?_set_a_point)+02h
  8570  008D  07F3               	addwf	1+(?_set_a_point)+02h
  8571  008E  0827               	movf	(moving_point_in_sequence@j),w
  8572  008F  01F2               	clrf	0+(?_set_a_point)+02h
  8573  0090  07F2               	addwf	0+(?_set_a_point)+02h
  8574                           
  8575  0091  0826               	movf	(moving_point_in_sequence@i+1),w
  8576  0092  01F5               	clrf	1+(?_set_a_point)+04h
  8577  0093  07F5               	addwf	1+(?_set_a_point)+04h
  8578  0094  0825               	movf	(moving_point_in_sequence@i),w
  8579  0095  01F4               	clrf	0+(?_set_a_point)+04h
  8580  0096  07F4               	addwf	0+(?_set_a_point)+04h
  8581                           
  8582  0097  160A  158A  25C4   	fcall	_set_a_point
              120A  118A         
  8583                           	line	15
  8584                           ;Effect.c: 15: delay_using_adc(10);
  8585  009C  300A               	movlw	(0Ah)
  8586  009D  120A  118A  2013   	fcall	_delay_using_adc
              120A  118A         
  8587                           	line	12
  8588                           	
  8589  00A2                     l6078:	
  8590  00A2  3001               	movlw	low(01h)
  8591  00A3  1283               	bcf	status, 5	;RP0=0, select bank0
  8592  00A4  1303               	bcf	status, 6	;RP1=0, select bank0
  8593  00A5  07A9               	addwf	(moving_point_in_sequence@k),f
  8594  00A6  1803               	skipnc
  8595  00A7  0AAA               	incf	(moving_point_in_sequence@k+1),f
  8596  00A8  3000               	movlw	high(01h)
  8597  00A9  07AA               	addwf	(moving_point_in_sequence@k+1),f
  8598                           	
  8599  00AA                     l6080:	
  8600  00AA  082A               	movf	(moving_point_in_sequence@k+1),w
  8601  00AB  3A80               	xorlw	80h
  8602  00AC  00FF               	movwf	btemp+1
  8603  00AD  3080               	movlw	(high(08h))^80h
  8604  00AE  027F               	subwf	btemp+1,w
  8605  00AF  1D03               	skipz
  8606  00B0  28B3               	goto	u4305
  8607  00B1  3008               	movlw	low(08h)
  8608  00B2  0229               	subwf	(moving_point_in_sequence@k),w
  8609  00B3                     u4305:
  8610                           
  8611  00B3  1C03               	skipc
  8612  00B4  28B6               	goto	u4301
  8613  00B5  28B7               	goto	u4300
  8614  00B6                     u4301:
  8615  00B6  2883               	goto	l6076
  8616  00B7                     u4300:
  8617  00B7  28B8               	goto	l6082
  8618                           	
  8619  00B8                     l2216:	
  8620                           	line	10
  8621                           	
  8622  00B8                     l6082:	
  8623  00B8  3001               	movlw	low(01h)
  8624  00B9  1283               	bcf	status, 5	;RP0=0, select bank0
  8625  00BA  1303               	bcf	status, 6	;RP1=0, select bank0
  8626  00BB  07A7               	addwf	(moving_point_in_sequence@j),f
  8627  00BC  1803               	skipnc
  8628  00BD  0AA8               	incf	(moving_point_in_sequence@j+1),f
  8629  00BE  3000               	movlw	high(01h)
  8630  00BF  07A8               	addwf	(moving_point_in_sequence@j+1),f
  8631                           	
  8632  00C0                     l6084:	
  8633  00C0  0828               	movf	(moving_point_in_sequence@j+1),w
  8634  00C1  3A80               	xorlw	80h
  8635  00C2  00FF               	movwf	btemp+1
  8636  00C3  3080               	movlw	(high(08h))^80h
  8637  00C4  027F               	subwf	btemp+1,w
  8638  00C5  1D03               	skipz
  8639  00C6  28C9               	goto	u4315
  8640  00C7  3008               	movlw	low(08h)
  8641  00C8  0227               	subwf	(moving_point_in_sequence@j),w
  8642  00C9                     u4315:
  8643                           
  8644  00C9  1C03               	skipc
  8645  00CA  28CC               	goto	u4311
  8646  00CB  28CD               	goto	u4310
  8647  00CC                     u4311:
  8648  00CC  2870               	goto	l6070
  8649  00CD                     u4310:
  8650  00CD  28CE               	goto	l6086
  8651                           	
  8652  00CE                     l2214:	
  8653                           	line	8
  8654                           	
  8655  00CE                     l6086:	
  8656  00CE  3001               	movlw	low(01h)
  8657  00CF  1283               	bcf	status, 5	;RP0=0, select bank0
  8658  00D0  1303               	bcf	status, 6	;RP1=0, select bank0
  8659  00D1  07A5               	addwf	(moving_point_in_sequence@i),f
  8660  00D2  1803               	skipnc
  8661  00D3  0AA6               	incf	(moving_point_in_sequence@i+1),f
  8662  00D4  3000               	movlw	high(01h)
  8663  00D5  07A6               	addwf	(moving_point_in_sequence@i+1),f
  8664                           	
  8665  00D6                     l6088:	
  8666  00D6  0826               	movf	(moving_point_in_sequence@i+1),w
  8667  00D7  3A80               	xorlw	80h
  8668  00D8  00FF               	movwf	btemp+1
  8669  00D9  3080               	movlw	(high(08h))^80h
  8670  00DA  027F               	subwf	btemp+1,w
  8671  00DB  1D03               	skipz
  8672  00DC  28DF               	goto	u4325
  8673  00DD  3008               	movlw	low(08h)
  8674  00DE  0225               	subwf	(moving_point_in_sequence@i),w
  8675  00DF                     u4325:
  8676                           
  8677  00DF  1C03               	skipc
  8678  00E0  28E2               	goto	u4321
  8679  00E1  28E3               	goto	u4320
  8680  00E2                     u4321:
  8681  00E2  285D               	goto	l6064
  8682  00E3                     u4320:
  8683  00E3  28E4               	goto	l2217
  8684                           	
  8685  00E4                     l2212:	
  8686                           	line	19
  8687                           	
  8688  00E4                     l2217:	
  8689  00E4  0008               	return
  8690                           	opt stack 0
  8691                           GLOBAL	__end_of_moving_point_in_sequence
  8692  00E5                     	__end_of_moving_point_in_sequence:
  8693 ;; =============== function _moving_point_in_sequence ends ============
  8694                           
  8695                           	signat	_moving_point_in_sequence,88
  8696                           	global	_set_a_point
  8697                           psect	text553,local,class=CODE,delta=2
  8698                           global __ptext553
  8699  1DC4                     __ptext553:
  8700                           
  8701 ;; *************** function _set_a_point *****************
  8702 ;; Defined at:
  8703 ;;		line 5 in file "C:\Users\Younce\Desktop\LED Cube 8 x 8 x 8\Lightup.c"
  8704 ;; Parameters:    Size  Location     Type
  8705 ;;  x               2    0[COMMON] int 
  8706 ;;  y               2    2[COMMON] int 
  8707 ;;  z               2    4[COMMON] int 
  8708 ;; Auto vars:     Size  Location     Type
  8709 ;;  j               2    8[COMMON] int 
  8710 ;; Return value:  Size  Location     Type
  8711 ;;		None               void
  8712 ;; Registers used:
  8713 ;;		wreg, status,2, status,0, btemp+1
  8714 ;; Tracked objects:
  8715 ;;		On entry : 0/0
  8716 ;;		On exit  : 0/0
  8717 ;;		Unchanged: 0/0
  8718 ;; Data sizes:     COMMON   BANK0   BANK1   BANK3   BANK2
  8719 ;;      Params:         6       0       0       0       0
  8720 ;;      Locals:         2       0       0       0       0
  8721 ;;      Temps:          2       0       0       0       0
  8722 ;;      Totals:        10       0       0       0       0
  8723 ;;Total ram usage:       10 bytes
  8724 ;; Hardware stack levels used:    1
  8725 ;; This function calls:
  8726 ;;		Nothing
  8727 ;; This function is called by:
  8728 ;;		_moving_point_in_sequence
  8729 ;; This function uses a non-reentrant model
  8730 ;;
  8731                           psect	text553
  8732                           	file	"C:\Users\Younce\Desktop\LED Cube 8 x 8 x 8\Lightup.c"
  8733                           	line	5
  8734                           	global	__size_of_set_a_point
  8735  005C                     	__size_of_set_a_point	equ	__end_of_set_a_point-_set_a_point
  8736                           	
  8737  1DC4                     _set_a_point:	
  8738                           	opt	stack 6
  8739                           ; Regs used in _set_a_point: [wreg+status,2+status,0+btemp+1]
  8740                           	line	6
  8741                           	
  8742  1DC4                     l6034:	
  8743                           ;Lightup.c: 6: PORTD = 0;
  8744  1DC4  1283               	bcf	status, 5	;RP0=0, select bank0
  8745  1DC5  1303               	bcf	status, 6	;RP1=0, select bank0
  8746  1DC6  0188               	clrf	(8)	;volatile
  8747                           	line	7
  8748                           ;Lightup.c: 7: for(int j = 0; j< 8; j++)
  8749  1DC7  01F8               	clrf	(set_a_point@j)
  8750  1DC8  01F9               	clrf	(set_a_point@j+1)
  8751                           	
  8752  1DC9                     l6036:	
  8753  1DC9  0879               	movf	(set_a_point@j+1),w
  8754  1DCA  3A80               	xorlw	80h
  8755  1DCB  00FF               	movwf	btemp+1
  8756  1DCC  3080               	movlw	(high(08h))^80h
  8757  1DCD  027F               	subwf	btemp+1,w
  8758  1DCE  1D03               	skipz
  8759  1DCF  2DD2               	goto	u4225
  8760  1DD0  3008               	movlw	low(08h)
  8761  1DD1  0278               	subwf	(set_a_point@j),w
  8762  1DD2                     u4225:
  8763                           
  8764  1DD2  1C03               	skipc
  8765  1DD3  2DD5               	goto	u4221
  8766  1DD4  2DD6               	goto	u4220
  8767  1DD5                     u4221:
  8768  1DD5  2DD8               	goto	l6040
  8769  1DD6                     u4220:
  8770  1DD6  2E0A               	goto	l6054
  8771                           	
  8772  1DD7                     l6038:	
  8773  1DD7  2E0A               	goto	l6054
  8774                           	line	8
  8775                           	
  8776  1DD8                     l1472:	
  8777                           	line	9
  8778                           	
  8779  1DD8                     l6040:	
  8780                           ;Lightup.c: 8: {
  8781                           ;Lightup.c: 9: if( j == x)
  8782  1DD8  0871               	movf	(set_a_point@x+1),w
  8783  1DD9  0679               	xorwf	(set_a_point@j+1),w
  8784  1DDA  1D03               	skipz
  8785  1DDB  2DDE               	goto	u4235
  8786  1DDC  0870               	movf	(set_a_point@x),w
  8787  1DDD  0678               	xorwf	(set_a_point@j),w
  8788  1DDE                     u4235:
  8789                           
  8790  1DDE  1D03               	skipz
  8791  1DDF  2DE1               	goto	u4231
  8792  1DE0  2DE2               	goto	u4230
  8793  1DE1                     u4231:
  8794  1DE1  2DF0               	goto	l6044
  8795  1DE2                     u4230:
  8796                           	line	11
  8797                           	
  8798  1DE2                     l6042:	
  8799                           ;Lightup.c: 10: {
  8800                           ;Lightup.c: 11: PORTC = 1<<y;
  8801  1DE2  3001               	movlw	(01h)
  8802  1DE3  00F6               	movwf	(??_set_a_point+0)+0
  8803  1DE4  0A72               	incf	(set_a_point@y),w
  8804  1DE5  2DE8               	goto	u4244
  8805  1DE6                     u4245:
  8806  1DE6  1003               	clrc
  8807  1DE7  0DF6               	rlf	(??_set_a_point+0)+0,f
  8808  1DE8                     u4244:
  8809  1DE8  3EFF               	addlw	-1
  8810  1DE9  1D03               	skipz
  8811  1DEA  2DE6               	goto	u4245
  8812  1DEB  0876               	movf	0+(??_set_a_point+0)+0,w
  8813  1DEC  1283               	bcf	status, 5	;RP0=0, select bank0
  8814  1DED  1303               	bcf	status, 6	;RP1=0, select bank0
  8815  1DEE  0087               	movwf	(7)	;volatile
  8816                           	line	12
  8817                           ;Lightup.c: 12: }
  8818  1DEF  2DF4               	goto	l6046
  8819                           	line	13
  8820                           	
  8821  1DF0                     l1474:	
  8822                           	line	15
  8823                           	
  8824  1DF0                     l6044:	
  8825                           ;Lightup.c: 13: else
  8826                           ;Lightup.c: 14: {
  8827                           ;Lightup.c: 15: PORTC = 0;
  8828  1DF0  1283               	bcf	status, 5	;RP0=0, select bank0
  8829  1DF1  1303               	bcf	status, 6	;RP1=0, select bank0
  8830  1DF2  0187               	clrf	(7)	;volatile
  8831  1DF3  2DF4               	goto	l6046
  8832                           	line	16
  8833                           	
  8834  1DF4                     l1475:	
  8835                           	line	17
  8836                           	
  8837  1DF4                     l6046:	
  8838                           ;Lightup.c: 16: }
  8839                           ;Lightup.c: 17: RA1 = 1;
  8840  1DF4  1485               	bsf	(41/8),(41)&7
  8841                           	line	18
  8842                           	
  8843  1DF5                     l6048:	
  8844                           ;Lightup.c: 18: RA1 = 0;
  8845  1DF5  1085               	bcf	(41/8),(41)&7
  8846                           	line	7
  8847                           	
  8848  1DF6                     l6050:	
  8849  1DF6  3001               	movlw	low(01h)
  8850  1DF7  07F8               	addwf	(set_a_point@j),f
  8851  1DF8  1803               	skipnc
  8852  1DF9  0AF9               	incf	(set_a_point@j+1),f
  8853  1DFA  3000               	movlw	high(01h)
  8854  1DFB  07F9               	addwf	(set_a_point@j+1),f
  8855                           	
  8856  1DFC                     l6052:	
  8857  1DFC  0879               	movf	(set_a_point@j+1),w
  8858  1DFD  3A80               	xorlw	80h
  8859  1DFE  00FF               	movwf	btemp+1
  8860  1DFF  3080               	movlw	(high(08h))^80h
  8861  1E00  027F               	subwf	btemp+1,w
  8862  1E01  1D03               	skipz
  8863  1E02  2E05               	goto	u4255
  8864  1E03  3008               	movlw	low(08h)
  8865  1E04  0278               	subwf	(set_a_point@j),w
  8866  1E05                     u4255:
  8867                           
  8868  1E05  1C03               	skipc
  8869  1E06  2E08               	goto	u4251
  8870  1E07  2E09               	goto	u4250
  8871  1E08                     u4251:
  8872  1E08  2DD8               	goto	l6040
  8873  1E09                     u4250:
  8874  1E09  2E0A               	goto	l6054
  8875                           	
  8876  1E0A                     l1473:	
  8877                           	line	20
  8878                           	
  8879  1E0A                     l6054:	
  8880                           ;Lightup.c: 19: }
  8881                           ;Lightup.c: 20: PORTD = 1<<z;
  8882  1E0A  3001               	movlw	(01h)
  8883  1E0B  00F6               	movwf	(??_set_a_point+0)+0
  8884  1E0C  0A74               	incf	(set_a_point@z),w
  8885  1E0D  2E10               	goto	u4264
  8886  1E0E                     u4265:
  8887  1E0E  1003               	clrc
  8888  1E0F  0DF6               	rlf	(??_set_a_point+0)+0,f
  8889  1E10                     u4264:
  8890  1E10  3EFF               	addlw	-1
  8891  1E11  1D03               	skipz
  8892  1E12  2E0E               	goto	u4265
  8893  1E13  0876               	movf	0+(??_set_a_point+0)+0,w
  8894  1E14  1283               	bcf	status, 5	;RP0=0, select bank0
  8895  1E15  1303               	bcf	status, 6	;RP1=0, select bank0
  8896  1E16  0088               	movwf	(8)	;volatile
  8897                           	line	21
  8898                           	
  8899  1E17                     l6056:	
  8900                           ;Lightup.c: 21: _delay((unsigned long)((1)*(20000000/4000.0)));
  8901                           	opt asmopt_off
  8902  1E17  3007               movlw	7
  8903  1E18  00F7               movwf	((??_set_a_point+0)+0+1),f
  8904  1E19  307D               	movlw	125
  8905  1E1A  00F6               movwf	((??_set_a_point+0)+0),f
  8906  1E1B                     u5577:
  8907  1E1B  0BF6               	decfsz	((??_set_a_point+0)+0),f
  8908  1E1C  2E1B               	goto	u5577
  8909  1E1D  0BF7               	decfsz	((??_set_a_point+0)+0+1),f
  8910  1E1E  2E1B               	goto	u5577
  8911                           opt asmopt_on
  8912                           
  8913                           	line	22
  8914                           	
  8915  1E1F                     l1476:	
  8916  1E1F  0008               	return
  8917                           	opt stack 0
  8918                           GLOBAL	__end_of_set_a_point
  8919  1E20                     	__end_of_set_a_point:
  8920 ;; =============== function _set_a_point ends ============
  8921                           
  8922                           	signat	_set_a_point,12408
  8923                           	global	_show_pattern_on_a_plane
  8924                           psect	text554,local,class=CODE,delta=2
  8925                           global __ptext554
  8926  1451                     __ptext554:
  8927                           
  8928 ;; *************** function _show_pattern_on_a_plane *****************
  8929 ;; Defined at:
  8930 ;;		line 74 in file "C:\Users\Younce\Desktop\LED Cube 8 x 8 x 8\Lightup.c"
  8931 ;; Parameters:    Size  Location     Type
  8932 ;;  layer           1    wreg     unsigned char 
  8933 ;;  plane           1    0[COMMON] unsigned char 
  8934 ;;  pattern_arra    1    1[COMMON] PTR unsigned char 
  8935 ;;		 -> rotate_plane@rotate_pattern(8), expansion_box@box_pattern(8), choose_dice@dice_pattern(8), contraction_expansion
       _square_ri@square_ring_pattern(8), 
  8936 ;;		 -> flying_character_of_a_word@alphabet_pattern(8), flying_alphabet@temp_alphabet_array(8), show_mode@mode_pattern(8
       ), 
  8937 ;; Auto vars:     Size  Location     Type
  8938 ;;  layer           1   11[BANK0 ] unsigned char 
  8939 ;;  j               2    5[BANK0 ] int 
  8940 ;;  j               2    3[BANK0 ] int 
  8941 ;;  j               2    7[BANK0 ] int 
  8942 ;;  j               2    9[BANK0 ] int 
  8943 ;;  i               2   14[BANK0 ] int 
  8944 ;;  i               2   12[BANK0 ] int 
  8945 ;;  adc_delay       2    0[BANK0 ] int 
  8946 ;;  scale           1    2[BANK0 ] unsigned char 
  8947 ;; Return value:  Size  Location     Type
  8948 ;;		None               void
  8949 ;; Registers used:
  8950 ;;		wreg, fsr0l, fsr0h, status,2, status,0, btemp+1
  8951 ;; Tracked objects:
  8952 ;;		On entry : 0/0
  8953 ;;		On exit  : 0/0
  8954 ;;		Unchanged: 0/0
  8955 ;; Data sizes:     COMMON   BANK0   BANK1   BANK3   BANK2
  8956 ;;      Params:         2       0       0       0       0
  8957 ;;      Locals:         0      16       0       0       0
  8958 ;;      Temps:          3       0       0       0       0
  8959 ;;      Totals:         5      16       0       0       0
  8960 ;;Total ram usage:       21 bytes
  8961 ;; Hardware stack levels used:    1
  8962 ;; This function calls:
  8963 ;;		Nothing
  8964 ;; This function is called by:
  8965 ;;		_show_mode
  8966 ;;		_flying_character_of_a_word
  8967 ;;		_contraction_expansion_square_ri
  8968 ;;		_choose_dice
  8969 ;;		_expansion_box
  8970 ;;		_rotate_plane
  8971 ;;		_flying_alphabet
  8972 ;; This function uses a non-reentrant model
  8973 ;;
  8974                           psect	text554
  8975                           	file	"C:\Users\Younce\Desktop\LED Cube 8 x 8 x 8\Lightup.c"
  8976                           	line	74
  8977                           	global	__size_of_show_pattern_on_a_plane
  8978  01A5                     	__size_of_show_pattern_on_a_plane	equ	__end_of_show_pattern_on_a_plane-_show_pattern_on
                                 _a_plane
  8979                           	
  8980  1451                     _show_pattern_on_a_plane:	
  8981                           	opt	stack 6
  8982                           ; Regs used in _show_pattern_on_a_plane: [wreg-fsr0h+status,2+status,0+btemp+1]
  8983                           ;show_pattern_on_a_plane@layer stored from wreg
  8984  1451  1283               	bcf	status, 5	;RP0=0, select bank0
  8985  1452  1303               	bcf	status, 6	;RP1=0, select bank0
  8986  1453  00AB               	movwf	(show_pattern_on_a_plane@layer)
  8987                           	line	75
  8988                           	
  8989  1454                     l5918:	
  8990                           ;Lightup.c: 75: int adc_delay = 0;
  8991  1454  01A0               	clrf	(show_pattern_on_a_plane@adc_delay)
  8992  1455  01A1               	clrf	(show_pattern_on_a_plane@adc_delay+1)
  8993                           	line	76
  8994                           	
  8995  1456                     l5920:	
  8996                           ;Lightup.c: 76: unsigned char scale = 10;
  8997  1456  300A               	movlw	(0Ah)
  8998  1457  00F2               	movwf	(??_show_pattern_on_a_plane+0)+0
  8999  1458  0872               	movf	(??_show_pattern_on_a_plane+0)+0,w
  9000  1459  00A2               	movwf	(show_pattern_on_a_plane@scale)
  9001                           	line	77
  9002                           	
  9003  145A                     l5922:	
  9004                           ;Lightup.c: 77: if(plane == 1)
  9005  145A  0870               	movf	(show_pattern_on_a_plane@plane),w
  9006  145B  3A01               	xorlw	01h
  9007  145C  1D03               	skipz
  9008  145D  2C5F               	goto	u4021
  9009  145E  2C60               	goto	u4020
  9010  145F                     u4021:
  9011  145F  2CE8               	goto	l5956
  9012  1460                     u4020:
  9013                           	line	79
  9014                           	
  9015  1460                     l5924:	
  9016                           ;Lightup.c: 78: {
  9017                           ;Lightup.c: 79: for(int i = 0; i<8; i++)
  9018  1460  01AC               	clrf	(show_pattern_on_a_plane@i)
  9019  1461  01AD               	clrf	(show_pattern_on_a_plane@i+1)
  9020                           	
  9021  1462                     l5926:	
  9022  1462  082D               	movf	(show_pattern_on_a_plane@i+1),w
  9023  1463  3A80               	xorlw	80h
  9024  1464  00FF               	movwf	btemp+1
  9025  1465  3080               	movlw	(high(08h))^80h
  9026  1466  027F               	subwf	btemp+1,w
  9027  1467  1D03               	skipz
  9028  1468  2C6B               	goto	u4035
  9029  1469  3008               	movlw	low(08h)
  9030  146A  022C               	subwf	(show_pattern_on_a_plane@i),w
  9031  146B                     u4035:
  9032                           
  9033  146B  1C03               	skipc
  9034  146C  2C6E               	goto	u4031
  9035  146D  2C6F               	goto	u4030
  9036  146E                     u4031:
  9037  146E  2C71               	goto	l5930
  9038  146F                     u4030:
  9039  146F  2DF5               	goto	l1512
  9040                           	
  9041  1470                     l5928:	
  9042  1470  2DF5               	goto	l1512
  9043                           	line	80
  9044                           	
  9045  1471                     l1496:	
  9046                           	line	81
  9047                           	
  9048  1471                     l5930:	
  9049                           ;Lightup.c: 80: {
  9050                           ;Lightup.c: 81: for(int j = 0; j< 8; j++)
  9051  1471  1283               	bcf	status, 5	;RP0=0, select bank0
  9052  1472  1303               	bcf	status, 6	;RP1=0, select bank0
  9053  1473  01A7               	clrf	(show_pattern_on_a_plane@j)
  9054  1474  01A8               	clrf	(show_pattern_on_a_plane@j+1)
  9055                           	
  9056  1475                     l5932:	
  9057  1475  0828               	movf	(show_pattern_on_a_plane@j+1),w
  9058  1476  3A80               	xorlw	80h
  9059  1477  00FF               	movwf	btemp+1
  9060  1478  3080               	movlw	(high(08h))^80h
  9061  1479  027F               	subwf	btemp+1,w
  9062  147A  1D03               	skipz
  9063  147B  2C7E               	goto	u4045
  9064  147C  3008               	movlw	low(08h)
  9065  147D  0227               	subwf	(show_pattern_on_a_plane@j),w
  9066  147E                     u4045:
  9067                           
  9068  147E  1C03               	skipc
  9069  147F  2C81               	goto	u4041
  9070  1480  2C82               	goto	u4040
  9071  1481                     u4041:
  9072  1481  2C84               	goto	l5936
  9073  1482                     u4040:
  9074  1482  2CBA               	goto	l5946
  9075                           	
  9076  1483                     l5934:	
  9077  1483  2CBA               	goto	l5946
  9078                           	line	82
  9079                           	
  9080  1484                     l1498:	
  9081                           	line	83
  9082                           	
  9083  1484                     l5936:	
  9084                           ;Lightup.c: 82: {
  9085                           ;Lightup.c: 83: PORTC = (0x01 & (pattern_array[i] >> (7-j))) << layer;
  9086  1484  1283               	bcf	status, 5	;RP0=0, select bank0
  9087  1485  1303               	bcf	status, 6	;RP1=0, select bank0
  9088  1486  082C               	movf	(show_pattern_on_a_plane@i),w
  9089  1487  0771               	addwf	(show_pattern_on_a_plane@pattern_array),w
  9090  1488  00F2               	movwf	(??_show_pattern_on_a_plane+0)+0
  9091  1489  0872               	movf	0+(??_show_pattern_on_a_plane+0)+0,w
  9092  148A  0084               	movwf	fsr0
  9093  148B  1383               	bcf	status, 7	;select IRP bank0
  9094  148C  0800               	movf	indf,w
  9095  148D  00F3               	movwf	(??_show_pattern_on_a_plane+1)+0
  9096  148E  0327               	decf	(show_pattern_on_a_plane@j),w
  9097  148F  3AFF               	xorlw	0ffh
  9098  1490  3E07               	addlw	07h
  9099  1491  3E01               	addlw	1
  9100  1492  2C95               	goto	u4054
  9101  1493                     u4055:
  9102  1493  1003               	clrc
  9103  1494  0CF3               	rrf	(??_show_pattern_on_a_plane+1)+0,f
  9104  1495                     u4054:
  9105  1495  3EFF               	addlw	-1
  9106  1496  1D03               	skipz
  9107  1497  2C93               	goto	u4055
  9108  1498  0873               	movf	0+(??_show_pattern_on_a_plane+1)+0,w
  9109  1499  3901               	andlw	01h
  9110  149A  00F4               	movwf	(??_show_pattern_on_a_plane+2)+0
  9111  149B  0A2B               	incf	(show_pattern_on_a_plane@layer),w
  9112  149C  2C9F               	goto	u4064
  9113  149D                     u4065:
  9114  149D  1003               	clrc
  9115  149E  0DF4               	rlf	(??_show_pattern_on_a_plane+2)+0,f
  9116  149F                     u4064:
  9117  149F  3EFF               	addlw	-1
  9118  14A0  1D03               	skipz
  9119  14A1  2C9D               	goto	u4065
  9120  14A2  0874               	movf	0+(??_show_pattern_on_a_plane+2)+0,w
  9121  14A3  0087               	movwf	(7)	;volatile
  9122                           	line	84
  9123                           	
  9124  14A4                     l5938:	
  9125                           ;Lightup.c: 84: RA1 = 1;
  9126  14A4  1485               	bsf	(41/8),(41)&7
  9127                           	line	85
  9128                           	
  9129  14A5                     l5940:	
  9130                           ;Lightup.c: 85: RA1 = 0;
  9131  14A5  1085               	bcf	(41/8),(41)&7
  9132                           	line	81
  9133                           	
  9134  14A6                     l5942:	
  9135  14A6  3001               	movlw	low(01h)
  9136  14A7  07A7               	addwf	(show_pattern_on_a_plane@j),f
  9137  14A8  1803               	skipnc
  9138  14A9  0AA8               	incf	(show_pattern_on_a_plane@j+1),f
  9139  14AA  3000               	movlw	high(01h)
  9140  14AB  07A8               	addwf	(show_pattern_on_a_plane@j+1),f
  9141                           	
  9142  14AC                     l5944:	
  9143  14AC  0828               	movf	(show_pattern_on_a_plane@j+1),w
  9144  14AD  3A80               	xorlw	80h
  9145  14AE  00FF               	movwf	btemp+1
  9146  14AF  3080               	movlw	(high(08h))^80h
  9147  14B0  027F               	subwf	btemp+1,w
  9148  14B1  1D03               	skipz
  9149  14B2  2CB5               	goto	u4075
  9150  14B3  3008               	movlw	low(08h)
  9151  14B4  0227               	subwf	(show_pattern_on_a_plane@j),w
  9152  14B5                     u4075:
  9153                           
  9154  14B5  1C03               	skipc
  9155  14B6  2CB8               	goto	u4071
  9156  14B7  2CB9               	goto	u4070
  9157  14B8                     u4071:
  9158  14B8  2C84               	goto	l5936
  9159  14B9                     u4070:
  9160  14B9  2CBA               	goto	l5946
  9161                           	
  9162  14BA                     l1499:	
  9163                           	line	87
  9164                           	
  9165  14BA                     l5946:	
  9166                           ;Lightup.c: 86: }
  9167                           ;Lightup.c: 87: PORTD = 1<<i;
  9168  14BA  3001               	movlw	(01h)
  9169  14BB  00F2               	movwf	(??_show_pattern_on_a_plane+0)+0
  9170  14BC  1283               	bcf	status, 5	;RP0=0, select bank0
  9171  14BD  1303               	bcf	status, 6	;RP1=0, select bank0
  9172  14BE  0A2C               	incf	(show_pattern_on_a_plane@i),w
  9173  14BF  2CC2               	goto	u4084
  9174  14C0                     u4085:
  9175  14C0  1003               	clrc
  9176  14C1  0DF2               	rlf	(??_show_pattern_on_a_plane+0)+0,f
  9177  14C2                     u4084:
  9178  14C2  3EFF               	addlw	-1
  9179  14C3  1D03               	skipz
  9180  14C4  2CC0               	goto	u4085
  9181  14C5  0872               	movf	0+(??_show_pattern_on_a_plane+0)+0,w
  9182  14C6  0088               	movwf	(8)	;volatile
  9183                           	line	88
  9184                           	
  9185  14C7                     l5948:	
  9186                           ;Lightup.c: 88: _delay((unsigned long)((5)*(20000000/4000.0)));
  9187                           	opt asmopt_off
  9188  14C7  3021               movlw	33
  9189  14C8  00F3               movwf	((??_show_pattern_on_a_plane+0)+0+1),f
  9190  14C9  3076               	movlw	118
  9191  14CA  00F2               movwf	((??_show_pattern_on_a_plane+0)+0),f
  9192  14CB                     u5587:
  9193  14CB  0BF2               	decfsz	((??_show_pattern_on_a_plane+0)+0),f
  9194  14CC  2CCB               	goto	u5587
  9195  14CD  0BF3               	decfsz	((??_show_pattern_on_a_plane+0)+0+1),f
  9196  14CE  2CCB               	goto	u5587
  9197  14CF  0064               	clrwdt
  9198                           opt asmopt_on
  9199                           
  9200                           	line	89
  9201                           	
  9202  14D0                     l5950:	
  9203                           ;Lightup.c: 89: PORTD = 0;
  9204  14D0  1283               	bcf	status, 5	;RP0=0, select bank0
  9205  14D1  1303               	bcf	status, 6	;RP1=0, select bank0
  9206  14D2  0188               	clrf	(8)	;volatile
  9207                           	line	79
  9208                           	
  9209  14D3                     l5952:	
  9210  14D3  3001               	movlw	low(01h)
  9211  14D4  07AC               	addwf	(show_pattern_on_a_plane@i),f
  9212  14D5  1803               	skipnc
  9213  14D6  0AAD               	incf	(show_pattern_on_a_plane@i+1),f
  9214  14D7  3000               	movlw	high(01h)
  9215  14D8  07AD               	addwf	(show_pattern_on_a_plane@i+1),f
  9216                           	
  9217  14D9                     l5954:	
  9218  14D9  082D               	movf	(show_pattern_on_a_plane@i+1),w
  9219  14DA  3A80               	xorlw	80h
  9220  14DB  00FF               	movwf	btemp+1
  9221  14DC  3080               	movlw	(high(08h))^80h
  9222  14DD  027F               	subwf	btemp+1,w
  9223  14DE  1D03               	skipz
  9224  14DF  2CE2               	goto	u4095
  9225  14E0  3008               	movlw	low(08h)
  9226  14E1  022C               	subwf	(show_pattern_on_a_plane@i),w
  9227  14E2                     u4095:
  9228                           
  9229  14E2  1C03               	skipc
  9230  14E3  2CE5               	goto	u4091
  9231  14E4  2CE6               	goto	u4090
  9232  14E5                     u4091:
  9233  14E5  2C71               	goto	l5930
  9234  14E6                     u4090:
  9235  14E6  2DF5               	goto	l1512
  9236                           	
  9237  14E7                     l1497:	
  9238                           	line	91
  9239                           ;Lightup.c: 90: }
  9240                           ;Lightup.c: 91: }
  9241  14E7  2DF5               	goto	l1512
  9242                           	line	93
  9243                           	
  9244  14E8                     l1495:	
  9245                           	
  9246  14E8                     l5956:	
  9247                           ;Lightup.c: 93: else if (plane == 2)
  9248  14E8  0870               	movf	(show_pattern_on_a_plane@plane),w
  9249  14E9  3A02               	xorlw	02h
  9250  14EA  1D03               	skipz
  9251  14EB  2CED               	goto	u4101
  9252  14EC  2CEE               	goto	u4100
  9253  14ED                     u4101:
  9254  14ED  2DA4               	goto	l6012
  9255  14EE                     u4100:
  9256                           	line	95
  9257                           	
  9258  14EE                     l5958:	
  9259                           ;Lightup.c: 94: {
  9260                           ;Lightup.c: 95: for(int i = 0; i<8; i++)
  9261  14EE  1283               	bcf	status, 5	;RP0=0, select bank0
  9262  14EF  1303               	bcf	status, 6	;RP1=0, select bank0
  9263  14F0  01AE               	clrf	(show_pattern_on_a_plane@i_2167)
  9264  14F1  01AF               	clrf	(show_pattern_on_a_plane@i_2167+1)
  9265                           	
  9266  14F2                     l5960:	
  9267  14F2  082F               	movf	(show_pattern_on_a_plane@i_2167+1),w
  9268  14F3  3A80               	xorlw	80h
  9269  14F4  00FF               	movwf	btemp+1
  9270  14F5  3080               	movlw	(high(08h))^80h
  9271  14F6  027F               	subwf	btemp+1,w
  9272  14F7  1D03               	skipz
  9273  14F8  2CFB               	goto	u4115
  9274  14F9  3008               	movlw	low(08h)
  9275  14FA  022E               	subwf	(show_pattern_on_a_plane@i_2167),w
  9276  14FB                     u4115:
  9277                           
  9278  14FB  1C03               	skipc
  9279  14FC  2CFE               	goto	u4111
  9280  14FD  2CFF               	goto	u4110
  9281  14FE                     u4111:
  9282  14FE  2D01               	goto	l5964
  9283  14FF                     u4110:
  9284  14FF  2DF5               	goto	l1512
  9285                           	
  9286  1500                     l5962:	
  9287  1500  2DF5               	goto	l1512
  9288                           	line	96
  9289                           	
  9290  1501                     l1502:	
  9291                           	line	98
  9292                           	
  9293  1501                     l5964:	
  9294                           ;Lightup.c: 96: {
  9295                           ;Lightup.c: 98: for(int j = layer; j>0; j--)
  9296  1501  1283               	bcf	status, 5	;RP0=0, select bank0
  9297  1502  1303               	bcf	status, 6	;RP1=0, select bank0
  9298  1503  082B               	movf	(show_pattern_on_a_plane@layer),w
  9299  1504  00F2               	movwf	(??_show_pattern_on_a_plane+0)+0
  9300  1505  01F3               	clrf	(??_show_pattern_on_a_plane+0)+0+1
  9301  1506  0872               	movf	0+(??_show_pattern_on_a_plane+0)+0,w
  9302  1507  00A3               	movwf	(show_pattern_on_a_plane@j_2168)
  9303  1508  0873               	movf	1+(??_show_pattern_on_a_plane+0)+0,w
  9304  1509  00A4               	movwf	(show_pattern_on_a_plane@j_2168+1)
  9305                           	
  9306  150A                     l5966:	
  9307  150A  0824               	movf	(show_pattern_on_a_plane@j_2168+1),w
  9308  150B  3A80               	xorlw	80h
  9309  150C  00FF               	movwf	btemp+1
  9310  150D  3080               	movlw	(high(01h))^80h
  9311  150E  027F               	subwf	btemp+1,w
  9312  150F  1D03               	skipz
  9313  1510  2D13               	goto	u4125
  9314  1511  3001               	movlw	low(01h)
  9315  1512  0223               	subwf	(show_pattern_on_a_plane@j_2168),w
  9316  1513                     u4125:
  9317                           
  9318  1513  1803               	skipnc
  9319  1514  2D16               	goto	u4121
  9320  1515  2D17               	goto	u4120
  9321  1516                     u4121:
  9322  1516  2D19               	goto	l5970
  9323  1517                     u4120:
  9324  1517  2D32               	goto	l5980
  9325                           	
  9326  1518                     l5968:	
  9327  1518  2D32               	goto	l5980
  9328                           	line	99
  9329                           	
  9330  1519                     l1504:	
  9331                           	line	100
  9332                           	
  9333  1519                     l5970:	
  9334                           ;Lightup.c: 99: {
  9335                           ;Lightup.c: 100: PORTC = 0;
  9336  1519  1283               	bcf	status, 5	;RP0=0, select bank0
  9337  151A  1303               	bcf	status, 6	;RP1=0, select bank0
  9338  151B  0187               	clrf	(7)	;volatile
  9339                           	line	101
  9340                           	
  9341  151C                     l5972:	
  9342                           ;Lightup.c: 101: RA1 = 1;
  9343  151C  1485               	bsf	(41/8),(41)&7
  9344                           	line	102
  9345                           	
  9346  151D                     l5974:	
  9347                           ;Lightup.c: 102: RA1 = 0;
  9348  151D  1085               	bcf	(41/8),(41)&7
  9349                           	line	98
  9350                           	
  9351  151E                     l5976:	
  9352  151E  30FF               	movlw	low(-1)
  9353  151F  07A3               	addwf	(show_pattern_on_a_plane@j_2168),f
  9354  1520  1803               	skipnc
  9355  1521  0AA4               	incf	(show_pattern_on_a_plane@j_2168+1),f
  9356  1522  30FF               	movlw	high(-1)
  9357  1523  07A4               	addwf	(show_pattern_on_a_plane@j_2168+1),f
  9358                           	
  9359  1524                     l5978:	
  9360  1524  0824               	movf	(show_pattern_on_a_plane@j_2168+1),w
  9361  1525  3A80               	xorlw	80h
  9362  1526  00FF               	movwf	btemp+1
  9363  1527  3080               	movlw	(high(01h))^80h
  9364  1528  027F               	subwf	btemp+1,w
  9365  1529  1D03               	skipz
  9366  152A  2D2D               	goto	u4135
  9367  152B  3001               	movlw	low(01h)
  9368  152C  0223               	subwf	(show_pattern_on_a_plane@j_2168),w
  9369  152D                     u4135:
  9370                           
  9371  152D  1803               	skipnc
  9372  152E  2D30               	goto	u4131
  9373  152F  2D31               	goto	u4130
  9374  1530                     u4131:
  9375  1530  2D19               	goto	l5970
  9376  1531                     u4130:
  9377  1531  2D32               	goto	l5980
  9378                           	
  9379  1532                     l1505:	
  9380                           	line	104
  9381                           	
  9382  1532                     l5980:	
  9383                           ;Lightup.c: 103: }
  9384                           ;Lightup.c: 104: PORTC = pattern_array[i];
  9385  1532  1283               	bcf	status, 5	;RP0=0, select bank0
  9386  1533  1303               	bcf	status, 6	;RP1=0, select bank0
  9387  1534  082E               	movf	(show_pattern_on_a_plane@i_2167),w
  9388  1535  0771               	addwf	(show_pattern_on_a_plane@pattern_array),w
  9389  1536  00F2               	movwf	(??_show_pattern_on_a_plane+0)+0
  9390  1537  0872               	movf	0+(??_show_pattern_on_a_plane+0)+0,w
  9391  1538  0084               	movwf	fsr0
  9392  1539  1383               	bcf	status, 7	;select IRP bank0
  9393  153A  0800               	movf	indf,w
  9394  153B  0087               	movwf	(7)	;volatile
  9395                           	line	105
  9396                           	
  9397  153C                     l5982:	
  9398                           ;Lightup.c: 105: RA1 = 1;
  9399  153C  1485               	bsf	(41/8),(41)&7
  9400                           	line	106
  9401                           	
  9402  153D                     l5984:	
  9403                           ;Lightup.c: 106: RA1 = 0;
  9404  153D  1085               	bcf	(41/8),(41)&7
  9405                           	line	107
  9406                           	
  9407  153E                     l5986:	
  9408                           ;Lightup.c: 107: for(int j =7-layer; j>0; j--)
  9409  153E  082B               	movf	(show_pattern_on_a_plane@layer),w
  9410  153F  00F2               	movwf	(??_show_pattern_on_a_plane+0)+0
  9411  1540  01F3               	clrf	(??_show_pattern_on_a_plane+0)+0+1
  9412  1541  09F2               	comf	(??_show_pattern_on_a_plane+0)+0,f
  9413  1542  09F3               	comf	(??_show_pattern_on_a_plane+0)+1,f
  9414  1543  0AF2               	incf	(??_show_pattern_on_a_plane+0)+0,f
  9415  1544  1903               	skipnz
  9416  1545  0AF3               	incf	(??_show_pattern_on_a_plane+0)+1,f
  9417  1546  0872               	movf	0+(??_show_pattern_on_a_plane+0)+0,w
  9418  1547  3E07               	addlw	low(07h)
  9419  1548  00A5               	movwf	(show_pattern_on_a_plane@j_2169)
  9420  1549  0873               	movf	1+(??_show_pattern_on_a_plane+0)+0,w
  9421  154A  1803               	skipnc
  9422  154B  3E01               	addlw	1
  9423  154C  3E00               	addlw	high(07h)
  9424  154D  00A6               	movwf	1+(show_pattern_on_a_plane@j_2169)
  9425                           	
  9426  154E                     l5988:	
  9427  154E  0826               	movf	(show_pattern_on_a_plane@j_2169+1),w
  9428  154F  3A80               	xorlw	80h
  9429  1550  00FF               	movwf	btemp+1
  9430  1551  3080               	movlw	(high(01h))^80h
  9431  1552  027F               	subwf	btemp+1,w
  9432  1553  1D03               	skipz
  9433  1554  2D57               	goto	u4145
  9434  1555  3001               	movlw	low(01h)
  9435  1556  0225               	subwf	(show_pattern_on_a_plane@j_2169),w
  9436  1557                     u4145:
  9437                           
  9438  1557  1803               	skipnc
  9439  1558  2D5A               	goto	u4141
  9440  1559  2D5B               	goto	u4140
  9441  155A                     u4141:
  9442  155A  2D5D               	goto	l5992
  9443  155B                     u4140:
  9444  155B  2D76               	goto	l6002
  9445                           	
  9446  155C                     l5990:	
  9447  155C  2D76               	goto	l6002
  9448                           	line	108
  9449                           	
  9450  155D                     l1506:	
  9451                           	line	109
  9452                           	
  9453  155D                     l5992:	
  9454                           ;Lightup.c: 108: {
  9455                           ;Lightup.c: 109: PORTC = 0;
  9456  155D  1283               	bcf	status, 5	;RP0=0, select bank0
  9457  155E  1303               	bcf	status, 6	;RP1=0, select bank0
  9458  155F  0187               	clrf	(7)	;volatile
  9459                           	line	110
  9460                           	
  9461  1560                     l5994:	
  9462                           ;Lightup.c: 110: RA1 = 1;
  9463  1560  1485               	bsf	(41/8),(41)&7
  9464                           	line	111
  9465                           	
  9466  1561                     l5996:	
  9467                           ;Lightup.c: 111: RA1 = 0;
  9468  1561  1085               	bcf	(41/8),(41)&7
  9469                           	line	107
  9470                           	
  9471  1562                     l5998:	
  9472  1562  30FF               	movlw	low(-1)
  9473  1563  07A5               	addwf	(show_pattern_on_a_plane@j_2169),f
  9474  1564  1803               	skipnc
  9475  1565  0AA6               	incf	(show_pattern_on_a_plane@j_2169+1),f
  9476  1566  30FF               	movlw	high(-1)
  9477  1567  07A6               	addwf	(show_pattern_on_a_plane@j_2169+1),f
  9478                           	
  9479  1568                     l6000:	
  9480  1568  0826               	movf	(show_pattern_on_a_plane@j_2169+1),w
  9481  1569  3A80               	xorlw	80h
  9482  156A  00FF               	movwf	btemp+1
  9483  156B  3080               	movlw	(high(01h))^80h
  9484  156C  027F               	subwf	btemp+1,w
  9485  156D  1D03               	skipz
  9486  156E  2D71               	goto	u4155
  9487  156F  3001               	movlw	low(01h)
  9488  1570  0225               	subwf	(show_pattern_on_a_plane@j_2169),w
  9489  1571                     u4155:
  9490                           
  9491  1571  1803               	skipnc
  9492  1572  2D74               	goto	u4151
  9493  1573  2D75               	goto	u4150
  9494  1574                     u4151:
  9495  1574  2D5D               	goto	l5992
  9496  1575                     u4150:
  9497  1575  2D76               	goto	l6002
  9498                           	
  9499  1576                     l1507:	
  9500                           	line	113
  9501                           	
  9502  1576                     l6002:	
  9503                           ;Lightup.c: 112: }
  9504                           ;Lightup.c: 113: PORTD = 1<<i;
  9505  1576  3001               	movlw	(01h)
  9506  1577  00F2               	movwf	(??_show_pattern_on_a_plane+0)+0
  9507  1578  1283               	bcf	status, 5	;RP0=0, select bank0
  9508  1579  1303               	bcf	status, 6	;RP1=0, select bank0
  9509  157A  0A2E               	incf	(show_pattern_on_a_plane@i_2167),w
  9510  157B  2D7E               	goto	u4164
  9511  157C                     u4165:
  9512  157C  1003               	clrc
  9513  157D  0DF2               	rlf	(??_show_pattern_on_a_plane+0)+0,f
  9514  157E                     u4164:
  9515  157E  3EFF               	addlw	-1
  9516  157F  1D03               	skipz
  9517  1580  2D7C               	goto	u4165
  9518  1581  0872               	movf	0+(??_show_pattern_on_a_plane+0)+0,w
  9519  1582  0088               	movwf	(8)	;volatile
  9520                           	line	114
  9521                           	
  9522  1583                     l6004:	
  9523                           ;Lightup.c: 114: _delay((unsigned long)((5)*(20000000/4000.0)));
  9524                           	opt asmopt_off
  9525  1583  3021               movlw	33
  9526  1584  00F3               movwf	((??_show_pattern_on_a_plane+0)+0+1),f
  9527  1585  3076               	movlw	118
  9528  1586  00F2               movwf	((??_show_pattern_on_a_plane+0)+0),f
  9529  1587                     u5597:
  9530  1587  0BF2               	decfsz	((??_show_pattern_on_a_plane+0)+0),f
  9531  1588  2D87               	goto	u5597
  9532  1589  0BF3               	decfsz	((??_show_pattern_on_a_plane+0)+0+1),f
  9533  158A  2D87               	goto	u5597
  9534  158B  0064               	clrwdt
  9535                           opt asmopt_on
  9536                           
  9537                           	line	115
  9538                           	
  9539  158C                     l6006:	
  9540                           ;Lightup.c: 115: PORTD = 0;
  9541  158C  1283               	bcf	status, 5	;RP0=0, select bank0
  9542  158D  1303               	bcf	status, 6	;RP1=0, select bank0
  9543  158E  0188               	clrf	(8)	;volatile
  9544                           	line	95
  9545                           	
  9546  158F                     l6008:	
  9547  158F  3001               	movlw	low(01h)
  9548  1590  07AE               	addwf	(show_pattern_on_a_plane@i_2167),f
  9549  1591  1803               	skipnc
  9550  1592  0AAF               	incf	(show_pattern_on_a_plane@i_2167+1),f
  9551  1593  3000               	movlw	high(01h)
  9552  1594  07AF               	addwf	(show_pattern_on_a_plane@i_2167+1),f
  9553                           	
  9554  1595                     l6010:	
  9555  1595  082F               	movf	(show_pattern_on_a_plane@i_2167+1),w
  9556  1596  3A80               	xorlw	80h
  9557  1597  00FF               	movwf	btemp+1
  9558  1598  3080               	movlw	(high(08h))^80h
  9559  1599  027F               	subwf	btemp+1,w
  9560  159A  1D03               	skipz
  9561  159B  2D9E               	goto	u4175
  9562  159C  3008               	movlw	low(08h)
  9563  159D  022E               	subwf	(show_pattern_on_a_plane@i_2167),w
  9564  159E                     u4175:
  9565                           
  9566  159E  1C03               	skipc
  9567  159F  2DA1               	goto	u4171
  9568  15A0  2DA2               	goto	u4170
  9569  15A1                     u4171:
  9570  15A1  2D01               	goto	l5964
  9571  15A2                     u4170:
  9572  15A2  2DF5               	goto	l1512
  9573                           	
  9574  15A3                     l1503:	
  9575                           	line	117
  9576                           ;Lightup.c: 116: }
  9577                           ;Lightup.c: 117: }
  9578  15A3  2DF5               	goto	l1512
  9579                           	line	119
  9580                           	
  9581  15A4                     l1501:	
  9582                           	
  9583  15A4                     l6012:	
  9584                           ;Lightup.c: 119: else if(plane == 3)
  9585  15A4  0870               	movf	(show_pattern_on_a_plane@plane),w
  9586  15A5  3A03               	xorlw	03h
  9587  15A6  1D03               	skipz
  9588  15A7  2DA9               	goto	u4181
  9589  15A8  2DAA               	goto	u4180
  9590  15A9                     u4181:
  9591  15A9  2DF5               	goto	l1512
  9592  15AA                     u4180:
  9593                           	line	121
  9594                           	
  9595  15AA                     l6014:	
  9596                           ;Lightup.c: 120: {
  9597                           ;Lightup.c: 121: for(int j = 0; j< 8; j++)
  9598  15AA  1283               	bcf	status, 5	;RP0=0, select bank0
  9599  15AB  1303               	bcf	status, 6	;RP1=0, select bank0
  9600  15AC  01A9               	clrf	(show_pattern_on_a_plane@j_2170)
  9601  15AD  01AA               	clrf	(show_pattern_on_a_plane@j_2170+1)
  9602                           	
  9603  15AE                     l6016:	
  9604  15AE  082A               	movf	(show_pattern_on_a_plane@j_2170+1),w
  9605  15AF  3A80               	xorlw	80h
  9606  15B0  00FF               	movwf	btemp+1
  9607  15B1  3080               	movlw	(high(08h))^80h
  9608  15B2  027F               	subwf	btemp+1,w
  9609  15B3  1D03               	skipz
  9610  15B4  2DB7               	goto	u4195
  9611  15B5  3008               	movlw	low(08h)
  9612  15B6  0229               	subwf	(show_pattern_on_a_plane@j_2170),w
  9613  15B7                     u4195:
  9614                           
  9615  15B7  1C03               	skipc
  9616  15B8  2DBA               	goto	u4191
  9617  15B9  2DBB               	goto	u4190
  9618  15BA                     u4191:
  9619  15BA  2DBD               	goto	l6020
  9620  15BB                     u4190:
  9621  15BB  2DDD               	goto	l6030
  9622                           	
  9623  15BC                     l6018:	
  9624  15BC  2DDD               	goto	l6030
  9625                           	line	122
  9626                           	
  9627  15BD                     l1510:	
  9628                           	line	123
  9629                           	
  9630  15BD                     l6020:	
  9631                           ;Lightup.c: 122: {
  9632                           ;Lightup.c: 123: PORTC = pattern_array[j];
  9633  15BD  1283               	bcf	status, 5	;RP0=0, select bank0
  9634  15BE  1303               	bcf	status, 6	;RP1=0, select bank0
  9635  15BF  0829               	movf	(show_pattern_on_a_plane@j_2170),w
  9636  15C0  0771               	addwf	(show_pattern_on_a_plane@pattern_array),w
  9637  15C1  00F2               	movwf	(??_show_pattern_on_a_plane+0)+0
  9638  15C2  0872               	movf	0+(??_show_pattern_on_a_plane+0)+0,w
  9639  15C3  0084               	movwf	fsr0
  9640  15C4  1383               	bcf	status, 7	;select IRP bank0
  9641  15C5  0800               	movf	indf,w
  9642  15C6  0087               	movwf	(7)	;volatile
  9643                           	line	124
  9644                           	
  9645  15C7                     l6022:	
  9646                           ;Lightup.c: 124: RA1 = 1;
  9647  15C7  1485               	bsf	(41/8),(41)&7
  9648                           	line	125
  9649                           	
  9650  15C8                     l6024:	
  9651                           ;Lightup.c: 125: RA1 = 0;
  9652  15C8  1085               	bcf	(41/8),(41)&7
  9653                           	line	121
  9654                           	
  9655  15C9                     l6026:	
  9656  15C9  3001               	movlw	low(01h)
  9657  15CA  07A9               	addwf	(show_pattern_on_a_plane@j_2170),f
  9658  15CB  1803               	skipnc
  9659  15CC  0AAA               	incf	(show_pattern_on_a_plane@j_2170+1),f
  9660  15CD  3000               	movlw	high(01h)
  9661  15CE  07AA               	addwf	(show_pattern_on_a_plane@j_2170+1),f
  9662                           	
  9663  15CF                     l6028:	
  9664  15CF  082A               	movf	(show_pattern_on_a_plane@j_2170+1),w
  9665  15D0  3A80               	xorlw	80h
  9666  15D1  00FF               	movwf	btemp+1
  9667  15D2  3080               	movlw	(high(08h))^80h
  9668  15D3  027F               	subwf	btemp+1,w
  9669  15D4  1D03               	skipz
  9670  15D5  2DD8               	goto	u4205
  9671  15D6  3008               	movlw	low(08h)
  9672  15D7  0229               	subwf	(show_pattern_on_a_plane@j_2170),w
  9673  15D8                     u4205:
  9674                           
  9675  15D8  1C03               	skipc
  9676  15D9  2DDB               	goto	u4201
  9677  15DA  2DDC               	goto	u4200
  9678  15DB                     u4201:
  9679  15DB  2DBD               	goto	l6020
  9680  15DC                     u4200:
  9681  15DC  2DDD               	goto	l6030
  9682                           	
  9683  15DD                     l1511:	
  9684                           	line	127
  9685                           	
  9686  15DD                     l6030:	
  9687                           ;Lightup.c: 126: }
  9688                           ;Lightup.c: 127: PORTD = 1<<layer;
  9689  15DD  3001               	movlw	(01h)
  9690  15DE  00F2               	movwf	(??_show_pattern_on_a_plane+0)+0
  9691  15DF  1283               	bcf	status, 5	;RP0=0, select bank0
  9692  15E0  1303               	bcf	status, 6	;RP1=0, select bank0
  9693  15E1  0A2B               	incf	(show_pattern_on_a_plane@layer),w
  9694  15E2  2DE5               	goto	u4214
  9695  15E3                     u4215:
  9696  15E3  1003               	clrc
  9697  15E4  0DF2               	rlf	(??_show_pattern_on_a_plane+0)+0,f
  9698  15E5                     u4214:
  9699  15E5  3EFF               	addlw	-1
  9700  15E6  1D03               	skipz
  9701  15E7  2DE3               	goto	u4215
  9702  15E8  0872               	movf	0+(??_show_pattern_on_a_plane+0)+0,w
  9703  15E9  0088               	movwf	(8)	;volatile
  9704                           	line	128
  9705                           	
  9706  15EA                     l6032:	
  9707                           ;Lightup.c: 128: _delay((unsigned long)((1)*(20000000/4000.0)));
  9708                           	opt asmopt_off
  9709  15EA  3007               movlw	7
  9710  15EB  00F3               movwf	((??_show_pattern_on_a_plane+0)+0+1),f
  9711  15EC  307D               	movlw	125
  9712  15ED  00F2               movwf	((??_show_pattern_on_a_plane+0)+0),f
  9713  15EE                     u5607:
  9714  15EE  0BF2               	decfsz	((??_show_pattern_on_a_plane+0)+0),f
  9715  15EF  2DEE               	goto	u5607
  9716  15F0  0BF3               	decfsz	((??_show_pattern_on_a_plane+0)+0+1),f
  9717  15F1  2DEE               	goto	u5607
  9718                           opt asmopt_on
  9719                           
  9720  15F2  2DF5               	goto	l1512
  9721                           	line	129
  9722                           	
  9723  15F3                     l1509:	
  9724  15F3  2DF5               	goto	l1512
  9725                           	line	130
  9726                           	
  9727  15F4                     l1508:	
  9728  15F4  2DF5               	goto	l1512
  9729                           	
  9730  15F5                     l1500:	
  9731                           	
  9732  15F5                     l1512:	
  9733  15F5  0008               	return
  9734                           	opt stack 0
  9735                           GLOBAL	__end_of_show_pattern_on_a_plane
  9736  15F6                     	__end_of_show_pattern_on_a_plane:
  9737 ;; =============== function _show_pattern_on_a_plane ends ============
  9738                           
  9739                           	signat	_show_pattern_on_a_plane,12408
  9740                           	global	_set_a_plane
  9741                           psect	text555,local,class=CODE,delta=2
  9742                           global __ptext555
  9743  11DB                     __ptext555:
  9744                           
  9745 ;; *************** function _set_a_plane *****************
  9746 ;; Defined at:
  9747 ;;		line 25 in file "C:\Users\Younce\Desktop\LED Cube 8 x 8 x 8\Lightup.c"
  9748 ;; Parameters:    Size  Location     Type
  9749 ;;  layer           1    wreg     unsigned char 
  9750 ;;  plane           1    0[COMMON] unsigned char 
  9751 ;; Auto vars:     Size  Location     Type
  9752 ;;  layer           1   11[COMMON] unsigned char 
  9753 ;;  j               2    9[COMMON] int 
  9754 ;;  j               2    7[COMMON] int 
  9755 ;;  j               2    5[COMMON] int 
  9756 ;;  j               2    3[COMMON] int 
  9757 ;; Return value:  Size  Location     Type
  9758 ;;		None               void
  9759 ;; Registers used:
  9760 ;;		wreg, status,2, status,0, btemp+1
  9761 ;; Tracked objects:
  9762 ;;		On entry : 0/0
  9763 ;;		On exit  : 0/0
  9764 ;;		Unchanged: 0/0
  9765 ;; Data sizes:     COMMON   BANK0   BANK1   BANK3   BANK2
  9766 ;;      Params:         1       0       0       0       0
  9767 ;;      Locals:         9       0       0       0       0
  9768 ;;      Temps:          2       0       0       0       0
  9769 ;;      Totals:        12       0       0       0       0
  9770 ;;Total ram usage:       12 bytes
  9771 ;; Hardware stack levels used:    1
  9772 ;; This function calls:
  9773 ;;		Nothing
  9774 ;; This function is called by:
  9775 ;;		_choose_mode
  9776 ;;		_plane_left_to_right
  9777 ;;		_plane_bottom_to_top
  9778 ;;		_plane_forward_to_back
  9779 ;;		_dice
  9780 ;; This function uses a non-reentrant model
  9781 ;;
  9782                           psect	text555
  9783                           	file	"C:\Users\Younce\Desktop\LED Cube 8 x 8 x 8\Lightup.c"
  9784                           	line	25
  9785                           	global	__size_of_set_a_plane
  9786  0112                     	__size_of_set_a_plane	equ	__end_of_set_a_plane-_set_a_plane
  9787                           	
  9788  11DB                     _set_a_plane:	
  9789                           	opt	stack 6
  9790                           ; Regs used in _set_a_plane: [wreg+status,2+status,0+btemp+1]
  9791                           ;set_a_plane@layer stored from wreg
  9792  11DB  00FB               	movwf	(set_a_plane@layer)
  9793                           	line	26
  9794                           	
  9795  11DC                     l5836:	
  9796                           ;Lightup.c: 26: if(plane == 1)
  9797  11DC  0870               	movf	(set_a_plane@plane),w
  9798  11DD  3A01               	xorlw	01h
  9799  11DE  1D03               	skipz
  9800  11DF  29E1               	goto	u3891
  9801  11E0  29E2               	goto	u3890
  9802  11E1                     u3891:
  9803  11E1  2A23               	goto	l5856
  9804  11E2                     u3890:
  9805                           	line	28
  9806                           	
  9807  11E2                     l5838:	
  9808                           ;Lightup.c: 27: {
  9809                           ;Lightup.c: 28: for(int j = 0; j< 8; j++)
  9810  11E2  01F3               	clrf	(set_a_plane@j)
  9811  11E3  01F4               	clrf	(set_a_plane@j+1)
  9812                           	
  9813  11E4                     l5840:	
  9814  11E4  0874               	movf	(set_a_plane@j+1),w
  9815  11E5  3A80               	xorlw	80h
  9816  11E6  00FF               	movwf	btemp+1
  9817  11E7  3080               	movlw	(high(08h))^80h
  9818  11E8  027F               	subwf	btemp+1,w
  9819  11E9  1D03               	skipz
  9820  11EA  29ED               	goto	u3905
  9821  11EB  3008               	movlw	low(08h)
  9822  11EC  0273               	subwf	(set_a_plane@j),w
  9823  11ED                     u3905:
  9824                           
  9825  11ED  1C03               	skipc
  9826  11EE  29F0               	goto	u3901
  9827  11EF  29F1               	goto	u3900
  9828  11F0                     u3901:
  9829  11F0  29F3               	goto	l5844
  9830  11F1                     u3900:
  9831  11F1  2A16               	goto	l5854
  9832                           	
  9833  11F2                     l5842:	
  9834  11F2  2A16               	goto	l5854
  9835                           	line	29
  9836                           	
  9837  11F3                     l1480:	
  9838                           	line	31
  9839                           	
  9840  11F3                     l5844:	
  9841                           ;Lightup.c: 29: {
  9842                           ;Lightup.c: 31: PORTC = 1<<layer;
  9843  11F3  3001               	movlw	(01h)
  9844  11F4  00F1               	movwf	(??_set_a_plane+0)+0
  9845  11F5  0A7B               	incf	(set_a_plane@layer),w
  9846  11F6  29F9               	goto	u3914
  9847  11F7                     u3915:
  9848  11F7  1003               	clrc
  9849  11F8  0DF1               	rlf	(??_set_a_plane+0)+0,f
  9850  11F9                     u3914:
  9851  11F9  3EFF               	addlw	-1
  9852  11FA  1D03               	skipz
  9853  11FB  29F7               	goto	u3915
  9854  11FC  0871               	movf	0+(??_set_a_plane+0)+0,w
  9855  11FD  1283               	bcf	status, 5	;RP0=0, select bank0
  9856  11FE  1303               	bcf	status, 6	;RP1=0, select bank0
  9857  11FF  0087               	movwf	(7)	;volatile
  9858                           	line	32
  9859                           	
  9860  1200                     l5846:	
  9861                           ;Lightup.c: 32: RA1 = 1;
  9862  1200  1485               	bsf	(41/8),(41)&7
  9863                           	line	33
  9864                           	
  9865  1201                     l5848:	
  9866                           ;Lightup.c: 33: RA1 = 0;
  9867  1201  1085               	bcf	(41/8),(41)&7
  9868                           	line	28
  9869                           	
  9870  1202                     l5850:	
  9871  1202  3001               	movlw	low(01h)
  9872  1203  07F3               	addwf	(set_a_plane@j),f
  9873  1204  1803               	skipnc
  9874  1205  0AF4               	incf	(set_a_plane@j+1),f
  9875  1206  3000               	movlw	high(01h)
  9876  1207  07F4               	addwf	(set_a_plane@j+1),f
  9877                           	
  9878  1208                     l5852:	
  9879  1208  0874               	movf	(set_a_plane@j+1),w
  9880  1209  3A80               	xorlw	80h
  9881  120A  00FF               	movwf	btemp+1
  9882  120B  3080               	movlw	(high(08h))^80h
  9883  120C  027F               	subwf	btemp+1,w
  9884  120D  1D03               	skipz
  9885  120E  2A11               	goto	u3925
  9886  120F  3008               	movlw	low(08h)
  9887  1210  0273               	subwf	(set_a_plane@j),w
  9888  1211                     u3925:
  9889                           
  9890  1211  1C03               	skipc
  9891  1212  2A14               	goto	u3921
  9892  1213  2A15               	goto	u3920
  9893  1214                     u3921:
  9894  1214  29F3               	goto	l5844
  9895  1215                     u3920:
  9896  1215  2A16               	goto	l5854
  9897                           	
  9898  1216                     l1481:	
  9899                           	line	35
  9900                           	
  9901  1216                     l5854:	
  9902                           ;Lightup.c: 34: }
  9903                           ;Lightup.c: 35: PORTD = 0b11111111;
  9904  1216  30FF               	movlw	(0FFh)
  9905  1217  1283               	bcf	status, 5	;RP0=0, select bank0
  9906  1218  1303               	bcf	status, 6	;RP1=0, select bank0
  9907  1219  0088               	movwf	(8)	;volatile
  9908                           	line	36
  9909                           ;Lightup.c: 36: _delay((unsigned long)((1)*(20000000/4000.0)));
  9910                           	opt asmopt_off
  9911  121A  3007               movlw	7
  9912  121B  00F2               movwf	((??_set_a_plane+0)+0+1),f
  9913  121C  307D               	movlw	125
  9914  121D  00F1               movwf	((??_set_a_plane+0)+0),f
  9915  121E                     u5617:
  9916  121E  0BF1               	decfsz	((??_set_a_plane+0)+0),f
  9917  121F  2A1E               	goto	u5617
  9918  1220  0BF2               	decfsz	((??_set_a_plane+0)+0+1),f
  9919  1221  2A1E               	goto	u5617
  9920                           opt asmopt_on
  9921                           
  9922                           	line	37
  9923                           ;Lightup.c: 37: }
  9924  1222  2AEC               	goto	l1492
  9925                           	line	39
  9926                           	
  9927  1223                     l1479:	
  9928                           	
  9929  1223                     l5856:	
  9930                           ;Lightup.c: 39: else if(plane == 2)
  9931  1223  0870               	movf	(set_a_plane@plane),w
  9932  1224  3A02               	xorlw	02h
  9933  1225  1D03               	skipz
  9934  1226  2A28               	goto	u3931
  9935  1227  2A29               	goto	u3930
  9936  1228                     u3931:
  9937  1228  2AA3               	goto	l5898
  9938  1229                     u3930:
  9939                           	line	41
  9940                           	
  9941  1229                     l5858:	
  9942                           ;Lightup.c: 40: {
  9943                           ;Lightup.c: 41: for(int j = layer; j>0; j--)
  9944  1229  087B               	movf	(set_a_plane@layer),w
  9945  122A  00F1               	movwf	(??_set_a_plane+0)+0
  9946  122B  01F2               	clrf	(??_set_a_plane+0)+0+1
  9947  122C  0871               	movf	0+(??_set_a_plane+0)+0,w
  9948  122D  00F5               	movwf	(set_a_plane@j_2156)
  9949  122E  0872               	movf	1+(??_set_a_plane+0)+0,w
  9950  122F  00F6               	movwf	(set_a_plane@j_2156+1)
  9951                           	
  9952  1230                     l5860:	
  9953  1230  0876               	movf	(set_a_plane@j_2156+1),w
  9954  1231  3A80               	xorlw	80h
  9955  1232  00FF               	movwf	btemp+1
  9956  1233  3080               	movlw	(high(01h))^80h
  9957  1234  027F               	subwf	btemp+1,w
  9958  1235  1D03               	skipz
  9959  1236  2A39               	goto	u3945
  9960  1237  3001               	movlw	low(01h)
  9961  1238  0275               	subwf	(set_a_plane@j_2156),w
  9962  1239                     u3945:
  9963                           
  9964  1239  1803               	skipnc
  9965  123A  2A3C               	goto	u3941
  9966  123B  2A3D               	goto	u3940
  9967  123C                     u3941:
  9968  123C  2A3F               	goto	l5864
  9969  123D                     u3940:
  9970  123D  2A58               	goto	l5874
  9971                           	
  9972  123E                     l5862:	
  9973  123E  2A58               	goto	l5874
  9974                           	line	42
  9975                           	
  9976  123F                     l1484:	
  9977                           	line	43
  9978                           	
  9979  123F                     l5864:	
  9980                           ;Lightup.c: 42: {
  9981                           ;Lightup.c: 43: PORTC = 0;
  9982  123F  1283               	bcf	status, 5	;RP0=0, select bank0
  9983  1240  1303               	bcf	status, 6	;RP1=0, select bank0
  9984  1241  0187               	clrf	(7)	;volatile
  9985                           	line	44
  9986                           	
  9987  1242                     l5866:	
  9988                           ;Lightup.c: 44: RA1 = 1;
  9989  1242  1485               	bsf	(41/8),(41)&7
  9990                           	line	45
  9991                           	
  9992  1243                     l5868:	
  9993                           ;Lightup.c: 45: RA1 = 0;
  9994  1243  1085               	bcf	(41/8),(41)&7
  9995                           	line	41
  9996                           	
  9997  1244                     l5870:	
  9998  1244  30FF               	movlw	low(-1)
  9999  1245  07F5               	addwf	(set_a_plane@j_2156),f
 10000  1246  1803               	skipnc
 10001  1247  0AF6               	incf	(set_a_plane@j_2156+1),f
 10002  1248  30FF               	movlw	high(-1)
 10003  1249  07F6               	addwf	(set_a_plane@j_2156+1),f
 10004                           	
 10005  124A                     l5872:	
 10006  124A  0876               	movf	(set_a_plane@j_2156+1),w
 10007  124B  3A80               	xorlw	80h
 10008  124C  00FF               	movwf	btemp+1
 10009  124D  3080               	movlw	(high(01h))^80h
 10010  124E  027F               	subwf	btemp+1,w
 10011  124F  1D03               	skipz
 10012  1250  2A53               	goto	u3955
 10013  1251  3001               	movlw	low(01h)
 10014  1252  0275               	subwf	(set_a_plane@j_2156),w
 10015  1253                     u3955:
 10016                           
 10017  1253  1803               	skipnc
 10018  1254  2A56               	goto	u3951
 10019  1255  2A57               	goto	u3950
 10020  1256                     u3951:
 10021  1256  2A3F               	goto	l5864
 10022  1257                     u3950:
 10023  1257  2A58               	goto	l5874
 10024                           	
 10025  1258                     l1485:	
 10026                           	line	47
 10027                           	
 10028  1258                     l5874:	
 10029                           ;Lightup.c: 46: }
 10030                           ;Lightup.c: 47: PORTC = 0xff;
 10031  1258  30FF               	movlw	(0FFh)
 10032  1259  1283               	bcf	status, 5	;RP0=0, select bank0
 10033  125A  1303               	bcf	status, 6	;RP1=0, select bank0
 10034  125B  0087               	movwf	(7)	;volatile
 10035                           	line	48
 10036                           	
 10037  125C                     l5876:	
 10038                           ;Lightup.c: 48: RA1 = 1;
 10039  125C  1485               	bsf	(41/8),(41)&7
 10040                           	line	49
 10041                           	
 10042  125D                     l5878:	
 10043                           ;Lightup.c: 49: RA1 = 0;
 10044  125D  1085               	bcf	(41/8),(41)&7
 10045                           	line	50
 10046                           	
 10047  125E                     l5880:	
 10048                           ;Lightup.c: 50: for(int j =7-layer; j>0; j--)
 10049  125E  087B               	movf	(set_a_plane@layer),w
 10050  125F  00F1               	movwf	(??_set_a_plane+0)+0
 10051  1260  01F2               	clrf	(??_set_a_plane+0)+0+1
 10052  1261  09F1               	comf	(??_set_a_plane+0)+0,f
 10053  1262  09F2               	comf	(??_set_a_plane+0)+1,f
 10054  1263  0AF1               	incf	(??_set_a_plane+0)+0,f
 10055  1264  1903               	skipnz
 10056  1265  0AF2               	incf	(??_set_a_plane+0)+1,f
 10057  1266  0871               	movf	0+(??_set_a_plane+0)+0,w
 10058  1267  3E07               	addlw	low(07h)
 10059  1268  00F7               	movwf	(set_a_plane@j_2157)
 10060  1269  0872               	movf	1+(??_set_a_plane+0)+0,w
 10061  126A  1803               	skipnc
 10062  126B  3E01               	addlw	1
 10063  126C  3E00               	addlw	high(07h)
 10064  126D  00F8               	movwf	1+(set_a_plane@j_2157)
 10065                           	
 10066  126E                     l5882:	
 10067  126E  0878               	movf	(set_a_plane@j_2157+1),w
 10068  126F  3A80               	xorlw	80h
 10069  1270  00FF               	movwf	btemp+1
 10070  1271  3080               	movlw	(high(01h))^80h
 10071  1272  027F               	subwf	btemp+1,w
 10072  1273  1D03               	skipz
 10073  1274  2A77               	goto	u3965
 10074  1275  3001               	movlw	low(01h)
 10075  1276  0277               	subwf	(set_a_plane@j_2157),w
 10076  1277                     u3965:
 10077                           
 10078  1277  1803               	skipnc
 10079  1278  2A7A               	goto	u3961
 10080  1279  2A7B               	goto	u3960
 10081  127A                     u3961:
 10082  127A  2A7D               	goto	l5886
 10083  127B                     u3960:
 10084  127B  2A96               	goto	l5896
 10085                           	
 10086  127C                     l5884:	
 10087  127C  2A96               	goto	l5896
 10088                           	line	51
 10089                           	
 10090  127D                     l1486:	
 10091                           	line	52
 10092                           	
 10093  127D                     l5886:	
 10094                           ;Lightup.c: 51: {
 10095                           ;Lightup.c: 52: PORTC = 0;
 10096  127D  1283               	bcf	status, 5	;RP0=0, select bank0
 10097  127E  1303               	bcf	status, 6	;RP1=0, select bank0
 10098  127F  0187               	clrf	(7)	;volatile
 10099                           	line	53
 10100                           	
 10101  1280                     l5888:	
 10102                           ;Lightup.c: 53: RA1 = 1;
 10103  1280  1485               	bsf	(41/8),(41)&7
 10104                           	line	54
 10105                           	
 10106  1281                     l5890:	
 10107                           ;Lightup.c: 54: RA1 = 0;
 10108  1281  1085               	bcf	(41/8),(41)&7
 10109                           	line	50
 10110                           	
 10111  1282                     l5892:	
 10112  1282  30FF               	movlw	low(-1)
 10113  1283  07F7               	addwf	(set_a_plane@j_2157),f
 10114  1284  1803               	skipnc
 10115  1285  0AF8               	incf	(set_a_plane@j_2157+1),f
 10116  1286  30FF               	movlw	high(-1)
 10117  1287  07F8               	addwf	(set_a_plane@j_2157+1),f
 10118                           	
 10119  1288                     l5894:	
 10120  1288  0878               	movf	(set_a_plane@j_2157+1),w
 10121  1289  3A80               	xorlw	80h
 10122  128A  00FF               	movwf	btemp+1
 10123  128B  3080               	movlw	(high(01h))^80h
 10124  128C  027F               	subwf	btemp+1,w
 10125  128D  1D03               	skipz
 10126  128E  2A91               	goto	u3975
 10127  128F  3001               	movlw	low(01h)
 10128  1290  0277               	subwf	(set_a_plane@j_2157),w
 10129  1291                     u3975:
 10130                           
 10131  1291  1803               	skipnc
 10132  1292  2A94               	goto	u3971
 10133  1293  2A95               	goto	u3970
 10134  1294                     u3971:
 10135  1294  2A7D               	goto	l5886
 10136  1295                     u3970:
 10137  1295  2A96               	goto	l5896
 10138                           	
 10139  1296                     l1487:	
 10140                           	line	56
 10141                           	
 10142  1296                     l5896:	
 10143                           ;Lightup.c: 55: }
 10144                           ;Lightup.c: 56: PORTD = 0b111111111;
 10145  1296  30FF               	movlw	(0FFh)
 10146  1297  1283               	bcf	status, 5	;RP0=0, select bank0
 10147  1298  1303               	bcf	status, 6	;RP1=0, select bank0
 10148  1299  0088               	movwf	(8)	;volatile
 10149                           	line	57
 10150                           ;Lightup.c: 57: _delay((unsigned long)((1)*(20000000/4000.0)));
 10151                           	opt asmopt_off
 10152  129A  3007               movlw	7
 10153  129B  00F2               movwf	((??_set_a_plane+0)+0+1),f
 10154  129C  307D               	movlw	125
 10155  129D  00F1               movwf	((??_set_a_plane+0)+0),f
 10156  129E                     u5627:
 10157  129E  0BF1               	decfsz	((??_set_a_plane+0)+0),f
 10158  129F  2A9E               	goto	u5627
 10159  12A0  0BF2               	decfsz	((??_set_a_plane+0)+0+1),f
 10160  12A1  2A9E               	goto	u5627
 10161                           opt asmopt_on
 10162                           
 10163                           	line	58
 10164                           ;Lightup.c: 58: }
 10165  12A2  2AEC               	goto	l1492
 10166                           	line	60
 10167                           	
 10168  12A3                     l1483:	
 10169                           	
 10170  12A3                     l5898:	
 10171                           ;Lightup.c: 60: else if(plane == 3)
 10172  12A3  0870               	movf	(set_a_plane@plane),w
 10173  12A4  3A03               	xorlw	03h
 10174  12A5  1D03               	skipz
 10175  12A6  2AA8               	goto	u3981
 10176  12A7  2AA9               	goto	u3980
 10177  12A8                     u3981:
 10178  12A8  2AEC               	goto	l1492
 10179  12A9                     u3980:
 10180                           	line	62
 10181                           	
 10182  12A9                     l5900:	
 10183                           ;Lightup.c: 61: {
 10184                           ;Lightup.c: 62: for(int j = 0; j< 8; j++)
 10185  12A9  01F9               	clrf	(set_a_plane@j_2158)
 10186  12AA  01FA               	clrf	(set_a_plane@j_2158+1)
 10187                           	
 10188  12AB                     l5902:	
 10189  12AB  087A               	movf	(set_a_plane@j_2158+1),w
 10190  12AC  3A80               	xorlw	80h
 10191  12AD  00FF               	movwf	btemp+1
 10192  12AE  3080               	movlw	(high(08h))^80h
 10193  12AF  027F               	subwf	btemp+1,w
 10194  12B0  1D03               	skipz
 10195  12B1  2AB4               	goto	u3995
 10196  12B2  3008               	movlw	low(08h)
 10197  12B3  0279               	subwf	(set_a_plane@j_2158),w
 10198  12B4                     u3995:
 10199                           
 10200  12B4  1C03               	skipc
 10201  12B5  2AB7               	goto	u3991
 10202  12B6  2AB8               	goto	u3990
 10203  12B7                     u3991:
 10204  12B7  2ABA               	goto	l5906
 10205  12B8                     u3990:
 10206  12B8  2AD4               	goto	l5914
 10207                           	
 10208  12B9                     l5904:	
 10209  12B9  2AD4               	goto	l5914
 10210                           	line	63
 10211                           	
 10212  12BA                     l1490:	
 10213                           	line	64
 10214                           	
 10215  12BA                     l5906:	
 10216                           ;Lightup.c: 63: {
 10217                           ;Lightup.c: 64: PORTC = 0b11111111;
 10218  12BA  30FF               	movlw	(0FFh)
 10219  12BB  1283               	bcf	status, 5	;RP0=0, select bank0
 10220  12BC  1303               	bcf	status, 6	;RP1=0, select bank0
 10221  12BD  0087               	movwf	(7)	;volatile
 10222                           	line	65
 10223                           	
 10224  12BE                     l5908:	
 10225                           ;Lightup.c: 65: RA1 = 1;
 10226  12BE  1485               	bsf	(41/8),(41)&7
 10227                           	line	66
 10228                           	
 10229  12BF                     l5910:	
 10230                           ;Lightup.c: 66: RA1 = 0;
 10231  12BF  1085               	bcf	(41/8),(41)&7
 10232                           	line	62
 10233  12C0  3001               	movlw	low(01h)
 10234  12C1  07F9               	addwf	(set_a_plane@j_2158),f
 10235  12C2  1803               	skipnc
 10236  12C3  0AFA               	incf	(set_a_plane@j_2158+1),f
 10237  12C4  3000               	movlw	high(01h)
 10238  12C5  07FA               	addwf	(set_a_plane@j_2158+1),f
 10239                           	
 10240  12C6                     l5912:	
 10241  12C6  087A               	movf	(set_a_plane@j_2158+1),w
 10242  12C7  3A80               	xorlw	80h
 10243  12C8  00FF               	movwf	btemp+1
 10244  12C9  3080               	movlw	(high(08h))^80h
 10245  12CA  027F               	subwf	btemp+1,w
 10246  12CB  1D03               	skipz
 10247  12CC  2ACF               	goto	u4005
 10248  12CD  3008               	movlw	low(08h)
 10249  12CE  0279               	subwf	(set_a_plane@j_2158),w
 10250  12CF                     u4005:
 10251                           
 10252  12CF  1C03               	skipc
 10253  12D0  2AD2               	goto	u4001
 10254  12D1  2AD3               	goto	u4000
 10255  12D2                     u4001:
 10256  12D2  2ABA               	goto	l5906
 10257  12D3                     u4000:
 10258  12D3  2AD4               	goto	l5914
 10259                           	
 10260  12D4                     l1491:	
 10261                           	line	68
 10262                           	
 10263  12D4                     l5914:	
 10264                           ;Lightup.c: 67: }
 10265                           ;Lightup.c: 68: PORTD = 1<<layer;
 10266  12D4  3001               	movlw	(01h)
 10267  12D5  00F1               	movwf	(??_set_a_plane+0)+0
 10268  12D6  0A7B               	incf	(set_a_plane@layer),w
 10269  12D7  2ADA               	goto	u4014
 10270  12D8                     u4015:
 10271  12D8  1003               	clrc
 10272  12D9  0DF1               	rlf	(??_set_a_plane+0)+0,f
 10273  12DA                     u4014:
 10274  12DA  3EFF               	addlw	-1
 10275  12DB  1D03               	skipz
 10276  12DC  2AD8               	goto	u4015
 10277  12DD  0871               	movf	0+(??_set_a_plane+0)+0,w
 10278  12DE  1283               	bcf	status, 5	;RP0=0, select bank0
 10279  12DF  1303               	bcf	status, 6	;RP1=0, select bank0
 10280  12E0  0088               	movwf	(8)	;volatile
 10281                           	line	69
 10282                           	
 10283  12E1                     l5916:	
 10284                           ;Lightup.c: 69: _delay((unsigned long)((1)*(20000000/4000.0)));
 10285                           	opt asmopt_off
 10286  12E1  3007               movlw	7
 10287  12E2  00F2               movwf	((??_set_a_plane+0)+0+1),f
 10288  12E3  307D               	movlw	125
 10289  12E4  00F1               movwf	((??_set_a_plane+0)+0),f
 10290  12E5                     u5637:
 10291  12E5  0BF1               	decfsz	((??_set_a_plane+0)+0),f
 10292  12E6  2AE5               	goto	u5637
 10293  12E7  0BF2               	decfsz	((??_set_a_plane+0)+0+1),f
 10294  12E8  2AE5               	goto	u5637
 10295                           opt asmopt_on
 10296                           
 10297  12E9  2AEC               	goto	l1492
 10298                           	line	70
 10299                           	
 10300  12EA                     l1489:	
 10301  12EA  2AEC               	goto	l1492
 10302                           	line	71
 10303                           	
 10304  12EB                     l1488:	
 10305  12EB  2AEC               	goto	l1492
 10306                           	
 10307  12EC                     l1482:	
 10308                           	
 10309  12EC                     l1492:	
 10310  12EC  0008               	return
 10311                           	opt stack 0
 10312                           GLOBAL	__end_of_set_a_plane
 10313  12ED                     	__end_of_set_a_plane:
 10314 ;; =============== function _set_a_plane ends ============
 10315                           
 10316                           	signat	_set_a_plane,8312
 10317                           	global	_delay_using_adc
 10318                           psect	text556,local,class=CODE,delta=2
 10319                           global __ptext556
 10320  0013                     __ptext556:
 10321                           
 10322 ;; *************** function _delay_using_adc *****************
 10323 ;; Defined at:
 10324 ;;		line 102 in file "C:\Users\Younce\Desktop\LED Cube 8 x 8 x 8\LED Cube.c"
 10325 ;; Parameters:    Size  Location     Type
 10326 ;;  scale           1    wreg     unsigned char 
 10327 ;; Auto vars:     Size  Location     Type
 10328 ;;  scale           1    4[BANK0 ] unsigned char 
 10329 ;;  adc_delay       2    2[BANK0 ] unsigned int 
 10330 ;; Return value:  Size  Location     Type
 10331 ;;		None               void
 10332 ;; Registers used:
 10333 ;;		wreg, status,2, status,0, btemp+1, pclath, cstack
 10334 ;; Tracked objects:
 10335 ;;		On entry : 0/0
 10336 ;;		On exit  : 0/0
 10337 ;;		Unchanged: 0/0
 10338 ;; Data sizes:     COMMON   BANK0   BANK1   BANK3   BANK2
 10339 ;;      Params:         0       0       0       0       0
 10340 ;;      Locals:         0       3       0       0       0
 10341 ;;      Temps:          0       2       0       0       0
 10342 ;;      Totals:         0       5       0       0       0
 10343 ;;Total ram usage:        5 bytes
 10344 ;; Hardware stack levels used:    1
 10345 ;; Hardware stack levels required when called:    1
 10346 ;; This function calls:
 10347 ;;		_get_adc_value
 10348 ;;		___wmul
 10349 ;;		_delay
 10350 ;; This function is called by:
 10351 ;;		_moving_point_in_sequence
 10352 ;;		_plane_left_to_right
 10353 ;;		_plane_bottom_to_top
 10354 ;;		_plane_forward_to_back
 10355 ;;		_flying_alphabet
 10356 ;; This function uses a non-reentrant model
 10357 ;;
 10358                           psect	text556
 10359                           	file	"C:\Users\Younce\Desktop\LED Cube 8 x 8 x 8\LED Cube.c"
 10360                           	line	102
 10361                           	global	__size_of_delay_using_adc
 10362  0037                     	__size_of_delay_using_adc	equ	__end_of_delay_using_adc-_delay_using_adc
 10363                           	
 10364  0013                     _delay_using_adc:	
 10365                           	opt	stack 5
 10366                           ; Regs used in _delay_using_adc: [wreg+status,2+status,0+btemp+1+pclath+cstack]
 10367                           ;delay_using_adc@scale stored from wreg
 10368  0013  1283               	bcf	status, 5	;RP0=0, select bank0
 10369  0014  1303               	bcf	status, 6	;RP1=0, select bank0
 10370  0015  00A4               	movwf	(delay_using_adc@scale)
 10371                           	line	103
 10372                           	
 10373  0016                     l5828:	
 10374                           ;LED Cube.c: 103: if(scale>=0 && scale<=50)
 10375  0016  3033               	movlw	(033h)
 10376  0017  0224               	subwf	(delay_using_adc@scale),w
 10377  0018  1803               	skipnc
 10378  0019  281B               	goto	u3881
 10379  001A  281C               	goto	u3880
 10380  001B                     u3881:
 10381  001B  2849               	goto	l743
 10382  001C                     u3880:
 10383                           	line	105
 10384                           	
 10385  001C                     l5830:	
 10386                           ;LED Cube.c: 104: {
 10387                           ;LED Cube.c: 105: unsigned int adc_delay = 0;
 10388  001C  01A2               	clrf	(delay_using_adc@adc_delay)
 10389  001D  01A3               	clrf	(delay_using_adc@adc_delay+1)
 10390                           	line	106
 10391                           	
 10392  001E                     l5832:	
 10393                           ;LED Cube.c: 106: adc_delay = get_adc_value();
 10394  001E  160A  158A  250F   	fcall	_get_adc_value
              120A  118A         
 10395  0023  0871               	movf	(1+(?_get_adc_value)),w
 10396  0024  1283               	bcf	status, 5	;RP0=0, select bank0
 10397  0025  1303               	bcf	status, 6	;RP1=0, select bank0
 10398  0026  01A3               	clrf	(delay_using_adc@adc_delay+1)
 10399  0027  07A3               	addwf	(delay_using_adc@adc_delay+1)
 10400  0028  0870               	movf	(0+(?_get_adc_value)),w
 10401  0029  01A2               	clrf	(delay_using_adc@adc_delay)
 10402  002A  07A2               	addwf	(delay_using_adc@adc_delay)
 10403                           
 10404                           	line	107
 10405                           	
 10406  002B                     l5834:	
 10407                           ;LED Cube.c: 107: delay(adc_delay*scale);
 10408  002B  0824               	movf	(delay_using_adc@scale),w
 10409  002C  00A0               	movwf	(??_delay_using_adc+0)+0
 10410  002D  01A1               	clrf	(??_delay_using_adc+0)+0+1
 10411  002E  0820               	movf	0+(??_delay_using_adc+0)+0,w
 10412  002F  00F0               	movwf	(?___wmul)
 10413  0030  0821               	movf	1+(??_delay_using_adc+0)+0,w
 10414  0031  00F1               	movwf	(?___wmul+1)
 10415  0032  0823               	movf	(delay_using_adc@adc_delay+1),w
 10416  0033  01F3               	clrf	1+(?___wmul)+02h
 10417  0034  07F3               	addwf	1+(?___wmul)+02h
 10418  0035  0822               	movf	(delay_using_adc@adc_delay),w
 10419  0036  01F2               	clrf	0+(?___wmul)+02h
 10420  0037  07F2               	addwf	0+(?___wmul)+02h
 10421                           
 10422  0038  160A  158A  24E5   	fcall	___wmul
              120A  118A         
 10423  003D  0870               	movf	(0+(?___wmul)),w
 10424  003E  00F6               	movwf	(?_delay)
 10425  003F  0871               	movf	(1+(?___wmul)),w
 10426  0040  00F7               	movwf	((?_delay))+1
 10427  0041  01F8               	clrf	2+((?_delay))
 10428  0042  01F9               	clrf	3+((?_delay))
 10429  0043  160A  158A  253B   	fcall	_delay
              120A  118A         
 10430  0048  2849               	goto	l743
 10431                           	line	108
 10432                           	
 10433  0049                     l742:	
 10434                           	line	109
 10435                           	
 10436  0049                     l743:	
 10437  0049  0008               	return
 10438                           	opt stack 0
 10439                           GLOBAL	__end_of_delay_using_adc
 10440  004A                     	__end_of_delay_using_adc:
 10441 ;; =============== function _delay_using_adc ends ============
 10442                           
 10443                           	signat	_delay_using_adc,4216
 10444                           	global	___wmul
 10445                           psect	text557,local,class=CODE,delta=2
 10446                           global __ptext557
 10447  1CE5                     __ptext557:
 10448                           
 10449 ;; *************** function ___wmul *****************
 10450 ;; Defined at:
 10451 ;;		line 3 in file "C:\Program Files (x86)\HI-TECH Software\PICC\9.82\sources\wmul.c"
 10452 ;; Parameters:    Size  Location     Type
 10453 ;;  multiplier      2    0[COMMON] unsigned int 
 10454 ;;  multiplicand    2    2[COMMON] unsigned int 
 10455 ;; Auto vars:     Size  Location     Type
 10456 ;;  product         2    4[COMMON] unsigned int 
 10457 ;; Return value:  Size  Location     Type
 10458 ;;                  2    0[COMMON] unsigned int 
 10459 ;; Registers used:
 10460 ;;		wreg, status,2, status,0
 10461 ;; Tracked objects:
 10462 ;;		On entry : 0/0
 10463 ;;		On exit  : 0/0
 10464 ;;		Unchanged: 0/0
 10465 ;; Data sizes:     COMMON   BANK0   BANK1   BANK3   BANK2
 10466 ;;      Params:         4       0       0       0       0
 10467 ;;      Locals:         2       0       0       0       0
 10468 ;;      Temps:          0       0       0       0       0
 10469 ;;      Totals:         6       0       0       0       0
 10470 ;;Total ram usage:        6 bytes
 10471 ;; Hardware stack levels used:    1
 10472 ;; This function calls:
 10473 ;;		Nothing
 10474 ;; This function is called by:
 10475 ;;		_delay_using_adc
 10476 ;; This function uses a non-reentrant model
 10477 ;;
 10478                           psect	text557
 10479                           	file	"C:\Program Files (x86)\HI-TECH Software\PICC\9.82\sources\wmul.c"
 10480                           	line	3
 10481                           	global	__size_of___wmul
 10482  002A                     	__size_of___wmul	equ	__end_of___wmul-___wmul
 10483                           	
 10484  1CE5                     ___wmul:	
 10485                           	opt	stack 5
 10486                           ; Regs used in ___wmul: [wreg+status,2+status,0]
 10487                           	line	4
 10488                           	
 10489  1CE5                     l5816:	
 10490  1CE5  01F4               	clrf	(___wmul@product)
 10491  1CE6  01F5               	clrf	(___wmul@product+1)
 10492  1CE7  2CE8               	goto	l5818
 10493                           	line	6
 10494                           	
 10495  1CE8                     l3116:	
 10496                           	line	7
 10497                           	
 10498  1CE8                     l5818:	
 10499  1CE8  1C70               	btfss	(___wmul@multiplier),(0)&7
 10500  1CE9  2CEB               	goto	u3841
 10501  1CEA  2CEC               	goto	u3840
 10502  1CEB                     u3841:
 10503  1CEB  2CF2               	goto	l3117
 10504  1CEC                     u3840:
 10505                           	line	8
 10506                           	
 10507  1CEC                     l5820:	
 10508  1CEC  0872               	movf	(___wmul@multiplicand),w
 10509  1CED  07F4               	addwf	(___wmul@product),f
 10510  1CEE  1803               	skipnc
 10511  1CEF  0AF5               	incf	(___wmul@product+1),f
 10512  1CF0  0873               	movf	(___wmul@multiplicand+1),w
 10513  1CF1  07F5               	addwf	(___wmul@product+1),f
 10514                           	
 10515  1CF2                     l3117:	
 10516                           	line	9
 10517  1CF2  3001               	movlw	01h
 10518                           	
 10519  1CF3                     u3855:
 10520  1CF3  1003               	clrc
 10521  1CF4  0DF2               	rlf	(___wmul@multiplicand),f
 10522  1CF5  0DF3               	rlf	(___wmul@multiplicand+1),f
 10523  1CF6  3EFF               	addlw	-1
 10524  1CF7  1D03               	skipz
 10525  1CF8  2CF3               	goto	u3855
 10526                           	line	10
 10527                           	
 10528  1CF9                     l5822:	
 10529  1CF9  3001               	movlw	01h
 10530                           	
 10531  1CFA                     u3865:
 10532  1CFA  1003               	clrc
 10533  1CFB  0CF1               	rrf	(___wmul@multiplier+1),f
 10534  1CFC  0CF0               	rrf	(___wmul@multiplier),f
 10535  1CFD  3EFF               	addlw	-1
 10536  1CFE  1D03               	skipz
 10537  1CFF  2CFA               	goto	u3865
 10538                           	line	11
 10539  1D00  0871               	movf	((___wmul@multiplier+1)),w
 10540  1D01  0470               	iorwf	((___wmul@multiplier)),w
 10541  1D02  1D03               	skipz
 10542  1D03  2D05               	goto	u3871
 10543  1D04  2D06               	goto	u3870
 10544  1D05                     u3871:
 10545  1D05  2CE8               	goto	l5818
 10546  1D06                     u3870:
 10547  1D06  2D07               	goto	l5824
 10548                           	
 10549  1D07                     l3118:	
 10550                           	line	12
 10551                           	
 10552  1D07                     l5824:	
 10553  1D07  0875               	movf	(___wmul@product+1),w
 10554  1D08  01F1               	clrf	(?___wmul+1)
 10555  1D09  07F1               	addwf	(?___wmul+1)
 10556  1D0A  0874               	movf	(___wmul@product),w
 10557  1D0B  01F0               	clrf	(?___wmul)
 10558  1D0C  07F0               	addwf	(?___wmul)
 10559                           
 10560  1D0D  2D0E               	goto	l3119
 10561                           	
 10562  1D0E                     l5826:	
 10563                           	line	13
 10564                           	
 10565  1D0E                     l3119:	
 10566  1D0E  0008               	return
 10567                           	opt stack 0
 10568                           GLOBAL	__end_of___wmul
 10569  1D0F                     	__end_of___wmul:
 10570 ;; =============== function ___wmul ends ============
 10571                           
 10572                           	signat	___wmul,8314
 10573                           	global	_choose_alphabet
 10574                           psect	text558,local,class=CODE,delta=2
 10575                           global __ptext558
 10576  09E3                     __ptext558:
 10577                           
 10578 ;; *************** function _choose_alphabet *****************
 10579 ;; Defined at:
 10580 ;;		line 90 in file "C:\Users\Younce\Desktop\LED Cube 8 x 8 x 8\Effect.c"
 10581 ;; Parameters:    Size  Location     Type
 10582 ;;  alphabet        1    wreg     unsigned char 
 10583 ;;  alphabet_arr    1    0[COMMON] PTR unsigned char 
 10584 ;;		 -> flying_character_of_a_word@alphabet_pattern(8), flying_alphabet@temp_alphabet_array(8), show_mode@mode_pattern(8
       ), 
 10585 ;; Auto vars:     Size  Location     Type
 10586 ;;  alphabet        1    2[COMMON] unsigned char 
 10587 ;; Return value:  Size  Location     Type
 10588 ;;		None               void
 10589 ;; Registers used:
 10590 ;;		wreg, fsr0l, fsr0h, status,2, status,0
 10591 ;; Tracked objects:
 10592 ;;		On entry : 0/0
 10593 ;;		On exit  : 0/0
 10594 ;;		Unchanged: 0/0
 10595 ;; Data sizes:     COMMON   BANK0   BANK1   BANK3   BANK2
 10596 ;;      Params:         1       0       0       0       0
 10597 ;;      Locals:         1       0       0       0       0
 10598 ;;      Temps:          1       0       0       0       0
 10599 ;;      Totals:         3       0       0       0       0
 10600 ;;Total ram usage:        3 bytes
 10601 ;; Hardware stack levels used:    1
 10602 ;; This function calls:
 10603 ;;		Nothing
 10604 ;; This function is called by:
 10605 ;;		_show_mode
 10606 ;;		_flying_character_of_a_word
 10607 ;;		_flying_alphabet
 10608 ;; This function uses a non-reentrant model
 10609 ;;
 10610                           psect	text558
 10611                           	file	"C:\Users\Younce\Desktop\LED Cube 8 x 8 x 8\Effect.c"
 10612                           	line	90
 10613                           	global	__size_of_choose_alphabet
 10614  061D                     	__size_of_choose_alphabet	equ	__end_of_choose_alphabet-_choose_alphabet
 10615                           	
 10616  09E3                     _choose_alphabet:	
 10617                           	opt	stack 6
 10618                           ; Regs used in _choose_alphabet: [wreg-fsr0h+status,2+status,0]
 10619                           ;choose_alphabet@alphabet stored from wreg
 10620  09E3  00F2               	movwf	(choose_alphabet@alphabet)
 10621                           	line	91
 10622                           	
 10623  09E4                     l5708:	
 10624                           ;Effect.c: 91: switch(alphabet)
 10625  09E4  2FAF               	goto	l5776
 10626                           	line	93
 10627                           ;Effect.c: 92: {
 10628                           ;Effect.c: 93: case 'A': alphabet_array[0] = 0xc3;
 10629                           	
 10630  09E5                     l2256:	
 10631                           	
 10632  09E5                     l5710:	
 10633  09E5  30C3               	movlw	(0C3h)
 10634  09E6  00F1               	movwf	(??_choose_alphabet+0)+0
 10635  09E7  0870               	movf	(choose_alphabet@alphabet_array),w
 10636  09E8  0084               	movwf	fsr0
 10637  09E9  0871               	movf	(??_choose_alphabet+0)+0,w
 10638  09EA  1383               	bcf	status, 7	;select IRP bank0
 10639  09EB  0080               	movwf	indf
 10640                           	line	94
 10641                           	
 10642  09EC                     l5712:	
 10643                           ;Effect.c: 94: alphabet_array[1] = 0xc3;
 10644  09EC  30C3               	movlw	(0C3h)
 10645  09ED  00F1               	movwf	(??_choose_alphabet+0)+0
 10646  09EE  0870               	movf	(choose_alphabet@alphabet_array),w
 10647  09EF  3E01               	addlw	01h
 10648  09F0  0084               	movwf	fsr0
 10649  09F1  0871               	movf	(??_choose_alphabet+0)+0,w
 10650  09F2  0080               	movwf	indf
 10651                           	line	95
 10652                           	
 10653  09F3                     l5714:	
 10654                           ;Effect.c: 95: alphabet_array[2] = 0xff;
 10655  09F3  30FF               	movlw	(0FFh)
 10656  09F4  00F1               	movwf	(??_choose_alphabet+0)+0
 10657  09F5  0870               	movf	(choose_alphabet@alphabet_array),w
 10658  09F6  3E02               	addlw	02h
 10659  09F7  0084               	movwf	fsr0
 10660  09F8  0871               	movf	(??_choose_alphabet+0)+0,w
 10661  09F9  0080               	movwf	indf
 10662                           	line	96
 10663                           	
 10664  09FA                     l5716:	
 10665                           ;Effect.c: 96: alphabet_array[3] = 0xff;
 10666  09FA  30FF               	movlw	(0FFh)
 10667  09FB  00F1               	movwf	(??_choose_alphabet+0)+0
 10668  09FC  0870               	movf	(choose_alphabet@alphabet_array),w
 10669  09FD  3E03               	addlw	03h
 10670  09FE  0084               	movwf	fsr0
 10671  09FF  0871               	movf	(??_choose_alphabet+0)+0,w
 10672  0A00  0080               	movwf	indf
 10673                           	line	97
 10674                           	
 10675  0A01                     l5718:	
 10676                           ;Effect.c: 97: alphabet_array[4] = 0xc3;
 10677  0A01  30C3               	movlw	(0C3h)
 10678  0A02  00F1               	movwf	(??_choose_alphabet+0)+0
 10679  0A03  0870               	movf	(choose_alphabet@alphabet_array),w
 10680  0A04  3E04               	addlw	04h
 10681  0A05  0084               	movwf	fsr0
 10682  0A06  0871               	movf	(??_choose_alphabet+0)+0,w
 10683  0A07  0080               	movwf	indf
 10684                           	line	98
 10685                           	
 10686  0A08                     l5720:	
 10687                           ;Effect.c: 98: alphabet_array[5] = 0xe7;
 10688  0A08  30E7               	movlw	(0E7h)
 10689  0A09  00F1               	movwf	(??_choose_alphabet+0)+0
 10690  0A0A  0870               	movf	(choose_alphabet@alphabet_array),w
 10691  0A0B  3E05               	addlw	05h
 10692  0A0C  0084               	movwf	fsr0
 10693  0A0D  0871               	movf	(??_choose_alphabet+0)+0,w
 10694  0A0E  0080               	movwf	indf
 10695                           	line	99
 10696                           	
 10697  0A0F                     l5722:	
 10698                           ;Effect.c: 99: alphabet_array[6] = 0x7e;
 10699  0A0F  307E               	movlw	(07Eh)
 10700  0A10  00F1               	movwf	(??_choose_alphabet+0)+0
 10701  0A11  0870               	movf	(choose_alphabet@alphabet_array),w
 10702  0A12  3E06               	addlw	06h
 10703  0A13  0084               	movwf	fsr0
 10704  0A14  0871               	movf	(??_choose_alphabet+0)+0,w
 10705  0A15  0080               	movwf	indf
 10706                           	line	100
 10707                           	
 10708  0A16                     l5724:	
 10709                           ;Effect.c: 100: alphabet_array[7] = 0x3c;
 10710  0A16  303C               	movlw	(03Ch)
 10711  0A17  00F1               	movwf	(??_choose_alphabet+0)+0
 10712  0A18  0870               	movf	(choose_alphabet@alphabet_array),w
 10713  0A19  3E07               	addlw	07h
 10714  0A1A  0084               	movwf	fsr0
 10715  0A1B  0871               	movf	(??_choose_alphabet+0)+0,w
 10716  0A1C  0080               	movwf	indf
 10717                           	line	101
 10718                           ;Effect.c: 101: break;
 10719  0A1D  2FFF               	goto	l2283
 10720                           	line	103
 10721                           ;Effect.c: 103: case 'B': alphabet_array[0] = 0x3f;
 10722                           	
 10723  0A1E                     l2258:	
 10724                           	
 10725  0A1E                     l5726:	
 10726  0A1E  303F               	movlw	(03Fh)
 10727  0A1F  00F1               	movwf	(??_choose_alphabet+0)+0
 10728  0A20  0870               	movf	(choose_alphabet@alphabet_array),w
 10729  0A21  0084               	movwf	fsr0
 10730  0A22  0871               	movf	(??_choose_alphabet+0)+0,w
 10731  0A23  1383               	bcf	status, 7	;select IRP bank0
 10732  0A24  0080               	movwf	indf
 10733                           	line	104
 10734                           ;Effect.c: 104: alphabet_array[1] = 0xff;
 10735  0A25  30FF               	movlw	(0FFh)
 10736  0A26  00F1               	movwf	(??_choose_alphabet+0)+0
 10737  0A27  0870               	movf	(choose_alphabet@alphabet_array),w
 10738  0A28  3E01               	addlw	01h
 10739  0A29  0084               	movwf	fsr0
 10740  0A2A  0871               	movf	(??_choose_alphabet+0)+0,w
 10741  0A2B  0080               	movwf	indf
 10742                           	line	105
 10743                           ;Effect.c: 105: alphabet_array[2] = 0xc3;
 10744  0A2C  30C3               	movlw	(0C3h)
 10745  0A2D  00F1               	movwf	(??_choose_alphabet+0)+0
 10746  0A2E  0870               	movf	(choose_alphabet@alphabet_array),w
 10747  0A2F  3E02               	addlw	02h
 10748  0A30  0084               	movwf	fsr0
 10749  0A31  0871               	movf	(??_choose_alphabet+0)+0,w
 10750  0A32  0080               	movwf	indf
 10751                           	line	106
 10752                           ;Effect.c: 106: alphabet_array[3] = 0xff;
 10753  0A33  30FF               	movlw	(0FFh)
 10754  0A34  00F1               	movwf	(??_choose_alphabet+0)+0
 10755  0A35  0870               	movf	(choose_alphabet@alphabet_array),w
 10756  0A36  3E03               	addlw	03h
 10757  0A37  0084               	movwf	fsr0
 10758  0A38  0871               	movf	(??_choose_alphabet+0)+0,w
 10759  0A39  0080               	movwf	indf
 10760                           	line	107
 10761                           ;Effect.c: 107: alphabet_array[4] = 0xff;
 10762  0A3A  30FF               	movlw	(0FFh)
 10763  0A3B  00F1               	movwf	(??_choose_alphabet+0)+0
 10764  0A3C  0870               	movf	(choose_alphabet@alphabet_array),w
 10765  0A3D  3E04               	addlw	04h
 10766  0A3E  0084               	movwf	fsr0
 10767  0A3F  0871               	movf	(??_choose_alphabet+0)+0,w
 10768  0A40  0080               	movwf	indf
 10769                           	line	108
 10770                           ;Effect.c: 108: alphabet_array[5] = 0xc3;
 10771  0A41  30C3               	movlw	(0C3h)
 10772  0A42  00F1               	movwf	(??_choose_alphabet+0)+0
 10773  0A43  0870               	movf	(choose_alphabet@alphabet_array),w
 10774  0A44  3E05               	addlw	05h
 10775  0A45  0084               	movwf	fsr0
 10776  0A46  0871               	movf	(??_choose_alphabet+0)+0,w
 10777  0A47  0080               	movwf	indf
 10778                           	line	109
 10779                           ;Effect.c: 109: alphabet_array[6] = 0xff;
 10780  0A48  30FF               	movlw	(0FFh)
 10781  0A49  00F1               	movwf	(??_choose_alphabet+0)+0
 10782  0A4A  0870               	movf	(choose_alphabet@alphabet_array),w
 10783  0A4B  3E06               	addlw	06h
 10784  0A4C  0084               	movwf	fsr0
 10785  0A4D  0871               	movf	(??_choose_alphabet+0)+0,w
 10786  0A4E  0080               	movwf	indf
 10787                           	line	110
 10788                           ;Effect.c: 110: alphabet_array[7] = 0x3f;
 10789  0A4F  303F               	movlw	(03Fh)
 10790  0A50  00F1               	movwf	(??_choose_alphabet+0)+0
 10791  0A51  0870               	movf	(choose_alphabet@alphabet_array),w
 10792  0A52  3E07               	addlw	07h
 10793  0A53  0084               	movwf	fsr0
 10794  0A54  0871               	movf	(??_choose_alphabet+0)+0,w
 10795  0A55  0080               	movwf	indf
 10796                           	line	111
 10797                           ;Effect.c: 111: break;
 10798  0A56  2FFF               	goto	l2283
 10799                           	line	113
 10800                           ;Effect.c: 113: case 'C': alphabet_array[0] = 0xff;
 10801                           	
 10802  0A57                     l2259:	
 10803                           	
 10804  0A57                     l5728:	
 10805  0A57  30FF               	movlw	(0FFh)
 10806  0A58  00F1               	movwf	(??_choose_alphabet+0)+0
 10807  0A59  0870               	movf	(choose_alphabet@alphabet_array),w
 10808  0A5A  0084               	movwf	fsr0
 10809  0A5B  0871               	movf	(??_choose_alphabet+0)+0,w
 10810  0A5C  1383               	bcf	status, 7	;select IRP bank0
 10811  0A5D  0080               	movwf	indf
 10812                           	line	114
 10813                           ;Effect.c: 114: alphabet_array[1] = 0xff;
 10814  0A5E  30FF               	movlw	(0FFh)
 10815  0A5F  00F1               	movwf	(??_choose_alphabet+0)+0
 10816  0A60  0870               	movf	(choose_alphabet@alphabet_array),w
 10817  0A61  3E01               	addlw	01h
 10818  0A62  0084               	movwf	fsr0
 10819  0A63  0871               	movf	(??_choose_alphabet+0)+0,w
 10820  0A64  0080               	movwf	indf
 10821                           	line	115
 10822                           ;Effect.c: 115: alphabet_array[2] = 0x03;
 10823  0A65  3003               	movlw	(03h)
 10824  0A66  00F1               	movwf	(??_choose_alphabet+0)+0
 10825  0A67  0870               	movf	(choose_alphabet@alphabet_array),w
 10826  0A68  3E02               	addlw	02h
 10827  0A69  0084               	movwf	fsr0
 10828  0A6A  0871               	movf	(??_choose_alphabet+0)+0,w
 10829  0A6B  0080               	movwf	indf
 10830                           	line	116
 10831                           ;Effect.c: 116: alphabet_array[3] = 0x03;
 10832  0A6C  3003               	movlw	(03h)
 10833  0A6D  00F1               	movwf	(??_choose_alphabet+0)+0
 10834  0A6E  0870               	movf	(choose_alphabet@alphabet_array),w
 10835  0A6F  3E03               	addlw	03h
 10836  0A70  0084               	movwf	fsr0
 10837  0A71  0871               	movf	(??_choose_alphabet+0)+0,w
 10838  0A72  0080               	movwf	indf
 10839                           	line	117
 10840                           ;Effect.c: 117: alphabet_array[4] = 0x03;
 10841  0A73  3003               	movlw	(03h)
 10842  0A74  00F1               	movwf	(??_choose_alphabet+0)+0
 10843  0A75  0870               	movf	(choose_alphabet@alphabet_array),w
 10844  0A76  3E04               	addlw	04h
 10845  0A77  0084               	movwf	fsr0
 10846  0A78  0871               	movf	(??_choose_alphabet+0)+0,w
 10847  0A79  0080               	movwf	indf
 10848                           	line	118
 10849                           ;Effect.c: 118: alphabet_array[5] = 0x03;
 10850  0A7A  3003               	movlw	(03h)
 10851  0A7B  00F1               	movwf	(??_choose_alphabet+0)+0
 10852  0A7C  0870               	movf	(choose_alphabet@alphabet_array),w
 10853  0A7D  3E05               	addlw	05h
 10854  0A7E  0084               	movwf	fsr0
 10855  0A7F  0871               	movf	(??_choose_alphabet+0)+0,w
 10856  0A80  0080               	movwf	indf
 10857                           	line	119
 10858                           ;Effect.c: 119: alphabet_array[6] = 0xff;
 10859  0A81  30FF               	movlw	(0FFh)
 10860  0A82  00F1               	movwf	(??_choose_alphabet+0)+0
 10861  0A83  0870               	movf	(choose_alphabet@alphabet_array),w
 10862  0A84  3E06               	addlw	06h
 10863  0A85  0084               	movwf	fsr0
 10864  0A86  0871               	movf	(??_choose_alphabet+0)+0,w
 10865  0A87  0080               	movwf	indf
 10866                           	line	120
 10867                           ;Effect.c: 120: alphabet_array[7] = 0xff;
 10868  0A88  30FF               	movlw	(0FFh)
 10869  0A89  00F1               	movwf	(??_choose_alphabet+0)+0
 10870  0A8A  0870               	movf	(choose_alphabet@alphabet_array),w
 10871  0A8B  3E07               	addlw	07h
 10872  0A8C  0084               	movwf	fsr0
 10873  0A8D  0871               	movf	(??_choose_alphabet+0)+0,w
 10874  0A8E  0080               	movwf	indf
 10875                           	line	121
 10876                           ;Effect.c: 121: break;
 10877  0A8F  2FFF               	goto	l2283
 10878                           	line	123
 10879                           ;Effect.c: 123: case 'D': alphabet_array[0] = 0x3f;
 10880                           	
 10881  0A90                     l2260:	
 10882                           	
 10883  0A90                     l5730:	
 10884  0A90  303F               	movlw	(03Fh)
 10885  0A91  00F1               	movwf	(??_choose_alphabet+0)+0
 10886  0A92  0870               	movf	(choose_alphabet@alphabet_array),w
 10887  0A93  0084               	movwf	fsr0
 10888  0A94  0871               	movf	(??_choose_alphabet+0)+0,w
 10889  0A95  1383               	bcf	status, 7	;select IRP bank0
 10890  0A96  0080               	movwf	indf
 10891                           	line	124
 10892                           ;Effect.c: 124: alphabet_array[1] = 0x7f;
 10893  0A97  307F               	movlw	(07Fh)
 10894  0A98  00F1               	movwf	(??_choose_alphabet+0)+0
 10895  0A99  0870               	movf	(choose_alphabet@alphabet_array),w
 10896  0A9A  3E01               	addlw	01h
 10897  0A9B  0084               	movwf	fsr0
 10898  0A9C  0871               	movf	(??_choose_alphabet+0)+0,w
 10899  0A9D  0080               	movwf	indf
 10900                           	line	125
 10901                           ;Effect.c: 125: alphabet_array[2] = 0xc3;
 10902  0A9E  30C3               	movlw	(0C3h)
 10903  0A9F  00F1               	movwf	(??_choose_alphabet+0)+0
 10904  0AA0  0870               	movf	(choose_alphabet@alphabet_array),w
 10905  0AA1  3E02               	addlw	02h
 10906  0AA2  0084               	movwf	fsr0
 10907  0AA3  0871               	movf	(??_choose_alphabet+0)+0,w
 10908  0AA4  0080               	movwf	indf
 10909                           	line	126
 10910                           ;Effect.c: 126: alphabet_array[3] = 0xc3;
 10911  0AA5  30C3               	movlw	(0C3h)
 10912  0AA6  00F1               	movwf	(??_choose_alphabet+0)+0
 10913  0AA7  0870               	movf	(choose_alphabet@alphabet_array),w
 10914  0AA8  3E03               	addlw	03h
 10915  0AA9  0084               	movwf	fsr0
 10916  0AAA  0871               	movf	(??_choose_alphabet+0)+0,w
 10917  0AAB  0080               	movwf	indf
 10918                           	line	127
 10919                           ;Effect.c: 127: alphabet_array[4] = 0xc3;
 10920  0AAC  30C3               	movlw	(0C3h)
 10921  0AAD  00F1               	movwf	(??_choose_alphabet+0)+0
 10922  0AAE  0870               	movf	(choose_alphabet@alphabet_array),w
 10923  0AAF  3E04               	addlw	04h
 10924  0AB0  0084               	movwf	fsr0
 10925  0AB1  0871               	movf	(??_choose_alphabet+0)+0,w
 10926  0AB2  0080               	movwf	indf
 10927                           	line	128
 10928                           ;Effect.c: 128: alphabet_array[5] = 0xc3;
 10929  0AB3  30C3               	movlw	(0C3h)
 10930  0AB4  00F1               	movwf	(??_choose_alphabet+0)+0
 10931  0AB5  0870               	movf	(choose_alphabet@alphabet_array),w
 10932  0AB6  3E05               	addlw	05h
 10933  0AB7  0084               	movwf	fsr0
 10934  0AB8  0871               	movf	(??_choose_alphabet+0)+0,w
 10935  0AB9  0080               	movwf	indf
 10936                           	line	129
 10937                           ;Effect.c: 129: alphabet_array[6] = 0x7f;
 10938  0ABA  307F               	movlw	(07Fh)
 10939  0ABB  00F1               	movwf	(??_choose_alphabet+0)+0
 10940  0ABC  0870               	movf	(choose_alphabet@alphabet_array),w
 10941  0ABD  3E06               	addlw	06h
 10942  0ABE  0084               	movwf	fsr0
 10943  0ABF  0871               	movf	(??_choose_alphabet+0)+0,w
 10944  0AC0  0080               	movwf	indf
 10945                           	line	130
 10946                           ;Effect.c: 130: alphabet_array[7] = 0x3f;
 10947  0AC1  303F               	movlw	(03Fh)
 10948  0AC2  00F1               	movwf	(??_choose_alphabet+0)+0
 10949  0AC3  0870               	movf	(choose_alphabet@alphabet_array),w
 10950  0AC4  3E07               	addlw	07h
 10951  0AC5  0084               	movwf	fsr0
 10952  0AC6  0871               	movf	(??_choose_alphabet+0)+0,w
 10953  0AC7  0080               	movwf	indf
 10954                           	line	131
 10955                           ;Effect.c: 131: break;
 10956  0AC8  2FFF               	goto	l2283
 10957                           	line	133
 10958                           ;Effect.c: 133: case 'E': alphabet_array[0] = 0xff;
 10959                           	
 10960  0AC9                     l2261:	
 10961                           	
 10962  0AC9                     l5732:	
 10963  0AC9  30FF               	movlw	(0FFh)
 10964  0ACA  00F1               	movwf	(??_choose_alphabet+0)+0
 10965  0ACB  0870               	movf	(choose_alphabet@alphabet_array),w
 10966  0ACC  0084               	movwf	fsr0
 10967  0ACD  0871               	movf	(??_choose_alphabet+0)+0,w
 10968  0ACE  1383               	bcf	status, 7	;select IRP bank0
 10969  0ACF  0080               	movwf	indf
 10970                           	line	134
 10971                           ;Effect.c: 134: alphabet_array[1] = 0xff;
 10972  0AD0  30FF               	movlw	(0FFh)
 10973  0AD1  00F1               	movwf	(??_choose_alphabet+0)+0
 10974  0AD2  0870               	movf	(choose_alphabet@alphabet_array),w
 10975  0AD3  3E01               	addlw	01h
 10976  0AD4  0084               	movwf	fsr0
 10977  0AD5  0871               	movf	(??_choose_alphabet+0)+0,w
 10978  0AD6  0080               	movwf	indf
 10979                           	line	135
 10980                           ;Effect.c: 135: alphabet_array[2] = 0x03;
 10981  0AD7  3003               	movlw	(03h)
 10982  0AD8  00F1               	movwf	(??_choose_alphabet+0)+0
 10983  0AD9  0870               	movf	(choose_alphabet@alphabet_array),w
 10984  0ADA  3E02               	addlw	02h
 10985  0ADB  0084               	movwf	fsr0
 10986  0ADC  0871               	movf	(??_choose_alphabet+0)+0,w
 10987  0ADD  0080               	movwf	indf
 10988                           	line	136
 10989                           ;Effect.c: 136: alphabet_array[3] = 0xff;
 10990  0ADE  30FF               	movlw	(0FFh)
 10991  0ADF  00F1               	movwf	(??_choose_alphabet+0)+0
 10992  0AE0  0870               	movf	(choose_alphabet@alphabet_array),w
 10993  0AE1  3E03               	addlw	03h
 10994  0AE2  0084               	movwf	fsr0
 10995  0AE3  0871               	movf	(??_choose_alphabet+0)+0,w
 10996  0AE4  0080               	movwf	indf
 10997                           	line	137
 10998                           ;Effect.c: 137: alphabet_array[4] = 0xff;
 10999  0AE5  30FF               	movlw	(0FFh)
 11000  0AE6  00F1               	movwf	(??_choose_alphabet+0)+0
 11001  0AE7  0870               	movf	(choose_alphabet@alphabet_array),w
 11002  0AE8  3E04               	addlw	04h
 11003  0AE9  0084               	movwf	fsr0
 11004  0AEA  0871               	movf	(??_choose_alphabet+0)+0,w
 11005  0AEB  0080               	movwf	indf
 11006                           	line	138
 11007                           ;Effect.c: 138: alphabet_array[5] = 0x03;
 11008  0AEC  3003               	movlw	(03h)
 11009  0AED  00F1               	movwf	(??_choose_alphabet+0)+0
 11010  0AEE  0870               	movf	(choose_alphabet@alphabet_array),w
 11011  0AEF  3E05               	addlw	05h
 11012  0AF0  0084               	movwf	fsr0
 11013  0AF1  0871               	movf	(??_choose_alphabet+0)+0,w
 11014  0AF2  0080               	movwf	indf
 11015                           	line	139
 11016                           ;Effect.c: 139: alphabet_array[6] = 0xff;
 11017  0AF3  30FF               	movlw	(0FFh)
 11018  0AF4  00F1               	movwf	(??_choose_alphabet+0)+0
 11019  0AF5  0870               	movf	(choose_alphabet@alphabet_array),w
 11020  0AF6  3E06               	addlw	06h
 11021  0AF7  0084               	movwf	fsr0
 11022  0AF8  0871               	movf	(??_choose_alphabet+0)+0,w
 11023  0AF9  0080               	movwf	indf
 11024                           	line	140
 11025                           ;Effect.c: 140: alphabet_array[7] = 0xff;
 11026  0AFA  30FF               	movlw	(0FFh)
 11027  0AFB  00F1               	movwf	(??_choose_alphabet+0)+0
 11028  0AFC  0870               	movf	(choose_alphabet@alphabet_array),w
 11029  0AFD  3E07               	addlw	07h
 11030  0AFE  0084               	movwf	fsr0
 11031  0AFF  0871               	movf	(??_choose_alphabet+0)+0,w
 11032  0B00  0080               	movwf	indf
 11033                           	line	141
 11034                           ;Effect.c: 141: break;
 11035  0B01  2FFF               	goto	l2283
 11036                           	line	143
 11037                           ;Effect.c: 143: case 'F': alphabet_array[0] = 0x03;
 11038                           	
 11039  0B02                     l2262:	
 11040                           	
 11041  0B02                     l5734:	
 11042  0B02  3003               	movlw	(03h)
 11043  0B03  00F1               	movwf	(??_choose_alphabet+0)+0
 11044  0B04  0870               	movf	(choose_alphabet@alphabet_array),w
 11045  0B05  0084               	movwf	fsr0
 11046  0B06  0871               	movf	(??_choose_alphabet+0)+0,w
 11047  0B07  1383               	bcf	status, 7	;select IRP bank0
 11048  0B08  0080               	movwf	indf
 11049                           	line	144
 11050                           ;Effect.c: 144: alphabet_array[1] = 0x03;
 11051  0B09  3003               	movlw	(03h)
 11052  0B0A  00F1               	movwf	(??_choose_alphabet+0)+0
 11053  0B0B  0870               	movf	(choose_alphabet@alphabet_array),w
 11054  0B0C  3E01               	addlw	01h
 11055  0B0D  0084               	movwf	fsr0
 11056  0B0E  0871               	movf	(??_choose_alphabet+0)+0,w
 11057  0B0F  0080               	movwf	indf
 11058                           	line	145
 11059                           ;Effect.c: 145: alphabet_array[2] = 0x03;
 11060  0B10  3003               	movlw	(03h)
 11061  0B11  00F1               	movwf	(??_choose_alphabet+0)+0
 11062  0B12  0870               	movf	(choose_alphabet@alphabet_array),w
 11063  0B13  3E02               	addlw	02h
 11064  0B14  0084               	movwf	fsr0
 11065  0B15  0871               	movf	(??_choose_alphabet+0)+0,w
 11066  0B16  0080               	movwf	indf
 11067                           	line	146
 11068                           ;Effect.c: 146: alphabet_array[3] = 0xff;
 11069  0B17  30FF               	movlw	(0FFh)
 11070  0B18  00F1               	movwf	(??_choose_alphabet+0)+0
 11071  0B19  0870               	movf	(choose_alphabet@alphabet_array),w
 11072  0B1A  3E03               	addlw	03h
 11073  0B1B  0084               	movwf	fsr0
 11074  0B1C  0871               	movf	(??_choose_alphabet+0)+0,w
 11075  0B1D  0080               	movwf	indf
 11076                           	line	147
 11077                           ;Effect.c: 147: alphabet_array[4] = 0xff;
 11078  0B1E  30FF               	movlw	(0FFh)
 11079  0B1F  00F1               	movwf	(??_choose_alphabet+0)+0
 11080  0B20  0870               	movf	(choose_alphabet@alphabet_array),w
 11081  0B21  3E04               	addlw	04h
 11082  0B22  0084               	movwf	fsr0
 11083  0B23  0871               	movf	(??_choose_alphabet+0)+0,w
 11084  0B24  0080               	movwf	indf
 11085                           	line	148
 11086                           ;Effect.c: 148: alphabet_array[5] = 0x03;
 11087  0B25  3003               	movlw	(03h)
 11088  0B26  00F1               	movwf	(??_choose_alphabet+0)+0
 11089  0B27  0870               	movf	(choose_alphabet@alphabet_array),w
 11090  0B28  3E05               	addlw	05h
 11091  0B29  0084               	movwf	fsr0
 11092  0B2A  0871               	movf	(??_choose_alphabet+0)+0,w
 11093  0B2B  0080               	movwf	indf
 11094                           	line	149
 11095                           ;Effect.c: 149: alphabet_array[6] = 0xff;
 11096  0B2C  30FF               	movlw	(0FFh)
 11097  0B2D  00F1               	movwf	(??_choose_alphabet+0)+0
 11098  0B2E  0870               	movf	(choose_alphabet@alphabet_array),w
 11099  0B2F  3E06               	addlw	06h
 11100  0B30  0084               	movwf	fsr0
 11101  0B31  0871               	movf	(??_choose_alphabet+0)+0,w
 11102  0B32  0080               	movwf	indf
 11103                           	line	150
 11104                           ;Effect.c: 150: alphabet_array[7] = 0xff;
 11105  0B33  30FF               	movlw	(0FFh)
 11106  0B34  00F1               	movwf	(??_choose_alphabet+0)+0
 11107  0B35  0870               	movf	(choose_alphabet@alphabet_array),w
 11108  0B36  3E07               	addlw	07h
 11109  0B37  0084               	movwf	fsr0
 11110  0B38  0871               	movf	(??_choose_alphabet+0)+0,w
 11111  0B39  0080               	movwf	indf
 11112                           	line	151
 11113                           ;Effect.c: 151: break;
 11114  0B3A  2FFF               	goto	l2283
 11115                           	line	153
 11116                           ;Effect.c: 153: case 'G': alphabet_array[0] = 0xfe;
 11117                           	
 11118  0B3B                     l2263:	
 11119                           	
 11120  0B3B                     l5736:	
 11121  0B3B  30FE               	movlw	(0FEh)
 11122  0B3C  00F1               	movwf	(??_choose_alphabet+0)+0
 11123  0B3D  0870               	movf	(choose_alphabet@alphabet_array),w
 11124  0B3E  0084               	movwf	fsr0
 11125  0B3F  0871               	movf	(??_choose_alphabet+0)+0,w
 11126  0B40  1383               	bcf	status, 7	;select IRP bank0
 11127  0B41  0080               	movwf	indf
 11128                           	line	154
 11129                           ;Effect.c: 154: alphabet_array[1] = 0xff;
 11130  0B42  30FF               	movlw	(0FFh)
 11131  0B43  00F1               	movwf	(??_choose_alphabet+0)+0
 11132  0B44  0870               	movf	(choose_alphabet@alphabet_array),w
 11133  0B45  3E01               	addlw	01h
 11134  0B46  0084               	movwf	fsr0
 11135  0B47  0871               	movf	(??_choose_alphabet+0)+0,w
 11136  0B48  0080               	movwf	indf
 11137                           	line	155
 11138                           ;Effect.c: 155: alphabet_array[2] = 0xc3;
 11139  0B49  30C3               	movlw	(0C3h)
 11140  0B4A  00F1               	movwf	(??_choose_alphabet+0)+0
 11141  0B4B  0870               	movf	(choose_alphabet@alphabet_array),w
 11142  0B4C  3E02               	addlw	02h
 11143  0B4D  0084               	movwf	fsr0
 11144  0B4E  0871               	movf	(??_choose_alphabet+0)+0,w
 11145  0B4F  0080               	movwf	indf
 11146                           	line	156
 11147                           ;Effect.c: 156: alphabet_array[3] = 0xf3;
 11148  0B50  30F3               	movlw	(0F3h)
 11149  0B51  00F1               	movwf	(??_choose_alphabet+0)+0
 11150  0B52  0870               	movf	(choose_alphabet@alphabet_array),w
 11151  0B53  3E03               	addlw	03h
 11152  0B54  0084               	movwf	fsr0
 11153  0B55  0871               	movf	(??_choose_alphabet+0)+0,w
 11154  0B56  0080               	movwf	indf
 11155                           	line	157
 11156                           ;Effect.c: 157: alphabet_array[4] = 0xf3;
 11157  0B57  30F3               	movlw	(0F3h)
 11158  0B58  00F1               	movwf	(??_choose_alphabet+0)+0
 11159  0B59  0870               	movf	(choose_alphabet@alphabet_array),w
 11160  0B5A  3E04               	addlw	04h
 11161  0B5B  0084               	movwf	fsr0
 11162  0B5C  0871               	movf	(??_choose_alphabet+0)+0,w
 11163  0B5D  0080               	movwf	indf
 11164                           	line	158
 11165                           ;Effect.c: 158: alphabet_array[5] = 0x03;
 11166  0B5E  3003               	movlw	(03h)
 11167  0B5F  00F1               	movwf	(??_choose_alphabet+0)+0
 11168  0B60  0870               	movf	(choose_alphabet@alphabet_array),w
 11169  0B61  3E05               	addlw	05h
 11170  0B62  0084               	movwf	fsr0
 11171  0B63  0871               	movf	(??_choose_alphabet+0)+0,w
 11172  0B64  0080               	movwf	indf
 11173                           	line	159
 11174                           ;Effect.c: 159: alphabet_array[6] = 0xfe;
 11175  0B65  30FE               	movlw	(0FEh)
 11176  0B66  00F1               	movwf	(??_choose_alphabet+0)+0
 11177  0B67  0870               	movf	(choose_alphabet@alphabet_array),w
 11178  0B68  3E06               	addlw	06h
 11179  0B69  0084               	movwf	fsr0
 11180  0B6A  0871               	movf	(??_choose_alphabet+0)+0,w
 11181  0B6B  0080               	movwf	indf
 11182                           	line	160
 11183                           ;Effect.c: 160: alphabet_array[7] = 0xfc;
 11184  0B6C  30FC               	movlw	(0FCh)
 11185  0B6D  00F1               	movwf	(??_choose_alphabet+0)+0
 11186  0B6E  0870               	movf	(choose_alphabet@alphabet_array),w
 11187  0B6F  3E07               	addlw	07h
 11188  0B70  0084               	movwf	fsr0
 11189  0B71  0871               	movf	(??_choose_alphabet+0)+0,w
 11190  0B72  0080               	movwf	indf
 11191                           	line	161
 11192                           ;Effect.c: 161: break;
 11193  0B73  2FFF               	goto	l2283
 11194                           	line	163
 11195                           ;Effect.c: 163: case 'H': alphabet_array[0] = 0xc3;
 11196                           	
 11197  0B74                     l2264:	
 11198                           	
 11199  0B74                     l5738:	
 11200  0B74  30C3               	movlw	(0C3h)
 11201  0B75  00F1               	movwf	(??_choose_alphabet+0)+0
 11202  0B76  0870               	movf	(choose_alphabet@alphabet_array),w
 11203  0B77  0084               	movwf	fsr0
 11204  0B78  0871               	movf	(??_choose_alphabet+0)+0,w
 11205  0B79  1383               	bcf	status, 7	;select IRP bank0
 11206  0B7A  0080               	movwf	indf
 11207                           	line	164
 11208                           ;Effect.c: 164: alphabet_array[1] = 0xc3;
 11209  0B7B  30C3               	movlw	(0C3h)
 11210  0B7C  00F1               	movwf	(??_choose_alphabet+0)+0
 11211  0B7D  0870               	movf	(choose_alphabet@alphabet_array),w
 11212  0B7E  3E01               	addlw	01h
 11213  0B7F  0084               	movwf	fsr0
 11214  0B80  0871               	movf	(??_choose_alphabet+0)+0,w
 11215  0B81  0080               	movwf	indf
 11216                           	line	165
 11217                           ;Effect.c: 165: alphabet_array[2] = 0xc3;
 11218  0B82  30C3               	movlw	(0C3h)
 11219  0B83  00F1               	movwf	(??_choose_alphabet+0)+0
 11220  0B84  0870               	movf	(choose_alphabet@alphabet_array),w
 11221  0B85  3E02               	addlw	02h
 11222  0B86  0084               	movwf	fsr0
 11223  0B87  0871               	movf	(??_choose_alphabet+0)+0,w
 11224  0B88  0080               	movwf	indf
 11225                           	line	166
 11226                           ;Effect.c: 166: alphabet_array[3] = 0xff;
 11227  0B89  30FF               	movlw	(0FFh)
 11228  0B8A  00F1               	movwf	(??_choose_alphabet+0)+0
 11229  0B8B  0870               	movf	(choose_alphabet@alphabet_array),w
 11230  0B8C  3E03               	addlw	03h
 11231  0B8D  0084               	movwf	fsr0
 11232  0B8E  0871               	movf	(??_choose_alphabet+0)+0,w
 11233  0B8F  0080               	movwf	indf
 11234                           	line	167
 11235                           ;Effect.c: 167: alphabet_array[4] = 0xff;
 11236  0B90  30FF               	movlw	(0FFh)
 11237  0B91  00F1               	movwf	(??_choose_alphabet+0)+0
 11238  0B92  0870               	movf	(choose_alphabet@alphabet_array),w
 11239  0B93  3E04               	addlw	04h
 11240  0B94  0084               	movwf	fsr0
 11241  0B95  0871               	movf	(??_choose_alphabet+0)+0,w
 11242  0B96  0080               	movwf	indf
 11243                           	line	168
 11244                           ;Effect.c: 168: alphabet_array[5] = 0xc3;
 11245  0B97  30C3               	movlw	(0C3h)
 11246  0B98  00F1               	movwf	(??_choose_alphabet+0)+0
 11247  0B99  0870               	movf	(choose_alphabet@alphabet_array),w
 11248  0B9A  3E05               	addlw	05h
 11249  0B9B  0084               	movwf	fsr0
 11250  0B9C  0871               	movf	(??_choose_alphabet+0)+0,w
 11251  0B9D  0080               	movwf	indf
 11252                           	line	169
 11253                           ;Effect.c: 169: alphabet_array[6] = 0xc3;
 11254  0B9E  30C3               	movlw	(0C3h)
 11255  0B9F  00F1               	movwf	(??_choose_alphabet+0)+0
 11256  0BA0  0870               	movf	(choose_alphabet@alphabet_array),w
 11257  0BA1  3E06               	addlw	06h
 11258  0BA2  0084               	movwf	fsr0
 11259  0BA3  0871               	movf	(??_choose_alphabet+0)+0,w
 11260  0BA4  0080               	movwf	indf
 11261                           	line	170
 11262                           ;Effect.c: 170: alphabet_array[7] = 0xc3;
 11263  0BA5  30C3               	movlw	(0C3h)
 11264  0BA6  00F1               	movwf	(??_choose_alphabet+0)+0
 11265  0BA7  0870               	movf	(choose_alphabet@alphabet_array),w
 11266  0BA8  3E07               	addlw	07h
 11267  0BA9  0084               	movwf	fsr0
 11268  0BAA  0871               	movf	(??_choose_alphabet+0)+0,w
 11269  0BAB  0080               	movwf	indf
 11270                           	line	171
 11271                           ;Effect.c: 171: break;
 11272  0BAC  2FFF               	goto	l2283
 11273                           	line	173
 11274                           ;Effect.c: 173: case 'I': alphabet_array[0] = 0xff;
 11275                           	
 11276  0BAD                     l2265:	
 11277                           	
 11278  0BAD                     l5740:	
 11279  0BAD  30FF               	movlw	(0FFh)
 11280  0BAE  00F1               	movwf	(??_choose_alphabet+0)+0
 11281  0BAF  0870               	movf	(choose_alphabet@alphabet_array),w
 11282  0BB0  0084               	movwf	fsr0
 11283  0BB1  0871               	movf	(??_choose_alphabet+0)+0,w
 11284  0BB2  1383               	bcf	status, 7	;select IRP bank0
 11285  0BB3  0080               	movwf	indf
 11286                           	line	174
 11287                           ;Effect.c: 174: alphabet_array[1] = 0xff;
 11288  0BB4  30FF               	movlw	(0FFh)
 11289  0BB5  00F1               	movwf	(??_choose_alphabet+0)+0
 11290  0BB6  0870               	movf	(choose_alphabet@alphabet_array),w
 11291  0BB7  3E01               	addlw	01h
 11292  0BB8  0084               	movwf	fsr0
 11293  0BB9  0871               	movf	(??_choose_alphabet+0)+0,w
 11294  0BBA  0080               	movwf	indf
 11295                           	line	175
 11296                           ;Effect.c: 175: alphabet_array[2] = 0x18;
 11297  0BBB  3018               	movlw	(018h)
 11298  0BBC  00F1               	movwf	(??_choose_alphabet+0)+0
 11299  0BBD  0870               	movf	(choose_alphabet@alphabet_array),w
 11300  0BBE  3E02               	addlw	02h
 11301  0BBF  0084               	movwf	fsr0
 11302  0BC0  0871               	movf	(??_choose_alphabet+0)+0,w
 11303  0BC1  0080               	movwf	indf
 11304                           	line	176
 11305                           ;Effect.c: 176: alphabet_array[3] = 0x18;
 11306  0BC2  3018               	movlw	(018h)
 11307  0BC3  00F1               	movwf	(??_choose_alphabet+0)+0
 11308  0BC4  0870               	movf	(choose_alphabet@alphabet_array),w
 11309  0BC5  3E03               	addlw	03h
 11310  0BC6  0084               	movwf	fsr0
 11311  0BC7  0871               	movf	(??_choose_alphabet+0)+0,w
 11312  0BC8  0080               	movwf	indf
 11313                           	line	177
 11314                           ;Effect.c: 177: alphabet_array[4] = 0x18;
 11315  0BC9  3018               	movlw	(018h)
 11316  0BCA  00F1               	movwf	(??_choose_alphabet+0)+0
 11317  0BCB  0870               	movf	(choose_alphabet@alphabet_array),w
 11318  0BCC  3E04               	addlw	04h
 11319  0BCD  0084               	movwf	fsr0
 11320  0BCE  0871               	movf	(??_choose_alphabet+0)+0,w
 11321  0BCF  0080               	movwf	indf
 11322                           	line	178
 11323                           ;Effect.c: 178: alphabet_array[5] = 0x18;
 11324  0BD0  3018               	movlw	(018h)
 11325  0BD1  00F1               	movwf	(??_choose_alphabet+0)+0
 11326  0BD2  0870               	movf	(choose_alphabet@alphabet_array),w
 11327  0BD3  3E05               	addlw	05h
 11328  0BD4  0084               	movwf	fsr0
 11329  0BD5  0871               	movf	(??_choose_alphabet+0)+0,w
 11330  0BD6  0080               	movwf	indf
 11331                           	line	179
 11332                           ;Effect.c: 179: alphabet_array[6] = 0xff;
 11333  0BD7  30FF               	movlw	(0FFh)
 11334  0BD8  00F1               	movwf	(??_choose_alphabet+0)+0
 11335  0BD9  0870               	movf	(choose_alphabet@alphabet_array),w
 11336  0BDA  3E06               	addlw	06h
 11337  0BDB  0084               	movwf	fsr0
 11338  0BDC  0871               	movf	(??_choose_alphabet+0)+0,w
 11339  0BDD  0080               	movwf	indf
 11340                           	line	180
 11341                           ;Effect.c: 180: alphabet_array[7] = 0xff;
 11342  0BDE  30FF               	movlw	(0FFh)
 11343  0BDF  00F1               	movwf	(??_choose_alphabet+0)+0
 11344  0BE0  0870               	movf	(choose_alphabet@alphabet_array),w
 11345  0BE1  3E07               	addlw	07h
 11346  0BE2  0084               	movwf	fsr0
 11347  0BE3  0871               	movf	(??_choose_alphabet+0)+0,w
 11348  0BE4  0080               	movwf	indf
 11349                           	line	181
 11350                           ;Effect.c: 181: break;
 11351  0BE5  2FFF               	goto	l2283
 11352                           	line	182
 11353                           ;Effect.c: 182: case 'J': alphabet_array[0] = 0x1e;
 11354                           	
 11355  0BE6                     l2266:	
 11356                           	
 11357  0BE6                     l5742:	
 11358  0BE6  301E               	movlw	(01Eh)
 11359  0BE7  00F1               	movwf	(??_choose_alphabet+0)+0
 11360  0BE8  0870               	movf	(choose_alphabet@alphabet_array),w
 11361  0BE9  0084               	movwf	fsr0
 11362  0BEA  0871               	movf	(??_choose_alphabet+0)+0,w
 11363  0BEB  1383               	bcf	status, 7	;select IRP bank0
 11364  0BEC  0080               	movwf	indf
 11365                           	line	183
 11366                           ;Effect.c: 183: alphabet_array[1] = 0x3f;
 11367  0BED  303F               	movlw	(03Fh)
 11368  0BEE  00F1               	movwf	(??_choose_alphabet+0)+0
 11369  0BEF  0870               	movf	(choose_alphabet@alphabet_array),w
 11370  0BF0  3E01               	addlw	01h
 11371  0BF1  0084               	movwf	fsr0
 11372  0BF2  0871               	movf	(??_choose_alphabet+0)+0,w
 11373  0BF3  0080               	movwf	indf
 11374                           	line	184
 11375                           ;Effect.c: 184: alphabet_array[2] = 0x33;
 11376  0BF4  3033               	movlw	(033h)
 11377  0BF5  00F1               	movwf	(??_choose_alphabet+0)+0
 11378  0BF6  0870               	movf	(choose_alphabet@alphabet_array),w
 11379  0BF7  3E02               	addlw	02h
 11380  0BF8  0084               	movwf	fsr0
 11381  0BF9  0871               	movf	(??_choose_alphabet+0)+0,w
 11382  0BFA  0080               	movwf	indf
 11383                           	line	185
 11384                           ;Effect.c: 185: alphabet_array[3] = 0x33;
 11385  0BFB  3033               	movlw	(033h)
 11386  0BFC  00F1               	movwf	(??_choose_alphabet+0)+0
 11387  0BFD  0870               	movf	(choose_alphabet@alphabet_array),w
 11388  0BFE  3E03               	addlw	03h
 11389  0BFF  0084               	movwf	fsr0
 11390  0C00  0871               	movf	(??_choose_alphabet+0)+0,w
 11391  0C01  0080               	movwf	indf
 11392                           	line	186
 11393                           ;Effect.c: 186: alphabet_array[4] = 0x30;
 11394  0C02  3030               	movlw	(030h)
 11395  0C03  00F1               	movwf	(??_choose_alphabet+0)+0
 11396  0C04  0870               	movf	(choose_alphabet@alphabet_array),w
 11397  0C05  3E04               	addlw	04h
 11398  0C06  0084               	movwf	fsr0
 11399  0C07  0871               	movf	(??_choose_alphabet+0)+0,w
 11400  0C08  0080               	movwf	indf
 11401                           	line	187
 11402                           ;Effect.c: 187: alphabet_array[5] = 0x30;
 11403  0C09  3030               	movlw	(030h)
 11404  0C0A  00F1               	movwf	(??_choose_alphabet+0)+0
 11405  0C0B  0870               	movf	(choose_alphabet@alphabet_array),w
 11406  0C0C  3E05               	addlw	05h
 11407  0C0D  0084               	movwf	fsr0
 11408  0C0E  0871               	movf	(??_choose_alphabet+0)+0,w
 11409  0C0F  0080               	movwf	indf
 11410                           	line	188
 11411                           ;Effect.c: 188: alphabet_array[6] = 0xff;
 11412  0C10  30FF               	movlw	(0FFh)
 11413  0C11  00F1               	movwf	(??_choose_alphabet+0)+0
 11414  0C12  0870               	movf	(choose_alphabet@alphabet_array),w
 11415  0C13  3E06               	addlw	06h
 11416  0C14  0084               	movwf	fsr0
 11417  0C15  0871               	movf	(??_choose_alphabet+0)+0,w
 11418  0C16  0080               	movwf	indf
 11419                           	line	189
 11420                           ;Effect.c: 189: alphabet_array[7] = 0xff;
 11421  0C17  30FF               	movlw	(0FFh)
 11422  0C18  00F1               	movwf	(??_choose_alphabet+0)+0
 11423  0C19  0870               	movf	(choose_alphabet@alphabet_array),w
 11424  0C1A  3E07               	addlw	07h
 11425  0C1B  0084               	movwf	fsr0
 11426  0C1C  0871               	movf	(??_choose_alphabet+0)+0,w
 11427  0C1D  0080               	movwf	indf
 11428                           	line	190
 11429                           ;Effect.c: 190: break;
 11430  0C1E  2FFF               	goto	l2283
 11431                           	line	191
 11432                           ;Effect.c: 191: case 'K': alphabet_array[0] = 0xc3;
 11433                           	
 11434  0C1F                     l2267:	
 11435                           	
 11436  0C1F                     l5744:	
 11437  0C1F  30C3               	movlw	(0C3h)
 11438  0C20  00F1               	movwf	(??_choose_alphabet+0)+0
 11439  0C21  0870               	movf	(choose_alphabet@alphabet_array),w
 11440  0C22  0084               	movwf	fsr0
 11441  0C23  0871               	movf	(??_choose_alphabet+0)+0,w
 11442  0C24  1383               	bcf	status, 7	;select IRP bank0
 11443  0C25  0080               	movwf	indf
 11444                           	line	192
 11445                           ;Effect.c: 192: alphabet_array[1] = 0x63;
 11446  0C26  3063               	movlw	(063h)
 11447  0C27  00F1               	movwf	(??_choose_alphabet+0)+0
 11448  0C28  0870               	movf	(choose_alphabet@alphabet_array),w
 11449  0C29  3E01               	addlw	01h
 11450  0C2A  0084               	movwf	fsr0
 11451  0C2B  0871               	movf	(??_choose_alphabet+0)+0,w
 11452  0C2C  0080               	movwf	indf
 11453                           	line	193
 11454                           ;Effect.c: 193: alphabet_array[2] = 0x33;
 11455  0C2D  3033               	movlw	(033h)
 11456  0C2E  00F1               	movwf	(??_choose_alphabet+0)+0
 11457  0C2F  0870               	movf	(choose_alphabet@alphabet_array),w
 11458  0C30  3E02               	addlw	02h
 11459  0C31  0084               	movwf	fsr0
 11460  0C32  0871               	movf	(??_choose_alphabet+0)+0,w
 11461  0C33  0080               	movwf	indf
 11462                           	line	194
 11463                           ;Effect.c: 194: alphabet_array[3] = 0x1f;
 11464  0C34  301F               	movlw	(01Fh)
 11465  0C35  00F1               	movwf	(??_choose_alphabet+0)+0
 11466  0C36  0870               	movf	(choose_alphabet@alphabet_array),w
 11467  0C37  3E03               	addlw	03h
 11468  0C38  0084               	movwf	fsr0
 11469  0C39  0871               	movf	(??_choose_alphabet+0)+0,w
 11470  0C3A  0080               	movwf	indf
 11471                           	line	195
 11472                           ;Effect.c: 195: alphabet_array[4] = 0x1f;
 11473  0C3B  301F               	movlw	(01Fh)
 11474  0C3C  00F1               	movwf	(??_choose_alphabet+0)+0
 11475  0C3D  0870               	movf	(choose_alphabet@alphabet_array),w
 11476  0C3E  3E04               	addlw	04h
 11477  0C3F  0084               	movwf	fsr0
 11478  0C40  0871               	movf	(??_choose_alphabet+0)+0,w
 11479  0C41  0080               	movwf	indf
 11480                           	line	196
 11481                           ;Effect.c: 196: alphabet_array[5] = 0x33;
 11482  0C42  3033               	movlw	(033h)
 11483  0C43  00F1               	movwf	(??_choose_alphabet+0)+0
 11484  0C44  0870               	movf	(choose_alphabet@alphabet_array),w
 11485  0C45  3E05               	addlw	05h
 11486  0C46  0084               	movwf	fsr0
 11487  0C47  0871               	movf	(??_choose_alphabet+0)+0,w
 11488  0C48  0080               	movwf	indf
 11489                           	line	197
 11490                           ;Effect.c: 197: alphabet_array[6] = 0x63;
 11491  0C49  3063               	movlw	(063h)
 11492  0C4A  00F1               	movwf	(??_choose_alphabet+0)+0
 11493  0C4B  0870               	movf	(choose_alphabet@alphabet_array),w
 11494  0C4C  3E06               	addlw	06h
 11495  0C4D  0084               	movwf	fsr0
 11496  0C4E  0871               	movf	(??_choose_alphabet+0)+0,w
 11497  0C4F  0080               	movwf	indf
 11498                           	line	198
 11499                           ;Effect.c: 198: alphabet_array[7] = 0xc3;
 11500  0C50  30C3               	movlw	(0C3h)
 11501  0C51  00F1               	movwf	(??_choose_alphabet+0)+0
 11502  0C52  0870               	movf	(choose_alphabet@alphabet_array),w
 11503  0C53  3E07               	addlw	07h
 11504  0C54  0084               	movwf	fsr0
 11505  0C55  0871               	movf	(??_choose_alphabet+0)+0,w
 11506  0C56  0080               	movwf	indf
 11507                           	line	199
 11508                           ;Effect.c: 199: break;
 11509  0C57  2FFF               	goto	l2283
 11510                           	line	200
 11511                           ;Effect.c: 200: case 'L': alphabet_array[0] = 0xff;
 11512                           	
 11513  0C58                     l2268:	
 11514                           	
 11515  0C58                     l5746:	
 11516  0C58  30FF               	movlw	(0FFh)
 11517  0C59  00F1               	movwf	(??_choose_alphabet+0)+0
 11518  0C5A  0870               	movf	(choose_alphabet@alphabet_array),w
 11519  0C5B  0084               	movwf	fsr0
 11520  0C5C  0871               	movf	(??_choose_alphabet+0)+0,w
 11521  0C5D  1383               	bcf	status, 7	;select IRP bank0
 11522  0C5E  0080               	movwf	indf
 11523                           	line	201
 11524                           ;Effect.c: 201: alphabet_array[1] = 0xff;
 11525  0C5F  30FF               	movlw	(0FFh)
 11526  0C60  00F1               	movwf	(??_choose_alphabet+0)+0
 11527  0C61  0870               	movf	(choose_alphabet@alphabet_array),w
 11528  0C62  3E01               	addlw	01h
 11529  0C63  0084               	movwf	fsr0
 11530  0C64  0871               	movf	(??_choose_alphabet+0)+0,w
 11531  0C65  0080               	movwf	indf
 11532                           	line	202
 11533                           ;Effect.c: 202: alphabet_array[2] = 0x03;
 11534  0C66  3003               	movlw	(03h)
 11535  0C67  00F1               	movwf	(??_choose_alphabet+0)+0
 11536  0C68  0870               	movf	(choose_alphabet@alphabet_array),w
 11537  0C69  3E02               	addlw	02h
 11538  0C6A  0084               	movwf	fsr0
 11539  0C6B  0871               	movf	(??_choose_alphabet+0)+0,w
 11540  0C6C  0080               	movwf	indf
 11541                           	line	203
 11542                           ;Effect.c: 203: alphabet_array[3] = 0x03;
 11543  0C6D  3003               	movlw	(03h)
 11544  0C6E  00F1               	movwf	(??_choose_alphabet+0)+0
 11545  0C6F  0870               	movf	(choose_alphabet@alphabet_array),w
 11546  0C70  3E03               	addlw	03h
 11547  0C71  0084               	movwf	fsr0
 11548  0C72  0871               	movf	(??_choose_alphabet+0)+0,w
 11549  0C73  0080               	movwf	indf
 11550                           	line	204
 11551                           ;Effect.c: 204: alphabet_array[4] = 0x03;
 11552  0C74  3003               	movlw	(03h)
 11553  0C75  00F1               	movwf	(??_choose_alphabet+0)+0
 11554  0C76  0870               	movf	(choose_alphabet@alphabet_array),w
 11555  0C77  3E04               	addlw	04h
 11556  0C78  0084               	movwf	fsr0
 11557  0C79  0871               	movf	(??_choose_alphabet+0)+0,w
 11558  0C7A  0080               	movwf	indf
 11559                           	line	205
 11560                           ;Effect.c: 205: alphabet_array[5] = 0x03;
 11561  0C7B  3003               	movlw	(03h)
 11562  0C7C  00F1               	movwf	(??_choose_alphabet+0)+0
 11563  0C7D  0870               	movf	(choose_alphabet@alphabet_array),w
 11564  0C7E  3E05               	addlw	05h
 11565  0C7F  0084               	movwf	fsr0
 11566  0C80  0871               	movf	(??_choose_alphabet+0)+0,w
 11567  0C81  0080               	movwf	indf
 11568                           	line	206
 11569                           ;Effect.c: 206: alphabet_array[6] = 0x03;
 11570  0C82  3003               	movlw	(03h)
 11571  0C83  00F1               	movwf	(??_choose_alphabet+0)+0
 11572  0C84  0870               	movf	(choose_alphabet@alphabet_array),w
 11573  0C85  3E06               	addlw	06h
 11574  0C86  0084               	movwf	fsr0
 11575  0C87  0871               	movf	(??_choose_alphabet+0)+0,w
 11576  0C88  0080               	movwf	indf
 11577                           	line	207
 11578                           ;Effect.c: 207: alphabet_array[7] = 0x03;
 11579  0C89  3003               	movlw	(03h)
 11580  0C8A  00F1               	movwf	(??_choose_alphabet+0)+0
 11581  0C8B  0870               	movf	(choose_alphabet@alphabet_array),w
 11582  0C8C  3E07               	addlw	07h
 11583  0C8D  0084               	movwf	fsr0
 11584  0C8E  0871               	movf	(??_choose_alphabet+0)+0,w
 11585  0C8F  0080               	movwf	indf
 11586                           	line	208
 11587                           ;Effect.c: 208: break;
 11588  0C90  2FFF               	goto	l2283
 11589                           	line	209
 11590                           ;Effect.c: 209: case 'M': alphabet_array[0] = 0xc3;
 11591                           	
 11592  0C91                     l2269:	
 11593                           	
 11594  0C91                     l5748:	
 11595  0C91  30C3               	movlw	(0C3h)
 11596  0C92  00F1               	movwf	(??_choose_alphabet+0)+0
 11597  0C93  0870               	movf	(choose_alphabet@alphabet_array),w
 11598  0C94  0084               	movwf	fsr0
 11599  0C95  0871               	movf	(??_choose_alphabet+0)+0,w
 11600  0C96  1383               	bcf	status, 7	;select IRP bank0
 11601  0C97  0080               	movwf	indf
 11602                           	line	210
 11603                           ;Effect.c: 210: alphabet_array[1] = 0xc3;
 11604  0C98  30C3               	movlw	(0C3h)
 11605  0C99  00F1               	movwf	(??_choose_alphabet+0)+0
 11606  0C9A  0870               	movf	(choose_alphabet@alphabet_array),w
 11607  0C9B  3E01               	addlw	01h
 11608  0C9C  0084               	movwf	fsr0
 11609  0C9D  0871               	movf	(??_choose_alphabet+0)+0,w
 11610  0C9E  0080               	movwf	indf
 11611                           	line	211
 11612                           ;Effect.c: 211: alphabet_array[2] = 0xc3;
 11613  0C9F  30C3               	movlw	(0C3h)
 11614  0CA0  00F1               	movwf	(??_choose_alphabet+0)+0
 11615  0CA1  0870               	movf	(choose_alphabet@alphabet_array),w
 11616  0CA2  3E02               	addlw	02h
 11617  0CA3  0084               	movwf	fsr0
 11618  0CA4  0871               	movf	(??_choose_alphabet+0)+0,w
 11619  0CA5  0080               	movwf	indf
 11620                           	line	212
 11621                           ;Effect.c: 212: alphabet_array[3] = 0xc3;
 11622  0CA6  30C3               	movlw	(0C3h)
 11623  0CA7  00F1               	movwf	(??_choose_alphabet+0)+0
 11624  0CA8  0870               	movf	(choose_alphabet@alphabet_array),w
 11625  0CA9  3E03               	addlw	03h
 11626  0CAA  0084               	movwf	fsr0
 11627  0CAB  0871               	movf	(??_choose_alphabet+0)+0,w
 11628  0CAC  0080               	movwf	indf
 11629                           	line	213
 11630                           ;Effect.c: 213: alphabet_array[4] = 0xdb;
 11631  0CAD  30DB               	movlw	(0DBh)
 11632  0CAE  00F1               	movwf	(??_choose_alphabet+0)+0
 11633  0CAF  0870               	movf	(choose_alphabet@alphabet_array),w
 11634  0CB0  3E04               	addlw	04h
 11635  0CB1  0084               	movwf	fsr0
 11636  0CB2  0871               	movf	(??_choose_alphabet+0)+0,w
 11637  0CB3  0080               	movwf	indf
 11638                           	line	214
 11639                           ;Effect.c: 214: alphabet_array[5] = 0xff;
 11640  0CB4  30FF               	movlw	(0FFh)
 11641  0CB5  00F1               	movwf	(??_choose_alphabet+0)+0
 11642  0CB6  0870               	movf	(choose_alphabet@alphabet_array),w
 11643  0CB7  3E05               	addlw	05h
 11644  0CB8  0084               	movwf	fsr0
 11645  0CB9  0871               	movf	(??_choose_alphabet+0)+0,w
 11646  0CBA  0080               	movwf	indf
 11647                           	line	215
 11648                           ;Effect.c: 215: alphabet_array[6] = 0xe7;
 11649  0CBB  30E7               	movlw	(0E7h)
 11650  0CBC  00F1               	movwf	(??_choose_alphabet+0)+0
 11651  0CBD  0870               	movf	(choose_alphabet@alphabet_array),w
 11652  0CBE  3E06               	addlw	06h
 11653  0CBF  0084               	movwf	fsr0
 11654  0CC0  0871               	movf	(??_choose_alphabet+0)+0,w
 11655  0CC1  0080               	movwf	indf
 11656                           	line	216
 11657                           ;Effect.c: 216: alphabet_array[7] = 0xc3;
 11658  0CC2  30C3               	movlw	(0C3h)
 11659  0CC3  00F1               	movwf	(??_choose_alphabet+0)+0
 11660  0CC4  0870               	movf	(choose_alphabet@alphabet_array),w
 11661  0CC5  3E07               	addlw	07h
 11662  0CC6  0084               	movwf	fsr0
 11663  0CC7  0871               	movf	(??_choose_alphabet+0)+0,w
 11664  0CC8  0080               	movwf	indf
 11665                           	line	217
 11666                           ;Effect.c: 217: break;
 11667  0CC9  2FFF               	goto	l2283
 11668                           	line	219
 11669                           ;Effect.c: 219: case 'N': alphabet_array[0] = 0xc3;
 11670                           	
 11671  0CCA                     l2270:	
 11672                           	
 11673  0CCA                     l5750:	
 11674  0CCA  30C3               	movlw	(0C3h)
 11675  0CCB  00F1               	movwf	(??_choose_alphabet+0)+0
 11676  0CCC  0870               	movf	(choose_alphabet@alphabet_array),w
 11677  0CCD  0084               	movwf	fsr0
 11678  0CCE  0871               	movf	(??_choose_alphabet+0)+0,w
 11679  0CCF  1383               	bcf	status, 7	;select IRP bank0
 11680  0CD0  0080               	movwf	indf
 11681                           	line	220
 11682                           ;Effect.c: 220: alphabet_array[1] = 0xe3;
 11683  0CD1  30E3               	movlw	(0E3h)
 11684  0CD2  00F1               	movwf	(??_choose_alphabet+0)+0
 11685  0CD3  0870               	movf	(choose_alphabet@alphabet_array),w
 11686  0CD4  3E01               	addlw	01h
 11687  0CD5  0084               	movwf	fsr0
 11688  0CD6  0871               	movf	(??_choose_alphabet+0)+0,w
 11689  0CD7  0080               	movwf	indf
 11690                           	line	221
 11691                           ;Effect.c: 221: alphabet_array[2] = 0xf3;
 11692  0CD8  30F3               	movlw	(0F3h)
 11693  0CD9  00F1               	movwf	(??_choose_alphabet+0)+0
 11694  0CDA  0870               	movf	(choose_alphabet@alphabet_array),w
 11695  0CDB  3E02               	addlw	02h
 11696  0CDC  0084               	movwf	fsr0
 11697  0CDD  0871               	movf	(??_choose_alphabet+0)+0,w
 11698  0CDE  0080               	movwf	indf
 11699                           	line	222
 11700                           ;Effect.c: 222: alphabet_array[3] = 0xfb;
 11701  0CDF  30FB               	movlw	(0FBh)
 11702  0CE0  00F1               	movwf	(??_choose_alphabet+0)+0
 11703  0CE1  0870               	movf	(choose_alphabet@alphabet_array),w
 11704  0CE2  3E03               	addlw	03h
 11705  0CE3  0084               	movwf	fsr0
 11706  0CE4  0871               	movf	(??_choose_alphabet+0)+0,w
 11707  0CE5  0080               	movwf	indf
 11708                           	line	223
 11709                           ;Effect.c: 223: alphabet_array[4] = 0xdf;
 11710  0CE6  30DF               	movlw	(0DFh)
 11711  0CE7  00F1               	movwf	(??_choose_alphabet+0)+0
 11712  0CE8  0870               	movf	(choose_alphabet@alphabet_array),w
 11713  0CE9  3E04               	addlw	04h
 11714  0CEA  0084               	movwf	fsr0
 11715  0CEB  0871               	movf	(??_choose_alphabet+0)+0,w
 11716  0CEC  0080               	movwf	indf
 11717                           	line	224
 11718                           ;Effect.c: 224: alphabet_array[5] = 0xcf;
 11719  0CED  30CF               	movlw	(0CFh)
 11720  0CEE  00F1               	movwf	(??_choose_alphabet+0)+0
 11721  0CEF  0870               	movf	(choose_alphabet@alphabet_array),w
 11722  0CF0  3E05               	addlw	05h
 11723  0CF1  0084               	movwf	fsr0
 11724  0CF2  0871               	movf	(??_choose_alphabet+0)+0,w
 11725  0CF3  0080               	movwf	indf
 11726                           	line	225
 11727                           ;Effect.c: 225: alphabet_array[6] = 0xc7;
 11728  0CF4  30C7               	movlw	(0C7h)
 11729  0CF5  00F1               	movwf	(??_choose_alphabet+0)+0
 11730  0CF6  0870               	movf	(choose_alphabet@alphabet_array),w
 11731  0CF7  3E06               	addlw	06h
 11732  0CF8  0084               	movwf	fsr0
 11733  0CF9  0871               	movf	(??_choose_alphabet+0)+0,w
 11734  0CFA  0080               	movwf	indf
 11735                           	line	226
 11736                           ;Effect.c: 226: alphabet_array[7] = 0xc3;
 11737  0CFB  30C3               	movlw	(0C3h)
 11738  0CFC  00F1               	movwf	(??_choose_alphabet+0)+0
 11739  0CFD  0870               	movf	(choose_alphabet@alphabet_array),w
 11740  0CFE  3E07               	addlw	07h
 11741  0CFF  0084               	movwf	fsr0
 11742  0D00  0871               	movf	(??_choose_alphabet+0)+0,w
 11743  0D01  0080               	movwf	indf
 11744                           	line	227
 11745                           ;Effect.c: 227: break;
 11746  0D02  2FFF               	goto	l2283
 11747                           	line	229
 11748                           ;Effect.c: 229: case 'O': alphabet_array[0] = 0x3c;
 11749                           	
 11750  0D03                     l2271:	
 11751                           	
 11752  0D03                     l5752:	
 11753  0D03  303C               	movlw	(03Ch)
 11754  0D04  00F1               	movwf	(??_choose_alphabet+0)+0
 11755  0D05  0870               	movf	(choose_alphabet@alphabet_array),w
 11756  0D06  0084               	movwf	fsr0
 11757  0D07  0871               	movf	(??_choose_alphabet+0)+0,w
 11758  0D08  1383               	bcf	status, 7	;select IRP bank0
 11759  0D09  0080               	movwf	indf
 11760                           	line	230
 11761                           ;Effect.c: 230: alphabet_array[1] = 0x7e;
 11762  0D0A  307E               	movlw	(07Eh)
 11763  0D0B  00F1               	movwf	(??_choose_alphabet+0)+0
 11764  0D0C  0870               	movf	(choose_alphabet@alphabet_array),w
 11765  0D0D  3E01               	addlw	01h
 11766  0D0E  0084               	movwf	fsr0
 11767  0D0F  0871               	movf	(??_choose_alphabet+0)+0,w
 11768  0D10  0080               	movwf	indf
 11769                           	line	231
 11770                           ;Effect.c: 231: alphabet_array[2] = 0xc3;
 11771  0D11  30C3               	movlw	(0C3h)
 11772  0D12  00F1               	movwf	(??_choose_alphabet+0)+0
 11773  0D13  0870               	movf	(choose_alphabet@alphabet_array),w
 11774  0D14  3E02               	addlw	02h
 11775  0D15  0084               	movwf	fsr0
 11776  0D16  0871               	movf	(??_choose_alphabet+0)+0,w
 11777  0D17  0080               	movwf	indf
 11778                           	line	232
 11779                           ;Effect.c: 232: alphabet_array[3] = 0xc3;
 11780  0D18  30C3               	movlw	(0C3h)
 11781  0D19  00F1               	movwf	(??_choose_alphabet+0)+0
 11782  0D1A  0870               	movf	(choose_alphabet@alphabet_array),w
 11783  0D1B  3E03               	addlw	03h
 11784  0D1C  0084               	movwf	fsr0
 11785  0D1D  0871               	movf	(??_choose_alphabet+0)+0,w
 11786  0D1E  0080               	movwf	indf
 11787                           	line	233
 11788                           ;Effect.c: 233: alphabet_array[4] = 0xc3;
 11789  0D1F  30C3               	movlw	(0C3h)
 11790  0D20  00F1               	movwf	(??_choose_alphabet+0)+0
 11791  0D21  0870               	movf	(choose_alphabet@alphabet_array),w
 11792  0D22  3E04               	addlw	04h
 11793  0D23  0084               	movwf	fsr0
 11794  0D24  0871               	movf	(??_choose_alphabet+0)+0,w
 11795  0D25  0080               	movwf	indf
 11796                           	line	234
 11797                           ;Effect.c: 234: alphabet_array[5] = 0xc3;
 11798  0D26  30C3               	movlw	(0C3h)
 11799  0D27  00F1               	movwf	(??_choose_alphabet+0)+0
 11800  0D28  0870               	movf	(choose_alphabet@alphabet_array),w
 11801  0D29  3E05               	addlw	05h
 11802  0D2A  0084               	movwf	fsr0
 11803  0D2B  0871               	movf	(??_choose_alphabet+0)+0,w
 11804  0D2C  0080               	movwf	indf
 11805                           	line	235
 11806                           ;Effect.c: 235: alphabet_array[6] = 0x7e;
 11807  0D2D  307E               	movlw	(07Eh)
 11808  0D2E  00F1               	movwf	(??_choose_alphabet+0)+0
 11809  0D2F  0870               	movf	(choose_alphabet@alphabet_array),w
 11810  0D30  3E06               	addlw	06h
 11811  0D31  0084               	movwf	fsr0
 11812  0D32  0871               	movf	(??_choose_alphabet+0)+0,w
 11813  0D33  0080               	movwf	indf
 11814                           	line	236
 11815                           ;Effect.c: 236: alphabet_array[7] = 0x3c;
 11816  0D34  303C               	movlw	(03Ch)
 11817  0D35  00F1               	movwf	(??_choose_alphabet+0)+0
 11818  0D36  0870               	movf	(choose_alphabet@alphabet_array),w
 11819  0D37  3E07               	addlw	07h
 11820  0D38  0084               	movwf	fsr0
 11821  0D39  0871               	movf	(??_choose_alphabet+0)+0,w
 11822  0D3A  0080               	movwf	indf
 11823                           	line	237
 11824                           ;Effect.c: 237: break;
 11825  0D3B  2FFF               	goto	l2283
 11826                           	line	239
 11827                           ;Effect.c: 239: case 'P': alphabet_array[0] = 0x03;
 11828                           	
 11829  0D3C                     l2272:	
 11830                           	
 11831  0D3C                     l5754:	
 11832  0D3C  3003               	movlw	(03h)
 11833  0D3D  00F1               	movwf	(??_choose_alphabet+0)+0
 11834  0D3E  0870               	movf	(choose_alphabet@alphabet_array),w
 11835  0D3F  0084               	movwf	fsr0
 11836  0D40  0871               	movf	(??_choose_alphabet+0)+0,w
 11837  0D41  1383               	bcf	status, 7	;select IRP bank0
 11838  0D42  0080               	movwf	indf
 11839                           	line	240
 11840                           ;Effect.c: 240: alphabet_array[1] = 0x03;
 11841  0D43  3003               	movlw	(03h)
 11842  0D44  00F1               	movwf	(??_choose_alphabet+0)+0
 11843  0D45  0870               	movf	(choose_alphabet@alphabet_array),w
 11844  0D46  3E01               	addlw	01h
 11845  0D47  0084               	movwf	fsr0
 11846  0D48  0871               	movf	(??_choose_alphabet+0)+0,w
 11847  0D49  0080               	movwf	indf
 11848                           	line	241
 11849                           ;Effect.c: 241: alphabet_array[2] = 0x7f;
 11850  0D4A  307F               	movlw	(07Fh)
 11851  0D4B  00F1               	movwf	(??_choose_alphabet+0)+0
 11852  0D4C  0870               	movf	(choose_alphabet@alphabet_array),w
 11853  0D4D  3E02               	addlw	02h
 11854  0D4E  0084               	movwf	fsr0
 11855  0D4F  0871               	movf	(??_choose_alphabet+0)+0,w
 11856  0D50  0080               	movwf	indf
 11857                           	line	242
 11858                           ;Effect.c: 242: alphabet_array[3] = 0xff;
 11859  0D51  30FF               	movlw	(0FFh)
 11860  0D52  00F1               	movwf	(??_choose_alphabet+0)+0
 11861  0D53  0870               	movf	(choose_alphabet@alphabet_array),w
 11862  0D54  3E03               	addlw	03h
 11863  0D55  0084               	movwf	fsr0
 11864  0D56  0871               	movf	(??_choose_alphabet+0)+0,w
 11865  0D57  0080               	movwf	indf
 11866                           	line	243
 11867                           ;Effect.c: 243: alphabet_array[4] = 0xc3;
 11868  0D58  30C3               	movlw	(0C3h)
 11869  0D59  00F1               	movwf	(??_choose_alphabet+0)+0
 11870  0D5A  0870               	movf	(choose_alphabet@alphabet_array),w
 11871  0D5B  3E04               	addlw	04h
 11872  0D5C  0084               	movwf	fsr0
 11873  0D5D  0871               	movf	(??_choose_alphabet+0)+0,w
 11874  0D5E  0080               	movwf	indf
 11875                           	line	244
 11876                           ;Effect.c: 244: alphabet_array[5] = 0xc3;
 11877  0D5F  30C3               	movlw	(0C3h)
 11878  0D60  00F1               	movwf	(??_choose_alphabet+0)+0
 11879  0D61  0870               	movf	(choose_alphabet@alphabet_array),w
 11880  0D62  3E05               	addlw	05h
 11881  0D63  0084               	movwf	fsr0
 11882  0D64  0871               	movf	(??_choose_alphabet+0)+0,w
 11883  0D65  0080               	movwf	indf
 11884                           	line	245
 11885                           ;Effect.c: 245: alphabet_array[6] = 0xff;
 11886  0D66  30FF               	movlw	(0FFh)
 11887  0D67  00F1               	movwf	(??_choose_alphabet+0)+0
 11888  0D68  0870               	movf	(choose_alphabet@alphabet_array),w
 11889  0D69  3E06               	addlw	06h
 11890  0D6A  0084               	movwf	fsr0
 11891  0D6B  0871               	movf	(??_choose_alphabet+0)+0,w
 11892  0D6C  0080               	movwf	indf
 11893                           	line	246
 11894                           ;Effect.c: 246: alphabet_array[7] = 0x7e;
 11895  0D6D  307E               	movlw	(07Eh)
 11896  0D6E  00F1               	movwf	(??_choose_alphabet+0)+0
 11897  0D6F  0870               	movf	(choose_alphabet@alphabet_array),w
 11898  0D70  3E07               	addlw	07h
 11899  0D71  0084               	movwf	fsr0
 11900  0D72  0871               	movf	(??_choose_alphabet+0)+0,w
 11901  0D73  0080               	movwf	indf
 11902                           	line	247
 11903                           ;Effect.c: 247: break;
 11904  0D74  2FFF               	goto	l2283
 11905                           	line	249
 11906                           ;Effect.c: 249: case 'Q': alphabet_array[0] = 0xde;
 11907                           	
 11908  0D75                     l2273:	
 11909                           	
 11910  0D75                     l5756:	
 11911  0D75  30DE               	movlw	(0DEh)
 11912  0D76  00F1               	movwf	(??_choose_alphabet+0)+0
 11913  0D77  0870               	movf	(choose_alphabet@alphabet_array),w
 11914  0D78  0084               	movwf	fsr0
 11915  0D79  0871               	movf	(??_choose_alphabet+0)+0,w
 11916  0D7A  1383               	bcf	status, 7	;select IRP bank0
 11917  0D7B  0080               	movwf	indf
 11918                           	line	250
 11919                           ;Effect.c: 250: alphabet_array[1] = 0x7f;
 11920  0D7C  307F               	movlw	(07Fh)
 11921  0D7D  00F1               	movwf	(??_choose_alphabet+0)+0
 11922  0D7E  0870               	movf	(choose_alphabet@alphabet_array),w
 11923  0D7F  3E01               	addlw	01h
 11924  0D80  0084               	movwf	fsr0
 11925  0D81  0871               	movf	(??_choose_alphabet+0)+0,w
 11926  0D82  0080               	movwf	indf
 11927                           	line	251
 11928                           ;Effect.c: 251: alphabet_array[2] = 0xf3;
 11929  0D83  30F3               	movlw	(0F3h)
 11930  0D84  00F1               	movwf	(??_choose_alphabet+0)+0
 11931  0D85  0870               	movf	(choose_alphabet@alphabet_array),w
 11932  0D86  3E02               	addlw	02h
 11933  0D87  0084               	movwf	fsr0
 11934  0D88  0871               	movf	(??_choose_alphabet+0)+0,w
 11935  0D89  0080               	movwf	indf
 11936                           	line	252
 11937                           ;Effect.c: 252: alphabet_array[3] = 0xdb;
 11938  0D8A  30DB               	movlw	(0DBh)
 11939  0D8B  00F1               	movwf	(??_choose_alphabet+0)+0
 11940  0D8C  0870               	movf	(choose_alphabet@alphabet_array),w
 11941  0D8D  3E03               	addlw	03h
 11942  0D8E  0084               	movwf	fsr0
 11943  0D8F  0871               	movf	(??_choose_alphabet+0)+0,w
 11944  0D90  0080               	movwf	indf
 11945                           	line	253
 11946                           ;Effect.c: 253: alphabet_array[4] = 0xc3;
 11947  0D91  30C3               	movlw	(0C3h)
 11948  0D92  00F1               	movwf	(??_choose_alphabet+0)+0
 11949  0D93  0870               	movf	(choose_alphabet@alphabet_array),w
 11950  0D94  3E04               	addlw	04h
 11951  0D95  0084               	movwf	fsr0
 11952  0D96  0871               	movf	(??_choose_alphabet+0)+0,w
 11953  0D97  0080               	movwf	indf
 11954                           	line	254
 11955                           ;Effect.c: 254: alphabet_array[5] = 0xc3;
 11956  0D98  30C3               	movlw	(0C3h)
 11957  0D99  00F1               	movwf	(??_choose_alphabet+0)+0
 11958  0D9A  0870               	movf	(choose_alphabet@alphabet_array),w
 11959  0D9B  3E05               	addlw	05h
 11960  0D9C  0084               	movwf	fsr0
 11961  0D9D  0871               	movf	(??_choose_alphabet+0)+0,w
 11962  0D9E  0080               	movwf	indf
 11963                           	line	255
 11964                           ;Effect.c: 255: alphabet_array[6] = 0x7e;
 11965  0D9F  307E               	movlw	(07Eh)
 11966  0DA0  00F1               	movwf	(??_choose_alphabet+0)+0
 11967  0DA1  0870               	movf	(choose_alphabet@alphabet_array),w
 11968  0DA2  3E06               	addlw	06h
 11969  0DA3  0084               	movwf	fsr0
 11970  0DA4  0871               	movf	(??_choose_alphabet+0)+0,w
 11971  0DA5  0080               	movwf	indf
 11972                           	line	256
 11973                           ;Effect.c: 256: alphabet_array[7] = 0x3c;
 11974  0DA6  303C               	movlw	(03Ch)
 11975  0DA7  00F1               	movwf	(??_choose_alphabet+0)+0
 11976  0DA8  0870               	movf	(choose_alphabet@alphabet_array),w
 11977  0DA9  3E07               	addlw	07h
 11978  0DAA  0084               	movwf	fsr0
 11979  0DAB  0871               	movf	(??_choose_alphabet+0)+0,w
 11980  0DAC  0080               	movwf	indf
 11981                           	line	257
 11982                           ;Effect.c: 257: break;
 11983  0DAD  2FFF               	goto	l2283
 11984                           	line	259
 11985                           ;Effect.c: 259: case 'R': alphabet_array[0] = 0xc3;
 11986                           	
 11987  0DAE                     l2274:	
 11988                           	
 11989  0DAE                     l5758:	
 11990  0DAE  30C3               	movlw	(0C3h)
 11991  0DAF  00F1               	movwf	(??_choose_alphabet+0)+0
 11992  0DB0  0870               	movf	(choose_alphabet@alphabet_array),w
 11993  0DB1  0084               	movwf	fsr0
 11994  0DB2  0871               	movf	(??_choose_alphabet+0)+0,w
 11995  0DB3  1383               	bcf	status, 7	;select IRP bank0
 11996  0DB4  0080               	movwf	indf
 11997                           	line	260
 11998                           ;Effect.c: 260: alphabet_array[1] = 0xe3;
 11999  0DB5  30E3               	movlw	(0E3h)
 12000  0DB6  00F1               	movwf	(??_choose_alphabet+0)+0
 12001  0DB7  0870               	movf	(choose_alphabet@alphabet_array),w
 12002  0DB8  3E01               	addlw	01h
 12003  0DB9  0084               	movwf	fsr0
 12004  0DBA  0871               	movf	(??_choose_alphabet+0)+0,w
 12005  0DBB  0080               	movwf	indf
 12006                           	line	261
 12007                           ;Effect.c: 261: alphabet_array[2] = 0x73;
 12008  0DBC  3073               	movlw	(073h)
 12009  0DBD  00F1               	movwf	(??_choose_alphabet+0)+0
 12010  0DBE  0870               	movf	(choose_alphabet@alphabet_array),w
 12011  0DBF  3E02               	addlw	02h
 12012  0DC0  0084               	movwf	fsr0
 12013  0DC1  0871               	movf	(??_choose_alphabet+0)+0,w
 12014  0DC2  0080               	movwf	indf
 12015                           	line	262
 12016                           ;Effect.c: 262: alphabet_array[3] = 0x7f;
 12017  0DC3  307F               	movlw	(07Fh)
 12018  0DC4  00F1               	movwf	(??_choose_alphabet+0)+0
 12019  0DC5  0870               	movf	(choose_alphabet@alphabet_array),w
 12020  0DC6  3E03               	addlw	03h
 12021  0DC7  0084               	movwf	fsr0
 12022  0DC8  0871               	movf	(??_choose_alphabet+0)+0,w
 12023  0DC9  0080               	movwf	indf
 12024                           	line	263
 12025                           ;Effect.c: 263: alphabet_array[4] = 0xff;
 12026  0DCA  30FF               	movlw	(0FFh)
 12027  0DCB  00F1               	movwf	(??_choose_alphabet+0)+0
 12028  0DCC  0870               	movf	(choose_alphabet@alphabet_array),w
 12029  0DCD  3E04               	addlw	04h
 12030  0DCE  0084               	movwf	fsr0
 12031  0DCF  0871               	movf	(??_choose_alphabet+0)+0,w
 12032  0DD0  0080               	movwf	indf
 12033                           	line	264
 12034                           ;Effect.c: 264: alphabet_array[5] = 0xc3;
 12035  0DD1  30C3               	movlw	(0C3h)
 12036  0DD2  00F1               	movwf	(??_choose_alphabet+0)+0
 12037  0DD3  0870               	movf	(choose_alphabet@alphabet_array),w
 12038  0DD4  3E05               	addlw	05h
 12039  0DD5  0084               	movwf	fsr0
 12040  0DD6  0871               	movf	(??_choose_alphabet+0)+0,w
 12041  0DD7  0080               	movwf	indf
 12042                           	line	265
 12043                           ;Effect.c: 265: alphabet_array[6] = 0xff;
 12044  0DD8  30FF               	movlw	(0FFh)
 12045  0DD9  00F1               	movwf	(??_choose_alphabet+0)+0
 12046  0DDA  0870               	movf	(choose_alphabet@alphabet_array),w
 12047  0DDB  3E06               	addlw	06h
 12048  0DDC  0084               	movwf	fsr0
 12049  0DDD  0871               	movf	(??_choose_alphabet+0)+0,w
 12050  0DDE  0080               	movwf	indf
 12051                           	line	266
 12052                           ;Effect.c: 266: alphabet_array[7] = 0x7f;
 12053  0DDF  307F               	movlw	(07Fh)
 12054  0DE0  00F1               	movwf	(??_choose_alphabet+0)+0
 12055  0DE1  0870               	movf	(choose_alphabet@alphabet_array),w
 12056  0DE2  3E07               	addlw	07h
 12057  0DE3  0084               	movwf	fsr0
 12058  0DE4  0871               	movf	(??_choose_alphabet+0)+0,w
 12059  0DE5  0080               	movwf	indf
 12060                           	line	267
 12061                           ;Effect.c: 267: break;
 12062  0DE6  2FFF               	goto	l2283
 12063                           	line	269
 12064                           ;Effect.c: 269: case 'S': alphabet_array[0] = 0xff;
 12065                           	
 12066  0DE7                     l2275:	
 12067                           	
 12068  0DE7                     l5760:	
 12069  0DE7  30FF               	movlw	(0FFh)
 12070  0DE8  00F1               	movwf	(??_choose_alphabet+0)+0
 12071  0DE9  0870               	movf	(choose_alphabet@alphabet_array),w
 12072  0DEA  0084               	movwf	fsr0
 12073  0DEB  0871               	movf	(??_choose_alphabet+0)+0,w
 12074  0DEC  1383               	bcf	status, 7	;select IRP bank0
 12075  0DED  0080               	movwf	indf
 12076                           	line	270
 12077                           ;Effect.c: 270: alphabet_array[1] = 0xff;
 12078  0DEE  30FF               	movlw	(0FFh)
 12079  0DEF  00F1               	movwf	(??_choose_alphabet+0)+0
 12080  0DF0  0870               	movf	(choose_alphabet@alphabet_array),w
 12081  0DF1  3E01               	addlw	01h
 12082  0DF2  0084               	movwf	fsr0
 12083  0DF3  0871               	movf	(??_choose_alphabet+0)+0,w
 12084  0DF4  0080               	movwf	indf
 12085                           	line	271
 12086                           ;Effect.c: 271: alphabet_array[2] = 0xc0;
 12087  0DF5  30C0               	movlw	(0C0h)
 12088  0DF6  00F1               	movwf	(??_choose_alphabet+0)+0
 12089  0DF7  0870               	movf	(choose_alphabet@alphabet_array),w
 12090  0DF8  3E02               	addlw	02h
 12091  0DF9  0084               	movwf	fsr0
 12092  0DFA  0871               	movf	(??_choose_alphabet+0)+0,w
 12093  0DFB  0080               	movwf	indf
 12094                           	line	272
 12095                           ;Effect.c: 272: alphabet_array[3] = 0xff;
 12096  0DFC  30FF               	movlw	(0FFh)
 12097  0DFD  00F1               	movwf	(??_choose_alphabet+0)+0
 12098  0DFE  0870               	movf	(choose_alphabet@alphabet_array),w
 12099  0DFF  3E03               	addlw	03h
 12100  0E00  0084               	movwf	fsr0
 12101  0E01  0871               	movf	(??_choose_alphabet+0)+0,w
 12102  0E02  0080               	movwf	indf
 12103                           	line	273
 12104                           ;Effect.c: 273: alphabet_array[4] = 0xff;
 12105  0E03  30FF               	movlw	(0FFh)
 12106  0E04  00F1               	movwf	(??_choose_alphabet+0)+0
 12107  0E05  0870               	movf	(choose_alphabet@alphabet_array),w
 12108  0E06  3E04               	addlw	04h
 12109  0E07  0084               	movwf	fsr0
 12110  0E08  0871               	movf	(??_choose_alphabet+0)+0,w
 12111  0E09  0080               	movwf	indf
 12112                           	line	274
 12113                           ;Effect.c: 274: alphabet_array[5] = 0x03;
 12114  0E0A  3003               	movlw	(03h)
 12115  0E0B  00F1               	movwf	(??_choose_alphabet+0)+0
 12116  0E0C  0870               	movf	(choose_alphabet@alphabet_array),w
 12117  0E0D  3E05               	addlw	05h
 12118  0E0E  0084               	movwf	fsr0
 12119  0E0F  0871               	movf	(??_choose_alphabet+0)+0,w
 12120  0E10  0080               	movwf	indf
 12121                           	line	275
 12122                           ;Effect.c: 275: alphabet_array[6] = 0xff;
 12123  0E11  30FF               	movlw	(0FFh)
 12124  0E12  00F1               	movwf	(??_choose_alphabet+0)+0
 12125  0E13  0870               	movf	(choose_alphabet@alphabet_array),w
 12126  0E14  3E06               	addlw	06h
 12127  0E15  0084               	movwf	fsr0
 12128  0E16  0871               	movf	(??_choose_alphabet+0)+0,w
 12129  0E17  0080               	movwf	indf
 12130                           	line	276
 12131                           ;Effect.c: 276: alphabet_array[7] = 0xff;
 12132  0E18  30FF               	movlw	(0FFh)
 12133  0E19  00F1               	movwf	(??_choose_alphabet+0)+0
 12134  0E1A  0870               	movf	(choose_alphabet@alphabet_array),w
 12135  0E1B  3E07               	addlw	07h
 12136  0E1C  0084               	movwf	fsr0
 12137  0E1D  0871               	movf	(??_choose_alphabet+0)+0,w
 12138  0E1E  0080               	movwf	indf
 12139                           	line	277
 12140                           ;Effect.c: 277: break;
 12141  0E1F  2FFF               	goto	l2283
 12142                           	line	279
 12143                           ;Effect.c: 279: case 'T': alphabet_array[0] = 0x18;
 12144                           	
 12145  0E20                     l2276:	
 12146                           	
 12147  0E20                     l5762:	
 12148  0E20  3018               	movlw	(018h)
 12149  0E21  00F1               	movwf	(??_choose_alphabet+0)+0
 12150  0E22  0870               	movf	(choose_alphabet@alphabet_array),w
 12151  0E23  0084               	movwf	fsr0
 12152  0E24  0871               	movf	(??_choose_alphabet+0)+0,w
 12153  0E25  1383               	bcf	status, 7	;select IRP bank0
 12154  0E26  0080               	movwf	indf
 12155                           	line	280
 12156                           ;Effect.c: 280: alphabet_array[1] = 0x18;
 12157  0E27  3018               	movlw	(018h)
 12158  0E28  00F1               	movwf	(??_choose_alphabet+0)+0
 12159  0E29  0870               	movf	(choose_alphabet@alphabet_array),w
 12160  0E2A  3E01               	addlw	01h
 12161  0E2B  0084               	movwf	fsr0
 12162  0E2C  0871               	movf	(??_choose_alphabet+0)+0,w
 12163  0E2D  0080               	movwf	indf
 12164                           	line	281
 12165                           ;Effect.c: 281: alphabet_array[2] = 0x18;
 12166  0E2E  3018               	movlw	(018h)
 12167  0E2F  00F1               	movwf	(??_choose_alphabet+0)+0
 12168  0E30  0870               	movf	(choose_alphabet@alphabet_array),w
 12169  0E31  3E02               	addlw	02h
 12170  0E32  0084               	movwf	fsr0
 12171  0E33  0871               	movf	(??_choose_alphabet+0)+0,w
 12172  0E34  0080               	movwf	indf
 12173                           	line	282
 12174                           ;Effect.c: 282: alphabet_array[3] = 0x18;
 12175  0E35  3018               	movlw	(018h)
 12176  0E36  00F1               	movwf	(??_choose_alphabet+0)+0
 12177  0E37  0870               	movf	(choose_alphabet@alphabet_array),w
 12178  0E38  3E03               	addlw	03h
 12179  0E39  0084               	movwf	fsr0
 12180  0E3A  0871               	movf	(??_choose_alphabet+0)+0,w
 12181  0E3B  0080               	movwf	indf
 12182                           	line	283
 12183                           ;Effect.c: 283: alphabet_array[4] = 0x18;
 12184  0E3C  3018               	movlw	(018h)
 12185  0E3D  00F1               	movwf	(??_choose_alphabet+0)+0
 12186  0E3E  0870               	movf	(choose_alphabet@alphabet_array),w
 12187  0E3F  3E04               	addlw	04h
 12188  0E40  0084               	movwf	fsr0
 12189  0E41  0871               	movf	(??_choose_alphabet+0)+0,w
 12190  0E42  0080               	movwf	indf
 12191                           	line	284
 12192                           ;Effect.c: 284: alphabet_array[5] = 0x18;
 12193  0E43  3018               	movlw	(018h)
 12194  0E44  00F1               	movwf	(??_choose_alphabet+0)+0
 12195  0E45  0870               	movf	(choose_alphabet@alphabet_array),w
 12196  0E46  3E05               	addlw	05h
 12197  0E47  0084               	movwf	fsr0
 12198  0E48  0871               	movf	(??_choose_alphabet+0)+0,w
 12199  0E49  0080               	movwf	indf
 12200                           	line	285
 12201                           ;Effect.c: 285: alphabet_array[6] = 0xff;
 12202  0E4A  30FF               	movlw	(0FFh)
 12203  0E4B  00F1               	movwf	(??_choose_alphabet+0)+0
 12204  0E4C  0870               	movf	(choose_alphabet@alphabet_array),w
 12205  0E4D  3E06               	addlw	06h
 12206  0E4E  0084               	movwf	fsr0
 12207  0E4F  0871               	movf	(??_choose_alphabet+0)+0,w
 12208  0E50  0080               	movwf	indf
 12209                           	line	286
 12210                           ;Effect.c: 286: alphabet_array[7] = 0xff;
 12211  0E51  30FF               	movlw	(0FFh)
 12212  0E52  00F1               	movwf	(??_choose_alphabet+0)+0
 12213  0E53  0870               	movf	(choose_alphabet@alphabet_array),w
 12214  0E54  3E07               	addlw	07h
 12215  0E55  0084               	movwf	fsr0
 12216  0E56  0871               	movf	(??_choose_alphabet+0)+0,w
 12217  0E57  0080               	movwf	indf
 12218                           	line	287
 12219                           ;Effect.c: 287: break;
 12220  0E58  2FFF               	goto	l2283
 12221                           	line	288
 12222                           ;Effect.c: 288: case 'U': alphabet_array[0] = 0x7e;
 12223                           	
 12224  0E59                     l2277:	
 12225                           	
 12226  0E59                     l5764:	
 12227  0E59  307E               	movlw	(07Eh)
 12228  0E5A  00F1               	movwf	(??_choose_alphabet+0)+0
 12229  0E5B  0870               	movf	(choose_alphabet@alphabet_array),w
 12230  0E5C  0084               	movwf	fsr0
 12231  0E5D  0871               	movf	(??_choose_alphabet+0)+0,w
 12232  0E5E  1383               	bcf	status, 7	;select IRP bank0
 12233  0E5F  0080               	movwf	indf
 12234                           	line	289
 12235                           ;Effect.c: 289: alphabet_array[1] = 0xff;
 12236  0E60  30FF               	movlw	(0FFh)
 12237  0E61  00F1               	movwf	(??_choose_alphabet+0)+0
 12238  0E62  0870               	movf	(choose_alphabet@alphabet_array),w
 12239  0E63  3E01               	addlw	01h
 12240  0E64  0084               	movwf	fsr0
 12241  0E65  0871               	movf	(??_choose_alphabet+0)+0,w
 12242  0E66  0080               	movwf	indf
 12243                           	line	290
 12244                           ;Effect.c: 290: alphabet_array[2] = 0xc3;
 12245  0E67  30C3               	movlw	(0C3h)
 12246  0E68  00F1               	movwf	(??_choose_alphabet+0)+0
 12247  0E69  0870               	movf	(choose_alphabet@alphabet_array),w
 12248  0E6A  3E02               	addlw	02h
 12249  0E6B  0084               	movwf	fsr0
 12250  0E6C  0871               	movf	(??_choose_alphabet+0)+0,w
 12251  0E6D  0080               	movwf	indf
 12252                           	line	291
 12253                           ;Effect.c: 291: alphabet_array[3] = 0xc3;
 12254  0E6E  30C3               	movlw	(0C3h)
 12255  0E6F  00F1               	movwf	(??_choose_alphabet+0)+0
 12256  0E70  0870               	movf	(choose_alphabet@alphabet_array),w
 12257  0E71  3E03               	addlw	03h
 12258  0E72  0084               	movwf	fsr0
 12259  0E73  0871               	movf	(??_choose_alphabet+0)+0,w
 12260  0E74  0080               	movwf	indf
 12261                           	line	292
 12262                           ;Effect.c: 292: alphabet_array[4] = 0xc3;
 12263  0E75  30C3               	movlw	(0C3h)
 12264  0E76  00F1               	movwf	(??_choose_alphabet+0)+0
 12265  0E77  0870               	movf	(choose_alphabet@alphabet_array),w
 12266  0E78  3E04               	addlw	04h
 12267  0E79  0084               	movwf	fsr0
 12268  0E7A  0871               	movf	(??_choose_alphabet+0)+0,w
 12269  0E7B  0080               	movwf	indf
 12270                           	line	293
 12271                           ;Effect.c: 293: alphabet_array[5] = 0xc3;
 12272  0E7C  30C3               	movlw	(0C3h)
 12273  0E7D  00F1               	movwf	(??_choose_alphabet+0)+0
 12274  0E7E  0870               	movf	(choose_alphabet@alphabet_array),w
 12275  0E7F  3E05               	addlw	05h
 12276  0E80  0084               	movwf	fsr0
 12277  0E81  0871               	movf	(??_choose_alphabet+0)+0,w
 12278  0E82  0080               	movwf	indf
 12279                           	line	294
 12280                           ;Effect.c: 294: alphabet_array[6] = 0xc3;
 12281  0E83  30C3               	movlw	(0C3h)
 12282  0E84  00F1               	movwf	(??_choose_alphabet+0)+0
 12283  0E85  0870               	movf	(choose_alphabet@alphabet_array),w
 12284  0E86  3E06               	addlw	06h
 12285  0E87  0084               	movwf	fsr0
 12286  0E88  0871               	movf	(??_choose_alphabet+0)+0,w
 12287  0E89  0080               	movwf	indf
 12288                           	line	295
 12289                           ;Effect.c: 295: alphabet_array[7] = 0xc3;
 12290  0E8A  30C3               	movlw	(0C3h)
 12291  0E8B  00F1               	movwf	(??_choose_alphabet+0)+0
 12292  0E8C  0870               	movf	(choose_alphabet@alphabet_array),w
 12293  0E8D  3E07               	addlw	07h
 12294  0E8E  0084               	movwf	fsr0
 12295  0E8F  0871               	movf	(??_choose_alphabet+0)+0,w
 12296  0E90  0080               	movwf	indf
 12297                           	line	296
 12298                           ;Effect.c: 296: break;
 12299  0E91  2FFF               	goto	l2283
 12300                           	line	298
 12301                           ;Effect.c: 298: case 'V': alphabet_array[0] = 0x18;
 12302                           	
 12303  0E92                     l2278:	
 12304                           	
 12305  0E92                     l5766:	
 12306  0E92  3018               	movlw	(018h)
 12307  0E93  00F1               	movwf	(??_choose_alphabet+0)+0
 12308  0E94  0870               	movf	(choose_alphabet@alphabet_array),w
 12309  0E95  0084               	movwf	fsr0
 12310  0E96  0871               	movf	(??_choose_alphabet+0)+0,w
 12311  0E97  1383               	bcf	status, 7	;select IRP bank0
 12312  0E98  0080               	movwf	indf
 12313                           	line	299
 12314                           ;Effect.c: 299: alphabet_array[1] = 0x3c;
 12315  0E99  303C               	movlw	(03Ch)
 12316  0E9A  00F1               	movwf	(??_choose_alphabet+0)+0
 12317  0E9B  0870               	movf	(choose_alphabet@alphabet_array),w
 12318  0E9C  3E01               	addlw	01h
 12319  0E9D  0084               	movwf	fsr0
 12320  0E9E  0871               	movf	(??_choose_alphabet+0)+0,w
 12321  0E9F  0080               	movwf	indf
 12322                           	line	300
 12323                           ;Effect.c: 300: alphabet_array[2] = 0x66;
 12324  0EA0  3066               	movlw	(066h)
 12325  0EA1  00F1               	movwf	(??_choose_alphabet+0)+0
 12326  0EA2  0870               	movf	(choose_alphabet@alphabet_array),w
 12327  0EA3  3E02               	addlw	02h
 12328  0EA4  0084               	movwf	fsr0
 12329  0EA5  0871               	movf	(??_choose_alphabet+0)+0,w
 12330  0EA6  0080               	movwf	indf
 12331                           	line	301
 12332                           ;Effect.c: 301: alphabet_array[3] = 0xe7;
 12333  0EA7  30E7               	movlw	(0E7h)
 12334  0EA8  00F1               	movwf	(??_choose_alphabet+0)+0
 12335  0EA9  0870               	movf	(choose_alphabet@alphabet_array),w
 12336  0EAA  3E03               	addlw	03h
 12337  0EAB  0084               	movwf	fsr0
 12338  0EAC  0871               	movf	(??_choose_alphabet+0)+0,w
 12339  0EAD  0080               	movwf	indf
 12340                           	line	302
 12341                           ;Effect.c: 302: alphabet_array[4] = 0xc3;
 12342  0EAE  30C3               	movlw	(0C3h)
 12343  0EAF  00F1               	movwf	(??_choose_alphabet+0)+0
 12344  0EB0  0870               	movf	(choose_alphabet@alphabet_array),w
 12345  0EB1  3E04               	addlw	04h
 12346  0EB2  0084               	movwf	fsr0
 12347  0EB3  0871               	movf	(??_choose_alphabet+0)+0,w
 12348  0EB4  0080               	movwf	indf
 12349                           	line	303
 12350                           ;Effect.c: 303: alphabet_array[5] = 0xc3;
 12351  0EB5  30C3               	movlw	(0C3h)
 12352  0EB6  00F1               	movwf	(??_choose_alphabet+0)+0
 12353  0EB7  0870               	movf	(choose_alphabet@alphabet_array),w
 12354  0EB8  3E05               	addlw	05h
 12355  0EB9  0084               	movwf	fsr0
 12356  0EBA  0871               	movf	(??_choose_alphabet+0)+0,w
 12357  0EBB  0080               	movwf	indf
 12358                           	line	304
 12359                           ;Effect.c: 304: alphabet_array[6] = 0xc3;
 12360  0EBC  30C3               	movlw	(0C3h)
 12361  0EBD  00F1               	movwf	(??_choose_alphabet+0)+0
 12362  0EBE  0870               	movf	(choose_alphabet@alphabet_array),w
 12363  0EBF  3E06               	addlw	06h
 12364  0EC0  0084               	movwf	fsr0
 12365  0EC1  0871               	movf	(??_choose_alphabet+0)+0,w
 12366  0EC2  0080               	movwf	indf
 12367                           	line	305
 12368                           ;Effect.c: 305: alphabet_array[7] = 0xc3;
 12369  0EC3  30C3               	movlw	(0C3h)
 12370  0EC4  00F1               	movwf	(??_choose_alphabet+0)+0
 12371  0EC5  0870               	movf	(choose_alphabet@alphabet_array),w
 12372  0EC6  3E07               	addlw	07h
 12373  0EC7  0084               	movwf	fsr0
 12374  0EC8  0871               	movf	(??_choose_alphabet+0)+0,w
 12375  0EC9  0080               	movwf	indf
 12376                           	line	306
 12377                           ;Effect.c: 306: break;
 12378  0ECA  2FFF               	goto	l2283
 12379                           	line	308
 12380                           ;Effect.c: 308: case 'W': alphabet_array[0] = 0xc3;
 12381                           	
 12382  0ECB                     l2279:	
 12383                           	
 12384  0ECB                     l5768:	
 12385  0ECB  30C3               	movlw	(0C3h)
 12386  0ECC  00F1               	movwf	(??_choose_alphabet+0)+0
 12387  0ECD  0870               	movf	(choose_alphabet@alphabet_array),w
 12388  0ECE  0084               	movwf	fsr0
 12389  0ECF  0871               	movf	(??_choose_alphabet+0)+0,w
 12390  0ED0  1383               	bcf	status, 7	;select IRP bank0
 12391  0ED1  0080               	movwf	indf
 12392                           	line	309
 12393                           ;Effect.c: 309: alphabet_array[1] = 0xe7;
 12394  0ED2  30E7               	movlw	(0E7h)
 12395  0ED3  00F1               	movwf	(??_choose_alphabet+0)+0
 12396  0ED4  0870               	movf	(choose_alphabet@alphabet_array),w
 12397  0ED5  3E01               	addlw	01h
 12398  0ED6  0084               	movwf	fsr0
 12399  0ED7  0871               	movf	(??_choose_alphabet+0)+0,w
 12400  0ED8  0080               	movwf	indf
 12401                           	line	310
 12402                           ;Effect.c: 310: alphabet_array[2] = 0xff;
 12403  0ED9  30FF               	movlw	(0FFh)
 12404  0EDA  00F1               	movwf	(??_choose_alphabet+0)+0
 12405  0EDB  0870               	movf	(choose_alphabet@alphabet_array),w
 12406  0EDC  3E02               	addlw	02h
 12407  0EDD  0084               	movwf	fsr0
 12408  0EDE  0871               	movf	(??_choose_alphabet+0)+0,w
 12409  0EDF  0080               	movwf	indf
 12410                           	line	311
 12411                           ;Effect.c: 311: alphabet_array[3] = 0xdb;
 12412  0EE0  30DB               	movlw	(0DBh)
 12413  0EE1  00F1               	movwf	(??_choose_alphabet+0)+0
 12414  0EE2  0870               	movf	(choose_alphabet@alphabet_array),w
 12415  0EE3  3E03               	addlw	03h
 12416  0EE4  0084               	movwf	fsr0
 12417  0EE5  0871               	movf	(??_choose_alphabet+0)+0,w
 12418  0EE6  0080               	movwf	indf
 12419                           	line	312
 12420                           ;Effect.c: 312: alphabet_array[4] = 0xc3;
 12421  0EE7  30C3               	movlw	(0C3h)
 12422  0EE8  00F1               	movwf	(??_choose_alphabet+0)+0
 12423  0EE9  0870               	movf	(choose_alphabet@alphabet_array),w
 12424  0EEA  3E04               	addlw	04h
 12425  0EEB  0084               	movwf	fsr0
 12426  0EEC  0871               	movf	(??_choose_alphabet+0)+0,w
 12427  0EED  0080               	movwf	indf
 12428                           	line	313
 12429                           ;Effect.c: 313: alphabet_array[5] = 0xc3;
 12430  0EEE  30C3               	movlw	(0C3h)
 12431  0EEF  00F1               	movwf	(??_choose_alphabet+0)+0
 12432  0EF0  0870               	movf	(choose_alphabet@alphabet_array),w
 12433  0EF1  3E05               	addlw	05h
 12434  0EF2  0084               	movwf	fsr0
 12435  0EF3  0871               	movf	(??_choose_alphabet+0)+0,w
 12436  0EF4  0080               	movwf	indf
 12437                           	line	314
 12438                           ;Effect.c: 314: alphabet_array[6] = 0xc3;
 12439  0EF5  30C3               	movlw	(0C3h)
 12440  0EF6  00F1               	movwf	(??_choose_alphabet+0)+0
 12441  0EF7  0870               	movf	(choose_alphabet@alphabet_array),w
 12442  0EF8  3E06               	addlw	06h
 12443  0EF9  0084               	movwf	fsr0
 12444  0EFA  0871               	movf	(??_choose_alphabet+0)+0,w
 12445  0EFB  0080               	movwf	indf
 12446                           	line	315
 12447                           ;Effect.c: 315: alphabet_array[7] = 0xc3;
 12448  0EFC  30C3               	movlw	(0C3h)
 12449  0EFD  00F1               	movwf	(??_choose_alphabet+0)+0
 12450  0EFE  0870               	movf	(choose_alphabet@alphabet_array),w
 12451  0EFF  3E07               	addlw	07h
 12452  0F00  0084               	movwf	fsr0
 12453  0F01  0871               	movf	(??_choose_alphabet+0)+0,w
 12454  0F02  0080               	movwf	indf
 12455                           	line	316
 12456                           ;Effect.c: 316: break;
 12457  0F03  2FFF               	goto	l2283
 12458                           	line	318
 12459                           ;Effect.c: 318: case 'X': alphabet_array[0] = 0xc3;
 12460                           	
 12461  0F04                     l2280:	
 12462                           	
 12463  0F04                     l5770:	
 12464  0F04  30C3               	movlw	(0C3h)
 12465  0F05  00F1               	movwf	(??_choose_alphabet+0)+0
 12466  0F06  0870               	movf	(choose_alphabet@alphabet_array),w
 12467  0F07  0084               	movwf	fsr0
 12468  0F08  0871               	movf	(??_choose_alphabet+0)+0,w
 12469  0F09  1383               	bcf	status, 7	;select IRP bank0
 12470  0F0A  0080               	movwf	indf
 12471                           	line	319
 12472                           ;Effect.c: 319: alphabet_array[1] = 0xc3;
 12473  0F0B  30C3               	movlw	(0C3h)
 12474  0F0C  00F1               	movwf	(??_choose_alphabet+0)+0
 12475  0F0D  0870               	movf	(choose_alphabet@alphabet_array),w
 12476  0F0E  3E01               	addlw	01h
 12477  0F0F  0084               	movwf	fsr0
 12478  0F10  0871               	movf	(??_choose_alphabet+0)+0,w
 12479  0F11  0080               	movwf	indf
 12480                           	line	320
 12481                           ;Effect.c: 320: alphabet_array[2] = 0x66;
 12482  0F12  3066               	movlw	(066h)
 12483  0F13  00F1               	movwf	(??_choose_alphabet+0)+0
 12484  0F14  0870               	movf	(choose_alphabet@alphabet_array),w
 12485  0F15  3E02               	addlw	02h
 12486  0F16  0084               	movwf	fsr0
 12487  0F17  0871               	movf	(??_choose_alphabet+0)+0,w
 12488  0F18  0080               	movwf	indf
 12489                           	line	321
 12490                           ;Effect.c: 321: alphabet_array[3] = 0x3c;
 12491  0F19  303C               	movlw	(03Ch)
 12492  0F1A  00F1               	movwf	(??_choose_alphabet+0)+0
 12493  0F1B  0870               	movf	(choose_alphabet@alphabet_array),w
 12494  0F1C  3E03               	addlw	03h
 12495  0F1D  0084               	movwf	fsr0
 12496  0F1E  0871               	movf	(??_choose_alphabet+0)+0,w
 12497  0F1F  0080               	movwf	indf
 12498                           	line	322
 12499                           ;Effect.c: 322: alphabet_array[4] = 0x3c;
 12500  0F20  303C               	movlw	(03Ch)
 12501  0F21  00F1               	movwf	(??_choose_alphabet+0)+0
 12502  0F22  0870               	movf	(choose_alphabet@alphabet_array),w
 12503  0F23  3E04               	addlw	04h
 12504  0F24  0084               	movwf	fsr0
 12505  0F25  0871               	movf	(??_choose_alphabet+0)+0,w
 12506  0F26  0080               	movwf	indf
 12507                           	line	323
 12508                           ;Effect.c: 323: alphabet_array[5] = 0x66;
 12509  0F27  3066               	movlw	(066h)
 12510  0F28  00F1               	movwf	(??_choose_alphabet+0)+0
 12511  0F29  0870               	movf	(choose_alphabet@alphabet_array),w
 12512  0F2A  3E05               	addlw	05h
 12513  0F2B  0084               	movwf	fsr0
 12514  0F2C  0871               	movf	(??_choose_alphabet+0)+0,w
 12515  0F2D  0080               	movwf	indf
 12516                           	line	324
 12517                           ;Effect.c: 324: alphabet_array[6] = 0xc3;
 12518  0F2E  30C3               	movlw	(0C3h)
 12519  0F2F  00F1               	movwf	(??_choose_alphabet+0)+0
 12520  0F30  0870               	movf	(choose_alphabet@alphabet_array),w
 12521  0F31  3E06               	addlw	06h
 12522  0F32  0084               	movwf	fsr0
 12523  0F33  0871               	movf	(??_choose_alphabet+0)+0,w
 12524  0F34  0080               	movwf	indf
 12525                           	line	325
 12526                           ;Effect.c: 325: alphabet_array[7] = 0xc3;
 12527  0F35  30C3               	movlw	(0C3h)
 12528  0F36  00F1               	movwf	(??_choose_alphabet+0)+0
 12529  0F37  0870               	movf	(choose_alphabet@alphabet_array),w
 12530  0F38  3E07               	addlw	07h
 12531  0F39  0084               	movwf	fsr0
 12532  0F3A  0871               	movf	(??_choose_alphabet+0)+0,w
 12533  0F3B  0080               	movwf	indf
 12534                           	line	326
 12535                           ;Effect.c: 326: break;
 12536  0F3C  2FFF               	goto	l2283
 12537                           	line	328
 12538                           ;Effect.c: 328: case 'Y': alphabet_array[0] = 0x18;
 12539                           	
 12540  0F3D                     l2281:	
 12541                           	
 12542  0F3D                     l5772:	
 12543  0F3D  3018               	movlw	(018h)
 12544  0F3E  00F1               	movwf	(??_choose_alphabet+0)+0
 12545  0F3F  0870               	movf	(choose_alphabet@alphabet_array),w
 12546  0F40  0084               	movwf	fsr0
 12547  0F41  0871               	movf	(??_choose_alphabet+0)+0,w
 12548  0F42  1383               	bcf	status, 7	;select IRP bank0
 12549  0F43  0080               	movwf	indf
 12550                           	line	329
 12551                           ;Effect.c: 329: alphabet_array[1] = 0x18;
 12552  0F44  3018               	movlw	(018h)
 12553  0F45  00F1               	movwf	(??_choose_alphabet+0)+0
 12554  0F46  0870               	movf	(choose_alphabet@alphabet_array),w
 12555  0F47  3E01               	addlw	01h
 12556  0F48  0084               	movwf	fsr0
 12557  0F49  0871               	movf	(??_choose_alphabet+0)+0,w
 12558  0F4A  0080               	movwf	indf
 12559                           	line	330
 12560                           ;Effect.c: 330: alphabet_array[2] = 0x18;
 12561  0F4B  3018               	movlw	(018h)
 12562  0F4C  00F1               	movwf	(??_choose_alphabet+0)+0
 12563  0F4D  0870               	movf	(choose_alphabet@alphabet_array),w
 12564  0F4E  3E02               	addlw	02h
 12565  0F4F  0084               	movwf	fsr0
 12566  0F50  0871               	movf	(??_choose_alphabet+0)+0,w
 12567  0F51  0080               	movwf	indf
 12568                           	line	331
 12569                           ;Effect.c: 331: alphabet_array[3] = 0x18;
 12570  0F52  3018               	movlw	(018h)
 12571  0F53  00F1               	movwf	(??_choose_alphabet+0)+0
 12572  0F54  0870               	movf	(choose_alphabet@alphabet_array),w
 12573  0F55  3E03               	addlw	03h
 12574  0F56  0084               	movwf	fsr0
 12575  0F57  0871               	movf	(??_choose_alphabet+0)+0,w
 12576  0F58  0080               	movwf	indf
 12577                           	line	332
 12578                           ;Effect.c: 332: alphabet_array[4] = 0x3c;
 12579  0F59  303C               	movlw	(03Ch)
 12580  0F5A  00F1               	movwf	(??_choose_alphabet+0)+0
 12581  0F5B  0870               	movf	(choose_alphabet@alphabet_array),w
 12582  0F5C  3E04               	addlw	04h
 12583  0F5D  0084               	movwf	fsr0
 12584  0F5E  0871               	movf	(??_choose_alphabet+0)+0,w
 12585  0F5F  0080               	movwf	indf
 12586                           	line	333
 12587                           ;Effect.c: 333: alphabet_array[5] = 0x66;
 12588  0F60  3066               	movlw	(066h)
 12589  0F61  00F1               	movwf	(??_choose_alphabet+0)+0
 12590  0F62  0870               	movf	(choose_alphabet@alphabet_array),w
 12591  0F63  3E05               	addlw	05h
 12592  0F64  0084               	movwf	fsr0
 12593  0F65  0871               	movf	(??_choose_alphabet+0)+0,w
 12594  0F66  0080               	movwf	indf
 12595                           	line	334
 12596                           ;Effect.c: 334: alphabet_array[6] = 0xc3;
 12597  0F67  30C3               	movlw	(0C3h)
 12598  0F68  00F1               	movwf	(??_choose_alphabet+0)+0
 12599  0F69  0870               	movf	(choose_alphabet@alphabet_array),w
 12600  0F6A  3E06               	addlw	06h
 12601  0F6B  0084               	movwf	fsr0
 12602  0F6C  0871               	movf	(??_choose_alphabet+0)+0,w
 12603  0F6D  0080               	movwf	indf
 12604                           	line	335
 12605                           ;Effect.c: 335: alphabet_array[7] = 0xc3;
 12606  0F6E  30C3               	movlw	(0C3h)
 12607  0F6F  00F1               	movwf	(??_choose_alphabet+0)+0
 12608  0F70  0870               	movf	(choose_alphabet@alphabet_array),w
 12609  0F71  3E07               	addlw	07h
 12610  0F72  0084               	movwf	fsr0
 12611  0F73  0871               	movf	(??_choose_alphabet+0)+0,w
 12612  0F74  0080               	movwf	indf
 12613                           	line	336
 12614                           ;Effect.c: 336: break;
 12615  0F75  2FFF               	goto	l2283
 12616                           	line	337
 12617                           ;Effect.c: 337: case 'Z': alphabet_array[0] = 0xff;
 12618                           	
 12619  0F76                     l2282:	
 12620                           	
 12621  0F76                     l5774:	
 12622  0F76  30FF               	movlw	(0FFh)
 12623  0F77  00F1               	movwf	(??_choose_alphabet+0)+0
 12624  0F78  0870               	movf	(choose_alphabet@alphabet_array),w
 12625  0F79  0084               	movwf	fsr0
 12626  0F7A  0871               	movf	(??_choose_alphabet+0)+0,w
 12627  0F7B  1383               	bcf	status, 7	;select IRP bank0
 12628  0F7C  0080               	movwf	indf
 12629                           	line	338
 12630                           ;Effect.c: 338: alphabet_array[1] = 0xff;
 12631  0F7D  30FF               	movlw	(0FFh)
 12632  0F7E  00F1               	movwf	(??_choose_alphabet+0)+0
 12633  0F7F  0870               	movf	(choose_alphabet@alphabet_array),w
 12634  0F80  3E01               	addlw	01h
 12635  0F81  0084               	movwf	fsr0
 12636  0F82  0871               	movf	(??_choose_alphabet+0)+0,w
 12637  0F83  0080               	movwf	indf
 12638                           	line	339
 12639                           ;Effect.c: 339: alphabet_array[2] = 0x0e;
 12640  0F84  300E               	movlw	(0Eh)
 12641  0F85  00F1               	movwf	(??_choose_alphabet+0)+0
 12642  0F86  0870               	movf	(choose_alphabet@alphabet_array),w
 12643  0F87  3E02               	addlw	02h
 12644  0F88  0084               	movwf	fsr0
 12645  0F89  0871               	movf	(??_choose_alphabet+0)+0,w
 12646  0F8A  0080               	movwf	indf
 12647                           	line	340
 12648                           ;Effect.c: 340: alphabet_array[3] = 0x1c;
 12649  0F8B  301C               	movlw	(01Ch)
 12650  0F8C  00F1               	movwf	(??_choose_alphabet+0)+0
 12651  0F8D  0870               	movf	(choose_alphabet@alphabet_array),w
 12652  0F8E  3E03               	addlw	03h
 12653  0F8F  0084               	movwf	fsr0
 12654  0F90  0871               	movf	(??_choose_alphabet+0)+0,w
 12655  0F91  0080               	movwf	indf
 12656                           	line	341
 12657                           ;Effect.c: 341: alphabet_array[4] = 0x28;
 12658  0F92  3028               	movlw	(028h)
 12659  0F93  00F1               	movwf	(??_choose_alphabet+0)+0
 12660  0F94  0870               	movf	(choose_alphabet@alphabet_array),w
 12661  0F95  3E04               	addlw	04h
 12662  0F96  0084               	movwf	fsr0
 12663  0F97  0871               	movf	(??_choose_alphabet+0)+0,w
 12664  0F98  0080               	movwf	indf
 12665                           	line	342
 12666                           ;Effect.c: 342: alphabet_array[5] = 0x70;
 12667  0F99  3070               	movlw	(070h)
 12668  0F9A  00F1               	movwf	(??_choose_alphabet+0)+0
 12669  0F9B  0870               	movf	(choose_alphabet@alphabet_array),w
 12670  0F9C  3E05               	addlw	05h
 12671  0F9D  0084               	movwf	fsr0
 12672  0F9E  0871               	movf	(??_choose_alphabet+0)+0,w
 12673  0F9F  0080               	movwf	indf
 12674                           	line	343
 12675                           ;Effect.c: 343: alphabet_array[6] = 0xff;
 12676  0FA0  30FF               	movlw	(0FFh)
 12677  0FA1  00F1               	movwf	(??_choose_alphabet+0)+0
 12678  0FA2  0870               	movf	(choose_alphabet@alphabet_array),w
 12679  0FA3  3E06               	addlw	06h
 12680  0FA4  0084               	movwf	fsr0
 12681  0FA5  0871               	movf	(??_choose_alphabet+0)+0,w
 12682  0FA6  0080               	movwf	indf
 12683                           	line	344
 12684                           ;Effect.c: 344: alphabet_array[7] = 0xff;
 12685  0FA7  30FF               	movlw	(0FFh)
 12686  0FA8  00F1               	movwf	(??_choose_alphabet+0)+0
 12687  0FA9  0870               	movf	(choose_alphabet@alphabet_array),w
 12688  0FAA  3E07               	addlw	07h
 12689  0FAB  0084               	movwf	fsr0
 12690  0FAC  0871               	movf	(??_choose_alphabet+0)+0,w
 12691  0FAD  0080               	movwf	indf
 12692                           	line	345
 12693                           ;Effect.c: 345: }
 12694  0FAE  2FFF               	goto	l2283
 12695                           	line	91
 12696                           	
 12697  0FAF                     l2255:	
 12698                           	
 12699  0FAF                     l5776:	
 12700  0FAF  0872               	movf	(choose_alphabet@alphabet),w
 12701                           	; Switch size 1, requested type "space"
 12702                           ; Number of cases is 26, Range of values is 65 to 90
 12703                           ; switch strategies available:
 12704                           ; Name         Instructions Cycles
 12705                           ; simple_byte           79    40 (average)
 12706                           ; direct_byte           89    11 (fixed)
 12707                           ; jumptable            263     9 (fixed)
 12708                           ;	Chosen strategy is simple_byte
 12709                           
 12710                           	opt asmopt_off
 12711  0FB0  3A41               	xorlw	65^0	; case 65
 12712  0FB1  1903               	skipnz
 12713  0FB2  29E5               	goto	l5710
 12714  0FB3  3A03               	xorlw	66^65	; case 66
 12715  0FB4  1903               	skipnz
 12716  0FB5  2A1E               	goto	l5726
 12717  0FB6  3A01               	xorlw	67^66	; case 67
 12718  0FB7  1903               	skipnz
 12719  0FB8  2A57               	goto	l5728
 12720  0FB9  3A07               	xorlw	68^67	; case 68
 12721  0FBA  1903               	skipnz
 12722  0FBB  2A90               	goto	l5730
 12723  0FBC  3A01               	xorlw	69^68	; case 69
 12724  0FBD  1903               	skipnz
 12725  0FBE  2AC9               	goto	l5732
 12726  0FBF  3A03               	xorlw	70^69	; case 70
 12727  0FC0  1903               	skipnz
 12728  0FC1  2B02               	goto	l5734
 12729  0FC2  3A01               	xorlw	71^70	; case 71
 12730  0FC3  1903               	skipnz
 12731  0FC4  2B3B               	goto	l5736
 12732  0FC5  3A0F               	xorlw	72^71	; case 72
 12733  0FC6  1903               	skipnz
 12734  0FC7  2B74               	goto	l5738
 12735  0FC8  3A01               	xorlw	73^72	; case 73
 12736  0FC9  1903               	skipnz
 12737  0FCA  2BAD               	goto	l5740
 12738  0FCB  3A03               	xorlw	74^73	; case 74
 12739  0FCC  1903               	skipnz
 12740  0FCD  2BE6               	goto	l5742
 12741  0FCE  3A01               	xorlw	75^74	; case 75
 12742  0FCF  1903               	skipnz
 12743  0FD0  2C1F               	goto	l5744
 12744  0FD1  3A07               	xorlw	76^75	; case 76
 12745  0FD2  1903               	skipnz
 12746  0FD3  2C58               	goto	l5746
 12747  0FD4  3A01               	xorlw	77^76	; case 77
 12748  0FD5  1903               	skipnz
 12749  0FD6  2C91               	goto	l5748
 12750  0FD7  3A03               	xorlw	78^77	; case 78
 12751  0FD8  1903               	skipnz
 12752  0FD9  2CCA               	goto	l5750
 12753  0FDA  3A01               	xorlw	79^78	; case 79
 12754  0FDB  1903               	skipnz
 12755  0FDC  2D03               	goto	l5752
 12756  0FDD  3A1F               	xorlw	80^79	; case 80
 12757  0FDE  1903               	skipnz
 12758  0FDF  2D3C               	goto	l5754
 12759  0FE0  3A01               	xorlw	81^80	; case 81
 12760  0FE1  1903               	skipnz
 12761  0FE2  2D75               	goto	l5756
 12762  0FE3  3A03               	xorlw	82^81	; case 82
 12763  0FE4  1903               	skipnz
 12764  0FE5  2DAE               	goto	l5758
 12765  0FE6  3A01               	xorlw	83^82	; case 83
 12766  0FE7  1903               	skipnz
 12767  0FE8  2DE7               	goto	l5760
 12768  0FE9  3A07               	xorlw	84^83	; case 84
 12769  0FEA  1903               	skipnz
 12770  0FEB  2E20               	goto	l5762
 12771  0FEC  3A01               	xorlw	85^84	; case 85
 12772  0FED  1903               	skipnz
 12773  0FEE  2E59               	goto	l5764
 12774  0FEF  3A03               	xorlw	86^85	; case 86
 12775  0FF0  1903               	skipnz
 12776  0FF1  2E92               	goto	l5766
 12777  0FF2  3A01               	xorlw	87^86	; case 87
 12778  0FF3  1903               	skipnz
 12779  0FF4  2ECB               	goto	l5768
 12780  0FF5  3A0F               	xorlw	88^87	; case 88
 12781  0FF6  1903               	skipnz
 12782  0FF7  2F04               	goto	l5770
 12783  0FF8  3A01               	xorlw	89^88	; case 89
 12784  0FF9  1903               	skipnz
 12785  0FFA  2F3D               	goto	l5772
 12786  0FFB  3A03               	xorlw	90^89	; case 90
 12787  0FFC  1903               	skipnz
 12788  0FFD  2F76               	goto	l5774
 12789  0FFE  2FFF               	goto	l2283
 12790                           	opt asmopt_on
 12791                           
 12792                           	line	345
 12793                           	
 12794  0FFF                     l2257:	
 12795                           	line	346
 12796                           	
 12797  0FFF                     l2283:	
 12798  0FFF  0008               	return
 12799                           	opt stack 0
 12800                           GLOBAL	__end_of_choose_alphabet
 12801  1000                     	__end_of_choose_alphabet:
 12802 ;; =============== function _choose_alphabet ends ============
 12803                           
 12804                           	signat	_choose_alphabet,8312
 12805                           	global	_delay
 12806                           psect	text559,local,class=CODE,delta=2
 12807                           global __ptext559
 12808  1D3B                     __ptext559:
 12809                           
 12810 ;; *************** function _delay *****************
 12811 ;; Defined at:
 12812 ;;		line 113 in file "C:\Users\Younce\Desktop\LED Cube 8 x 8 x 8\LED Cube.c"
 12813 ;; Parameters:    Size  Location     Type
 12814 ;;  time            4    6[COMMON] unsigned long 
 12815 ;; Auto vars:     Size  Location     Type
 12816 ;;		None
 12817 ;; Return value:  Size  Location     Type
 12818 ;;		None               void
 12819 ;; Registers used:
 12820 ;;		wreg
 12821 ;; Tracked objects:
 12822 ;;		On entry : 0/0
 12823 ;;		On exit  : 0/0
 12824 ;;		Unchanged: 0/0
 12825 ;; Data sizes:     COMMON   BANK0   BANK1   BANK3   BANK2
 12826 ;;      Params:         4       0       0       0       0
 12827 ;;      Locals:         0       0       0       0       0
 12828 ;;      Temps:          4       0       0       0       0
 12829 ;;      Totals:         8       0       0       0       0
 12830 ;;Total ram usage:        8 bytes
 12831 ;; Hardware stack levels used:    1
 12832 ;; This function calls:
 12833 ;;		Nothing
 12834 ;; This function is called by:
 12835 ;;		_delay_using_adc
 12836 ;; This function uses a non-reentrant model
 12837 ;;
 12838                           psect	text559
 12839                           	file	"C:\Users\Younce\Desktop\LED Cube 8 x 8 x 8\LED Cube.c"
 12840                           	line	113
 12841                           	global	__size_of_delay
 12842  0032                     	__size_of_delay	equ	__end_of_delay-_delay
 12843                           	
 12844  1D3B                     _delay:	
 12845                           	opt	stack 5
 12846                           ; Regs used in _delay: [wreg]
 12847                           	line	114
 12848                           	
 12849  1D3B                     l5704:	
 12850                           ;LED Cube.c: 114: while(time--);
 12851  1D3B  2D3D               	goto	l5706
 12852                           	
 12853  1D3C                     l747:	
 12854  1D3C  2D3D               	goto	l5706
 12855                           	
 12856  1D3D                     l746:	
 12857                           	
 12858  1D3D                     l5706:	
 12859  1D3D  3001               	movlw	01h
 12860  1D3E  00FA               	movwf	((??_delay+0)+0)
 12861  1D3F  3000               	movlw	0
 12862  1D40  00FB               	movwf	((??_delay+0)+0+1)
 12863  1D41  3000               	movlw	0
 12864  1D42  00FC               	movwf	((??_delay+0)+0+2)
 12865  1D43  3000               	movlw	0
 12866  1D44  00FD               	movwf	((??_delay+0)+0+3)
 12867  1D45  087A               	movf	0+(??_delay+0)+0,w
 12868  1D46  02F6               	subwf	(delay@time),f
 12869  1D47  087B               	movf	1+(??_delay+0)+0,w
 12870  1D48  1C03               	skipc
 12871  1D49  0F7B               	incfsz	1+(??_delay+0)+0,w
 12872  1D4A  2D4C               	goto	u3745
 12873  1D4B  2D4D               	goto	u3746
 12874  1D4C                     u3745:
 12875  1D4C  02F7               	subwf	(delay@time+1),f
 12876  1D4D                     u3746:
 12877  1D4D  087C               	movf	2+(??_delay+0)+0,w
 12878  1D4E  1C03               	skipc
 12879  1D4F  0F7C               	incfsz	2+(??_delay+0)+0,w
 12880  1D50  2D52               	goto	u3747
 12881  1D51  2D53               	goto	u3748
 12882  1D52                     u3747:
 12883  1D52  02F8               	subwf	(delay@time+2),f
 12884  1D53                     u3748:
 12885  1D53  087D               	movf	3+(??_delay+0)+0,w
 12886  1D54  1C03               	skipc
 12887  1D55  0F7D               	incfsz	3+(??_delay+0)+0,w
 12888  1D56  2D58               	goto	u3749
 12889  1D57  2D59               	goto	u3740
 12890  1D58                     u3749:
 12891  1D58  02F9               	subwf	(delay@time+3),f
 12892  1D59                     u3740:
 12893                           
 12894  1D59  30FF               	movlw	0FFh
 12895  1D5A  0679               	xorwf	((delay@time+3)),w
 12896  1D5B  1D03               	skipz
 12897  1D5C  2D67               	goto	u3755
 12898  1D5D  30FF               	movlw	0FFh
 12899  1D5E  0678               	xorwf	((delay@time+2)),w
 12900  1D5F  1D03               	skipz
 12901  1D60  2D67               	goto	u3755
 12902  1D61  30FF               	movlw	0FFh
 12903  1D62  0677               	xorwf	((delay@time+1)),w
 12904  1D63  1D03               	skipz
 12905  1D64  2D67               	goto	u3755
 12906  1D65  30FF               	movlw	0FFh
 12907  1D66  0676               	xorwf	((delay@time)),w
 12908  1D67                     u3755:
 12909  1D67  1D03               	skipz
 12910  1D68  2D6A               	goto	u3751
 12911  1D69  2D6B               	goto	u3750
 12912  1D6A                     u3751:
 12913  1D6A  2D3D               	goto	l5706
 12914  1D6B                     u3750:
 12915  1D6B  2D6C               	goto	l749
 12916                           	
 12917  1D6C                     l748:	
 12918                           	line	115
 12919                           	
 12920  1D6C                     l749:	
 12921  1D6C  0008               	return
 12922                           	opt stack 0
 12923                           GLOBAL	__end_of_delay
 12924  1D6D                     	__end_of_delay:
 12925 ;; =============== function _delay ends ============
 12926                           
 12927                           	signat	_delay,4216
 12928                           	global	_get_adc_value
 12929                           psect	text560,local,class=CODE,delta=2
 12930                           global __ptext560
 12931  1D0F                     __ptext560:
 12932                           
 12933 ;; *************** function _get_adc_value *****************
 12934 ;; Defined at:
 12935 ;;		line 88 in file "C:\Users\Younce\Desktop\LED Cube 8 x 8 x 8\LED Cube.c"
 12936 ;; Parameters:    Size  Location     Type
 12937 ;;		None
 12938 ;; Auto vars:     Size  Location     Type
 12939 ;;  local_adc_va    2    4[COMMON] int 
 12940 ;; Return value:  Size  Location     Type
 12941 ;;                  2    0[COMMON] unsigned int 
 12942 ;; Registers used:
 12943 ;;		wreg, status,2, status,0, btemp+1
 12944 ;; Tracked objects:
 12945 ;;		On entry : 0/0
 12946 ;;		On exit  : 0/0
 12947 ;;		Unchanged: 0/0
 12948 ;; Data sizes:     COMMON   BANK0   BANK1   BANK3   BANK2
 12949 ;;      Params:         2       0       0       0       0
 12950 ;;      Locals:         2       0       0       0       0
 12951 ;;      Temps:          2       0       0       0       0
 12952 ;;      Totals:         6       0       0       0       0
 12953 ;;Total ram usage:        6 bytes
 12954 ;; Hardware stack levels used:    1
 12955 ;; This function calls:
 12956 ;;		Nothing
 12957 ;; This function is called by:
 12958 ;;		_delay_using_adc
 12959 ;; This function uses a non-reentrant model
 12960 ;;
 12961                           psect	text560
 12962                           	file	"C:\Users\Younce\Desktop\LED Cube 8 x 8 x 8\LED Cube.c"
 12963                           	line	88
 12964                           	global	__size_of_get_adc_value
 12965  002C                     	__size_of_get_adc_value	equ	__end_of_get_adc_value-_get_adc_value
 12966                           	
 12967  1D0F                     _get_adc_value:	
 12968                           	opt	stack 5
 12969                           ; Regs used in _get_adc_value: [wreg+status,2+status,0+btemp+1]
 12970                           	line	89
 12971                           	
 12972  1D0F                     l5690:	
 12973                           ;LED Cube.c: 89: int local_adc_value = 0;
 12974  1D0F  01F4               	clrf	(get_adc_value@local_adc_value)
 12975  1D10  01F5               	clrf	(get_adc_value@local_adc_value+1)
 12976                           	line	90
 12977                           	
 12978  1D11                     l5692:	
 12979                           ;LED Cube.c: 90: GO = 1;
 12980  1D11  1283               	bcf	status, 5	;RP0=0, select bank0
 12981  1D12  1303               	bcf	status, 6	;RP1=0, select bank0
 12982  1D13  151F               	bsf	(250/8),(250)&7
 12983                           	line	91
 12984                           ;LED Cube.c: 91: while(GO == 1);
 12985  1D14  2D15               	goto	l736
 12986                           	
 12987  1D15                     l737:	
 12988                           	
 12989  1D15                     l736:	
 12990  1D15  191F               	btfsc	(250/8),(250)&7
 12991  1D16  2D18               	goto	u3731
 12992  1D17  2D19               	goto	u3730
 12993  1D18                     u3731:
 12994  1D18  2D15               	goto	l736
 12995  1D19                     u3730:
 12996                           	
 12997  1D19                     l738:	
 12998                           	line	92
 12999                           ;LED Cube.c: 92: ADIF = 0;
 13000  1D19  130C               	bcf	(102/8),(102)&7
 13001                           	line	94
 13002                           	
 13003  1D1A                     l5694:	
 13004                           ;LED Cube.c: 94: local_adc_value = ADRESH;
 13005  1D1A  081E               	movf	(30),w	;volatile
 13006  1D1B  00F2               	movwf	(??_get_adc_value+0)+0
 13007  1D1C  01F3               	clrf	(??_get_adc_value+0)+0+1
 13008  1D1D  0872               	movf	0+(??_get_adc_value+0)+0,w
 13009  1D1E  00F4               	movwf	(get_adc_value@local_adc_value)
 13010  1D1F  0873               	movf	1+(??_get_adc_value+0)+0,w
 13011  1D20  00F5               	movwf	(get_adc_value@local_adc_value+1)
 13012                           	line	95
 13013                           	
 13014  1D21                     l5696:	
 13015                           ;LED Cube.c: 95: local_adc_value = local_adc_value << 8;
 13016  1D21  0875               	movf	(get_adc_value@local_adc_value+1),w
 13017  1D22  00F3               	movwf	(??_get_adc_value+0)+0+1
 13018  1D23  0874               	movf	(get_adc_value@local_adc_value),w
 13019  1D24  00F2               	movwf	(??_get_adc_value+0)+0
 13020  1D25  0872               	movf	(??_get_adc_value+0)+0,w
 13021  1D26  00F3               	movwf	(??_get_adc_value+0)+1
 13022  1D27  01F2               	clrf	(??_get_adc_value+0)+0
 13023  1D28  0872               	movf	0+(??_get_adc_value+0)+0,w
 13024  1D29  00F4               	movwf	(get_adc_value@local_adc_value)
 13025  1D2A  0873               	movf	1+(??_get_adc_value+0)+0,w
 13026  1D2B  00F5               	movwf	(get_adc_value@local_adc_value+1)
 13027                           	line	96
 13028                           	
 13029  1D2C                     l5698:	
 13030                           ;LED Cube.c: 96: local_adc_value = local_adc_value | ADRESL;
 13031  1D2C  0874               	movf	(get_adc_value@local_adc_value),w
 13032  1D2D  1683               	bsf	status, 5	;RP0=1, select bank1
 13033  1D2E  1303               	bcf	status, 6	;RP1=0, select bank1
 13034  1D2F  041E               	iorwf	(158)^080h,w	;volatile
 13035  1D30  00F4               	movwf	(get_adc_value@local_adc_value)
 13036  1D31  0875               	movf	(get_adc_value@local_adc_value+1),w
 13037  1D32  00F5               	movwf	1+(get_adc_value@local_adc_value)
 13038                           	line	97
 13039                           	
 13040  1D33                     l5700:	
 13041                           ;LED Cube.c: 97: return local_adc_value;
 13042  1D33  0875               	movf	(get_adc_value@local_adc_value+1),w
 13043  1D34  01F1               	clrf	(?_get_adc_value+1)
 13044  1D35  07F1               	addwf	(?_get_adc_value+1)
 13045  1D36  0874               	movf	(get_adc_value@local_adc_value),w
 13046  1D37  01F0               	clrf	(?_get_adc_value)
 13047  1D38  07F0               	addwf	(?_get_adc_value)
 13048                           
 13049  1D39  2D3A               	goto	l739
 13050                           	
 13051  1D3A                     l5702:	
 13052                           	line	98
 13053                           	
 13054  1D3A                     l739:	
 13055  1D3A  0008               	return
 13056                           	opt stack 0
 13057                           GLOBAL	__end_of_get_adc_value
 13058  1D3B                     	__end_of_get_adc_value:
 13059 ;; =============== function _get_adc_value ends ============
 13060                           
 13061                           	signat	_get_adc_value,90
 13062                           	global	_io_init
 13063                           psect	text561,local,class=CODE,delta=2
 13064                           global __ptext561
 13065  1CC5                     __ptext561:
 13066                           
 13067 ;; *************** function _io_init *****************
 13068 ;; Defined at:
 13069 ;;		line 58 in file "C:\Users\Younce\Desktop\LED Cube 8 x 8 x 8\LED Cube.c"
 13070 ;; Parameters:    Size  Location     Type
 13071 ;;		None
 13072 ;; Auto vars:     Size  Location     Type
 13073 ;;		None
 13074 ;; Return value:  Size  Location     Type
 13075 ;;		None               void
 13076 ;; Registers used:
 13077 ;;		wreg, status,2
 13078 ;; Tracked objects:
 13079 ;;		On entry : 0/0
 13080 ;;		On exit  : 0/0
 13081 ;;		Unchanged: 0/0
 13082 ;; Data sizes:     COMMON   BANK0   BANK1   BANK3   BANK2
 13083 ;;      Params:         0       0       0       0       0
 13084 ;;      Locals:         0       0       0       0       0
 13085 ;;      Temps:          0       0       0       0       0
 13086 ;;      Totals:         0       0       0       0       0
 13087 ;;Total ram usage:        0 bytes
 13088 ;; Hardware stack levels used:    1
 13089 ;; This function calls:
 13090 ;;		Nothing
 13091 ;; This function is called by:
 13092 ;;		_main
 13093 ;; This function uses a non-reentrant model
 13094 ;;
 13095                           psect	text561
 13096                           	file	"C:\Users\Younce\Desktop\LED Cube 8 x 8 x 8\LED Cube.c"
 13097                           	line	58
 13098                           	global	__size_of_io_init
 13099  0020                     	__size_of_io_init	equ	__end_of_io_init-_io_init
 13100                           	
 13101  1CC5                     _io_init:	
 13102                           	opt	stack 7
 13103                           ; Regs used in _io_init: [wreg+status,2]
 13104                           	line	60
 13105                           	
 13106  1CC5                     l5658:	
 13107                           ;LED Cube.c: 60: TRISA = 0b00000001;
 13108  1CC5  3001               	movlw	(01h)
 13109  1CC6  1683               	bsf	status, 5	;RP0=1, select bank1
 13110  1CC7  1303               	bcf	status, 6	;RP1=0, select bank1
 13111  1CC8  0085               	movwf	(133)^080h	;volatile
 13112                           	line	61
 13113                           ;LED Cube.c: 61: TRISB = 0b00000011;
 13114  1CC9  3003               	movlw	(03h)
 13115  1CCA  0086               	movwf	(134)^080h	;volatile
 13116                           	line	62
 13117                           	
 13118  1CCB                     l5660:	
 13119                           ;LED Cube.c: 62: TRISC = 0;
 13120  1CCB  0187               	clrf	(135)^080h	;volatile
 13121                           	line	63
 13122                           	
 13123  1CCC                     l5662:	
 13124                           ;LED Cube.c: 63: TRISD = 0;
 13125  1CCC  0188               	clrf	(136)^080h	;volatile
 13126                           	line	64
 13127                           	
 13128  1CCD                     l5664:	
 13129                           ;LED Cube.c: 64: TRISE = 0;
 13130  1CCD  0189               	clrf	(137)^080h	;volatile
 13131                           	line	66
 13132                           	
 13133  1CCE                     l5666:	
 13134                           ;LED Cube.c: 66: PORTA = PORTB = PORTC = PORTD = PORTE = 0;
 13135  1CCE  1283               	bcf	status, 5	;RP0=0, select bank0
 13136  1CCF  1303               	bcf	status, 6	;RP1=0, select bank0
 13137  1CD0  0189               	clrf	(9)	;volatile
 13138  1CD1  0188               	clrf	(8)	;volatile
 13139  1CD2  0187               	clrf	(7)	;volatile
 13140  1CD3  0186               	clrf	(6)	;volatile
 13141  1CD4  0185               	clrf	(5)	;volatile
 13142                           	line	69
 13143                           	
 13144  1CD5                     l5668:	
 13145                           ;LED Cube.c: 69: ADCS1 = 0;
 13146  1CD5  139F               	bcf	(255/8),(255)&7
 13147                           	line	70
 13148                           	
 13149  1CD6                     l5670:	
 13150                           ;LED Cube.c: 70: ADCS0 = 0;
 13151  1CD6  131F               	bcf	(254/8),(254)&7
 13152                           	line	72
 13153                           	
 13154  1CD7                     l5672:	
 13155                           ;LED Cube.c: 72: CHS2 = 0;
 13156  1CD7  129F               	bcf	(253/8),(253)&7
 13157                           	line	73
 13158                           	
 13159  1CD8                     l5674:	
 13160                           ;LED Cube.c: 73: CHS1 = 0;
 13161  1CD8  121F               	bcf	(252/8),(252)&7
 13162                           	line	74
 13163                           	
 13164  1CD9                     l5676:	
 13165                           ;LED Cube.c: 74: CHS0 = 0;
 13166  1CD9  119F               	bcf	(251/8),(251)&7
 13167                           	line	76
 13168                           	
 13169  1CDA                     l5678:	
 13170                           ;LED Cube.c: 76: ADFM = 1;
 13171  1CDA  1683               	bsf	status, 5	;RP0=1, select bank1
 13172  1CDB  1303               	bcf	status, 6	;RP1=0, select bank1
 13173  1CDC  179F               	bsf	(1279/8)^080h,(1279)&7
 13174                           	line	78
 13175                           	
 13176  1CDD                     l5680:	
 13177                           ;LED Cube.c: 78: PCFG3 = 1;
 13178  1CDD  159F               	bsf	(1275/8)^080h,(1275)&7
 13179                           	line	79
 13180                           	
 13181  1CDE                     l5682:	
 13182                           ;LED Cube.c: 79: PCFG2 = 1;
 13183  1CDE  151F               	bsf	(1274/8)^080h,(1274)&7
 13184                           	line	80
 13185                           	
 13186  1CDF                     l5684:	
 13187                           ;LED Cube.c: 80: PCFG1 = 1;
 13188  1CDF  149F               	bsf	(1273/8)^080h,(1273)&7
 13189                           	line	81
 13190                           	
 13191  1CE0                     l5686:	
 13192                           ;LED Cube.c: 81: PCFG0 = 0;
 13193  1CE0  101F               	bcf	(1272/8)^080h,(1272)&7
 13194                           	line	83
 13195                           	
 13196  1CE1                     l5688:	
 13197                           ;LED Cube.c: 83: ADON = 1;
 13198  1CE1  1283               	bcf	status, 5	;RP0=0, select bank0
 13199  1CE2  1303               	bcf	status, 6	;RP1=0, select bank0
 13200  1CE3  141F               	bsf	(248/8),(248)&7
 13201                           	line	84
 13202                           	
 13203  1CE4                     l733:	
 13204  1CE4  0008               	return
 13205                           	opt stack 0
 13206                           GLOBAL	__end_of_io_init
 13207  1CE5                     	__end_of_io_init:
 13208 ;; =============== function _io_init ends ============
 13209                           
 13210                           	signat	_io_init,88
 13211                           psect	text562,local,class=CODE,delta=2
 13212                           global __ptext562
 13213  0000                     __ptext562:
 13214                           	global	btemp
 13215  007E                     	btemp set 07Eh
 13216                           
 13217                           	DABS	1,126,2	;btemp
 13218                           	global	wtemp0
 13219  007E                     	wtemp0 set btemp


HI-TECH Software PICC Macro Assembler V9.82 build 9453 
Symbol Table                                                                                   Wed Aug 29 17:37:52 2012

                                                 pc 0002                                   set_a_plane@j_2156 0075  
                                 set_a_plane@j_2157 0077                                   set_a_plane@j_2158 0079  
                                                _GO 00FA                                                  _RD 0C60  
                                                _WR 0C61                               ??_plane_left_to_right 007E  
                              plane_bottom_to_top@i 0026                                    set_a_plane@layer 007B  
                                                fsr 0004                                 ___wmul@multiplicand 0072  
                                  set_a_plane@plane 0070                           plane_bottom_to_top@i_3015 0028  
                                               l720 1068                                                 l721 101E  
                                               l730 106A                                                 l722 102E  
                                               l723 1035                                                 l724 103B  
                                               l733 1CE4                                                 l725 1041  
                                               l717 1017                                                 l742 0049  
                                               l718 104F                                                 l726 1047  
                                               l743 0049                                                 l727 104D  
                                               l719 1018                                                 l736 1D15  
                                               l752 1F06                                                 l760 1EDC  
                                               l728 1069                                                 l737 1D15  
                                               l761 1EDC                                                 l753 1E9B  
                                               l729 106A                                                 l738 1D19  
                                               l746 1D3D                                                 l770 1F0D  
                                               l754 1EF8                                                 l762 1EE1  
                                               l739 1D3A                                                 l747 1D3C  
                                               l763 1EEC                                                 l755 1E9C  
                                               l748 1D6C                                                 l780 115B  
                                               l764 1EF0                                                 l756 1ED4  
                                               l749 1D6C                                                 l781 1174  
                                               l765 1EFF                                                 l757 1EB2  
                                               l782 118D                                                 l766 1F00  
                                               l758 1ED4                                                 l775 11C1  
                                               l783 11A6                                                 l767 1F00  
                                               l759 1EF7                                                 l784 11BF  
                                               l776 1110                                                 l768 1F05  
                                               l777 11DA                                                 l785 11DA  
                                               l769 1F0B                                                 l778 1129  
                                               l779 1142                                                 _GIE 005F  
                                               _RA1 0029                                                 _RB0 0030  
                                               _RB1 0031                                   ??_choose_alphabet 0071  
                                      _rotate_plane 00E5                                                 fsr0 0004  
                                               indf 0000                                                l2211 005D  
                                              l1500 15F5                                                l2212 00E4  
                                              l2220 1E33                                                l2300 09E2  
                                              l1501 15A4                                                l2213 0070  
                                              l2221 1E5A                                                l1510 15BD  
                                              l1502 1501                                                l2214 00CE  
                                              l2222 1E6F                                                l2230 1FFF  
                                              l1511 15DD                                                l1503 15A3  
                                              l2215 0083                                                l2223 1E96  
                                              l2231 1FFF                                                l2303 1D80  
                                              l1504 1519                                                l1512 15F5  
                                              l2216 00B8                                                l2224 1E96  
                                              l2400 04D5                                                l2320 13C9  
                                              l2304 1DC3                                                l1505 1532  
                                              l2217 00E4                                                l2401 04FB  
                                              l2321 13FA                                                l2305 1D94  
                                              l1506 155D                                                l2234 1F21  
                                              l2410 05CF                                                l2402 0512  
                                              l2314 142C                                                l2322 1443  
                                              l2306 1D88                                                l1507 1576  
                                              l2235 1F49                                                l2227 1F9A  
                                              l2411 05F5                                                l2403 0580  
                                              l2323 1443                                                l2315 1307  
                                              l2307 1D88                                                l2260 0A90  
                                              l3116 1CE8                                                l1508 15F4  
                                              l2236 1F5E                                                l2228 1FC2  
                                              l2340 16B2                                                l2420 06C9  
                                              l2412 060C                                                l2404 0537  
                                              l2324 144A                                                l2316 1442  
                                              l2308 1D8D                                                l2261 0AC9  
                                              l3117 1CF2                                                l1509 15F3  
                                              l2237 1F86                                                l2229 1FD7  
                                              l2341 16D8                                                l2333 166E  
                                              l2421 06EF                                                l2413 067A  
                                              l2405 0552                                                l2325 144B  
                                              l2317 1336                                                l2309 1DC3  
                                              l2270 0CCA                                                l2262 0B02  
                                              l3118 1D07                                                l2238 1F86  
                                              l2350 17B9                                                l2342 16F7  
                                              l2334 1623                                                l2430 07C2  
                                              l2422 0706                                                l2414 0631  
                                              l2406 0578                                                l2326 144B  
                                              l2318 1367                                                l2255 0FAF  
                                              l2271 0D03                                                l2263 0B3B  
                                              l3119 1D0E                                                l2351 17DF  
                                              l2343 1762                                                l2335 1640  
                                              l2431 07E8                                                l2423 0774  
                                              l2415 064C                                                l2407 058F  
                                              l2327 1450                                                l2319 1398  
                                              l2280 0F04                                                l2272 0D3C  
                                              l2264 0B74                                                l2256 09E5  
                                              l1480 11F3                                                l1472 1DD8  
                                              l2352 17FF                                                l2344 1716  
                                              l2336 1666                                                l2432 07FF  
                                              l2424 072B                                                l2416 0672  
                                              l2408 05FD                                                l2360 013E  
                                              l2328 1450                                                l2257 0FFF  
                                              l2281 0F3D                                                l2273 0D75  
                                              l2265 0BAD                                                l1481 1216  
                                              l1473 1E0A                                                l2353 17FF  
                                              l2345 1733                                                l2337 167C  
                                              l2433 07FF                                                l2425 0746  
                                              l2417 0689                                                l2409 05B4  
                                              l2361 0164                                                l2282 0F76  
                                              l2274 0DAE                                                l2266 0BE6  
                                              l2258 0A1E                                                l1482 12EC  
                                              l1490 12BA                                                l1474 1DF0  
                                              l2290 10AC                                                l2346 1759  
                                              l2338 16E1                                                l2426 076C  
                                              l2418 06F7                                                l2370 0223  
                                              l2362 017A                                                l2275 0DE7  
                                              l2267 0C1F                                                l2259 0A57  
                                              l2283 0FFF                                                l1491 12D4  
                                              l1483 12A3                                                l1475 1DF4  
                                              l2291 10DF                                                l2347 1779  
                                              l2339 1695                                                l2427 0783  
                                              l2419 06AE                                                l2371 0249  
                                              l2363 01E1                                                l2276 0E20  
                                              l2268 0C58                                                l1484 123F  
                                              l1492 12EC                                                l1476 1E1F  
                                              l2292 10F6                                                l2348 17E8  
                                              l2428 07F0                                                l2380 02F7  
                                              l2372 025F                                                l2364 0198  
                                              l2277 0E59                                                l2269 0C91  
                                              l1485 1258                                                l2293 10F6  
                                              l2349 179E                                                l2429 07A7  
                                              l2381 031D                                                l2373 02BB  
                                              l2365 01B3                                                l2278 0E92  
                                              l1486 127D                                                l2390 03DC  
                                              l2382 0333                                                l2374 0272  
                                              l2366 01D9                                                l2358 016C  
                                              l2279 0ECB                                                l1487 1296  
                                              l1479 1223                                                l1495 14E8  
                                              l2391 0402                                                l2383 0395  
                                              l2375 028D                                                l2367 01EF  
                                              l2359 0123                                                l1488 12EB  
                                              l6000 1568                                                l1496 1471  
                                              l2288 10E8                                                l2392 0419  
                                              l2384 034C                                                l2376 02B3  
                                              l2368 0251                                                l1489 12EA  
                                              l1497 14E7                                                l2289 1088  
                                              l2393 0486                                                l2385 0367  
                                              l2377 02C9                                                l2369 0208  
                                              l6010 1595                                                l6002 1576  
                                              l1498 1484                                                l2298 09AF  
                                              l2394 043D                                                l2386 038D  
                                              l2378 0325                                                l1499 14BA  
                                              l2299 09E2                                                l2395 0458  
                                              l2387 03A3                                                l2379 02DC  
                                              l6020 15BD                                                l6004 1583  
                                              l6012 15A4                                                l6100 1E4C  
                                              l2396 047E                                                l2388 040A  
                                              l2397 0495                                                l2389 03C1  
                                              l6022 15C7                                                l6030 15DD  
                                              l6014 15AA                                                l6006 158C  
                                              l6110 1E80                                                l6102 1E5A  
                                              l2398 0503                                                l2399 04BA  
                                              l6032 15EA                                                l6024 15C8  
                                              l6016 15AE                                                l6008 158F  
                                              l6040 1DD8                                                l6112 1E88  
                                              l6104 1E60                                                l6120 1F21  
                                              l6200 0831                                                l6026 15C9  
                                              l6018 15BC                                                l6050 1DF6  
                                              l6042 1DE2                                                l6034 1DC4  
                                              l6106 1E6E                                                l6130 1F5D  
                                              l6122 1F33                                                l6114 1F0E  
                                              l6210 0857                                                l6202 0835  
                                              l6028 15CF                                                l6052 1DFC  
                                              l6044 1DF0                                                l6036 1DC9  
                                              l6060 004E                                                l6108 1E6F  
                                              l6132 1F5E                                                l6124 1F3B  
                                              l6116 1F12                                                l6140 1F8B  
                                              l6300 0926                                                l6220 086B  
                                              l6212 085B                                                l6204 0839  
                                              l6046 1DF4                                                l6038 1DD7  
                                              l6054 1E0A                                                l6070 0070  
                                              l6062 005C                                                l6134 1F70  
                                              l6118 1F20                                                l6126 1F49  
                                              l6142 1F99                                                l6150 1FC2  
                                              l6310 0946                                                l6302 0927  
                                              l6230 088E                                                l6222 086F  
                                              l6214 085F                                                l6206 0847  
                                              l6056 1E17                                                l6048 1DF5  
                                              l6080 00AA                                                l6072 0074  
                                              l6064 005D                                                l6136 1F78  
                                              l6128 1F4F                                                l6160 1FF1  
                                              l6152 1FC8                                                l6144 1F9A  
                                              l6320 095A                                                l6312 094A  
                                              l6304 0928                                                l6240 089F  
                                              l6232 088F                                                l6224 0870  
                                              l6216 0863                                                l6208 0854  
                                              l6400 1692                                                l6074 0082  
                                              l6082 00B8                                                l6066 0061  
                                              l6058 004A                                                l6090 1E20  
                                              l6154 1FD6                                                l6146 1FAC  
                                              l6138 1F87                                                l6170 109D  
                                              l6162 1070                                                l6330 0980  
                                              l6322 095E                                                l6314 094E  
                                              l6306 0936                                                l6250 08BF  
                                              l6242 08A0                                                l6234 0893  
                                              l6226 087E                                                l6218 0867  
                                              l6410 16C2                                                l6402 1695  
                                              l5700 1D33                                                l6084 00C0  
                                              l6076 0083                                                l6068 006F  
                                              l6092 1E24                                                l6156 1FD7  
                                              l6148 1FB4                                                l6180 10D1  
                                              l6172 10AB                                                l6164 1085  
                                              l6340 0994                                                l6332 0984  
                                              l6324 095F                                                l6316 0952  
                                              l6308 0943                                                l6260 08CA  
                                              l6252 08C0                                                l6244 08A1  
                                              l6236 0897                                                l6228 088B  
                                              l6420 1712                                                l6412 16CA  
                                              l6404 16A3                                                l6500 017D  
                                              l5702 1D3A                                                l5710 09E5  
                                              l6078 00A2                                                l6086 00CE  
                                              l6094 1E32                                                l6158 1FE9  
                                              l6182 10DF                                                l6174 10AC  
                                              l6166 1088                                                l6350 09AF  
                                              l6342 0998                                                l6334 0988  
                                              l6326 096D                                                l6318 0956  
                                              l6270 08EA                                                l6262 08CB  
                                              l6254 08C1                                                l6246 08AF  
                                              l6238 089B                                                l6190 081D  
                                              l6430 1733                                                l6422 1713  
                                              l6406 16B1                                                l6414 16D8  
                                              l6510 01A0                                                l6502 0191  
                                              l5704 1D3B                                                l5720 0A08  
                                              l5712 09EC                                                l6088 00D6  
                                              l6096 1E33                                                l6176 10BC  
                                              l6168 1099                                                l6184 10E8  
                                              l6352 09BF                                                l6344 099C  
                                              l6336 098C                                                l6328 097A  
                                              l6280 08F5                                                l6272 08EB  
                                              l6264 08CC                                                l6256 08C5  
                                              l6248 08BC                                                l6192 0821  
                                              l6440 1779                                                l6432 1743  
                                              l6424 1716                                                l6408 16B2  
                                              l6416 16E1                                                l6360 15FC  
                                              l6600 0337                                                l6520 01CB  
                                              l6512 01A4                                                l6504 0194  
                                              l5706 1D3D                                                l5730 0A90  
                                              l5722 0A0F                                                l5714 09F3  
                                              l6098 1E44                                                l6178 10C9  
                                              l6354 09CC                                                l6346 09A0  
                                              l6338 0990                                                l6290 0915  
                                              l6282 08F6                                                l6274 08EC  
                                              l6266 08DA                                                l6258 08C9  
                                              l6194 0825                                                l6186 0802  
                                              l6450 17B8                                                l6442 179B  
                                              l6434 174B                                                l6426 1724  
                                              l6418 16FA                                                l6370 1619  
                                              l6362 1612                                                l6610 0354  
                                              l6602 0347                                                l6530 0205  
                                              l6514 01B2                                                l6522 01D9  
                                              l6506 0195                                                l5660 1CCB  
                                              l5740 0BAD                                                l5732 0AC9  
                                              l5724 0A16                                                l5716 09FA  
                                              l5708 09E4                                                l5820 1CEC  
                                              l5900 12A9                                                l6356 09D4  
                                              l6348 09AE                                                l6292 0916  
                                              l6284 08F7                                                l6276 08F0  
                                              l6268 08E7                                                l6196 0829  
                                              l6188 0817                                                l6452 17B9  
                                              l6444 179E                                                l6460 17E8  
                                              l6428 1732                                                l6436 1759  
                                              l6380 1623                                                l6372 161D  
                                              l6364 1613                                                l6700 04D4  
                                              l6620 037F                                                l6612 0358  
                                              l6604 0348                                                l6540 0223  
                                              l6532 0208                                                l6524 01F3  
                                              l6516 01B3                                                l6508 0198  
                                              l5670 1CD6                                                l5662 1CCC  
                                              l5750 0CCA                                                l5742 0BE6  
                                              l5734 0B02                                                l5726 0A1E  
                                              l5718 0A01                                                l5822 1CF9  
                                              l5830 001C                                                l5910 12BF  
                                              l5902 12AB                                                l6294 091A  
                                              l6286 0905                                                l6278 08F4  
                                              l6198 082D                                                l6454 17C9  
                                              l6446 17A6                                                l6438 1762  
                                              l6390 1658                                                l6382 1631  
                                              l6374 161E                                                l6366 1614  
                                              l6358 15F6                                                l6710 0512  
                                              l6702 04D5                                                l6630 03B1  
                                              l6614 0366                                                l6622 038D  
                                              l6606 0349                                                l6550 026C  
                                              l6542 0233                                                l6534 0210  
                                              l6526 0203                                                l6518 01C3  
                                              l6470 0109                                                l6462 00E5  
                                              l5680 1CDD                                                l5672 1CD7  
                                              l5664 1CCD                                                l5760 0DE7  
                                              l5752 0D03                                                l5744 0C1F  
                                              l5736 0B3B                                                l5728 0A57  
                                              l5824 1D07                                                l5816 1CE5  
                                              l5832 001E                                                l5912 12C6  
                                              l5904 12B9                                                l5840 11E4  
                                              l5920 1456                                                l6296 091E  
                                              l6288 0912                                                l6456 17D1  
                                              l6448 17AA                                                l6384 163F  
                                              l6392 1666                                                l6376 161F  
                                              l6368 1615                                                l6800 0745  
                                              l6720 0551                                                l6712 0534  
                                              l6704 04E5                                                l6640 03C1  
                                              l6632 03B5                                                l6624 03A6  
                                              l6616 0367                                                l6608 034C  
                                              l6560 027A                                                l6552 026D  
                                              l6544 023B                                                l6536 0214  
                                              l6528 0204                                                l6480 011D  
                                              l6472 010D                                                l6464 00EB  
                                              _ADIF 0066                                                _ADFM 04FF  
                                              l5682 1CDE                                                l5674 1CD8  
                                              l5666 1CCE                                                l5658 1CC5  
                                              l5690 1D0F                                                l5770 0F04  
                                              l5762 0E20                                                l5754 0D3C  
                                              l5746 0C58                                                l5738 0B74  
                                              l5826 1D0E                                                l5818 1CE8  
                                              l5834 002B                                                l5914 12D4  
                                              l5906 12BA                                                l5850 1202  
                                              l5842 11F2                                                l5930 1471  
                                              l5922 145A                                                l6298 0922  
                                              l6458 17DF                                                l6394 1680  
                                              l6386 1640                                                l6378 1620  
                                              l6810 0783                                                l6802 0746  
                                              l6730 058F                                                l6722 0552  
                                              l6714 0537                                                l6706 04ED  
                                              l6650 03EC                                                l6642 03C9  
                                              l6634 03B9                                                l6626 03A9  
                                              l6618 0377                                                l6570 02A5  
                                              l6562 027E                                                l6554 026E  
                                              l6538 0222                                                l6546 0249  
                                              l6490 013D                                                l6482 0120  
                                              l6474 0111                                                l6466 0101  
                                              l5684 1CDF                                                l5676 1CD9  
                                              l5668 1CD5                                                l5692 1D11  
                                              l5772 0F3D                                                l5764 0E59  
                                              l5756 0D75                                                l5748 0C91  
                                              l5828 0016                                                l5916 12E1  
                                              l5908 12BE                                                l5860 1230  
                                              l5852 1208                                                l5844 11F3  
                                              l5836 11DC                                                l5940 14A5  
                                              l5932 1475                                                l5924 1460  
                                              l6396 1690                                                l6388 1650  
                                              l6820 07B3                                                l6812 07A1  
                                              l6804 0756                                                l6740 05CE  
                                              l6732 05B1                                                l6724 0562  
                                              l6716 053F                                                l6708 04FB  
                                              l6660 0422                                                l6652 03F4  
                                              l6644 03CD                                                l6636 03BD  
                                              l6628 03AD                                                l6580 02D8  
                                              l6564 028C                                                l6572 02B3  
                                              l6556 026F                                                l6548 0264  
                                              l6492 013E                                                l6484 0123  
                                              l6476 0115                                                l6468 0105  
                                              l6900 1E9C                                                l5686 1CE0  
                                              l5678 1CDA                                                l5694 1D1A  
                                              l5774 0F76                                                l5766 0E92  
                                              l5758 0DAE                                                l5870 1244  
                                              l5862 123E                                                l5846 1200  
                                              l5854 1216                                                l5838 11E2  
                                              l5950 14D0                                                l5942 14A6  
                                              l5934 1483                                                l5926 1462  
                                              l5918 1454                                                l6398 1691  
                                              l6822 07C1                                                l6830 07E8  
                                              l6814 07A4                                                l6806 075E  
                                              l6750 060C                                                l6742 05CF  
                                              l6734 05B4                                                l6726 056A  
                                              l6718 0543                                                l6670 0436  
                                              l6662 0426                                                l6646 03DB  
                                              l6654 0402                                                l6638 03BE  
                                              l6590 02F6                                                l6582 02D9  
                                              l6574 02CE                                                l6566 028D  
                                              l6558 0272                                                l6494 014E  
                                              l6486 012B                                                l6478 0119  
                                              l6910 1EBE                                                l6902 1EA1  
                                              l5688 1CE1                                                l5696 1D21  
                                              l5768 0ECB                                                l5776 0FAF  
                                              l5880 125E                                                l5872 124A  
                                              l5864 123F                                                l5848 1201  
                                              l5856 1223                                                l5960 14F2  
                                              l5952 14D3                                                l5944 14AC  
                                              l5936 1484                                                l5928 1470  
                                              l6824 07C2                                                l6816 07A7  
                                              l6808 076C                                                l6760 064B  
                                              l6752 062E                                                l6744 05DF  
                                              l6736 05BC                                                l6728 0578  
                                              l6680 0457                                                l6672 043A  
                                              l6664 042A                                                l6656 0419  
                                              l6648 03DC                                                l6592 02F7  
                                              l6584 02DC                                                l6576 02D6  
                                              l6568 029D                                                l6496 0156  
                                              l6488 012F                                                l6840 1133  
                                              l6832 10FA                                                l6920 1EEC  
                                              l6912 1EC6                                                l6904 1EA3  
                                              l5698 1D2C                                                l5890 1281  
                                              l5882 126E                                                l5866 1242  
                                              l5874 1258                                                l5858 1229  
                                              l5970 1519                                                l5962 1500  
                                              l5954 14D9                                                l5938 14A4  
                                              l5946 14BA                                                l6826 07D2  
                                              l6818 07AF                                                l6770 0689  
                                              l6762 064C                                                l6754 0631  
                                              l6746 05E7                                                l6738 05C0  
                                              l6690 0495                                                l6682 0458  
                                              l6674 043D                                                l6666 042E  
                                              l6658 041E                                                l6594 0307  
                                              l6586 02E4                                                l6578 02D7  
                                              l6498 0164                                                l6850 1174  
                                              l6842 1142                                                l6834 1110  
                                              l6930 1F0D                                                l6922 1EF0  
                                              l6914 1EDB                                                l6906 1EB1  
                                              l5892 1282                                                l5884 127C  
                                              l5876 125C                                                l5868 1243  
                                              l5972 151C                                                l5980 1532  
                                              l5964 1501                                                l5948 14C7  
                                              l5956 14E8                                                l6828 07DA  
                                              l6780 06C8                                                l6772 06AB  
                                              l6764 065C                                                l6756 0639  
                                              l6748 05F5                                                l6692 04B7  
                                              l6684 0468                                                l6676 0445  
                                              l6668 0432                                                l6596 030F  
                                              l6588 02E8                                                l6860 11B0  
                                              l6852 117E                                                l6844 114C  
                                              l6836 111A                                                l6916 1EE1  
                                              l6908 1EB2                                                l6924 1EF8  
                                              l6940 1D8D                                                l6932 1D6D  
                                              l5894 1288                                                l5886 127D  
                                              l5878 125D                                                l5990 155C  
                                              l5982 153C                                                l5974 151D  
                                              l5966 150A                                                l5958 14EE  
                                              l6790 0706                                                l6782 06C9  
                                              l6774 06AE                                                l6766 0664  
                                              l6758 063D                                                l6694 04BA  
                                              l6686 0470                                                l6678 0449  
                                              l6598 031D                                                l6862 11C0  
                                              l6854 118D                                                l6846 115B  
                                              l6838 1129                                                l6870 1307  
                                              l6918 1EE7                                                l6926 1F06  
                                              l6942 1D94                                                l6934 1D71  
                                              l6950 1004                                                l5888 1280  
                                              l5896 1296                                                l5992 155D  
                                              l5984 153D                                                l5976 151E  
                                              l5968 1518                                                l6792 0728  
                                              l6784 06D9                                                l6776 06B6  
                                              l6768 0672                                                l6696 04C2  
                                              l6688 047E                                                l6856 1197  
                                              l6848 1165                                                l6864 11C1  
                                              l6880 1389                                                l6872 1327  
                                              l6928 1F0B                                                l6944 1DA0  
                                              l6936 1D7F                                                l6960 102E  
                                              l6952 1007                                                l5898 12A3  
                                              l5994 1560                                                l5986 153E  
                                              l5978 1524                                                l6794 072B  
                                              l6786 06E1                                                l6778 06BA  
                                              l6698 04C6                                                l6858 11A6  
                                              l6890 13FA                                                l6882 1398  
                                              l6874 1336                                                l6866 12F0  
                                              l6946 1DAF                                                l6938 1D87  
                                              l6970 104E                                                l6962 1035  
                                              l6954 100C                                                l5996 1561  
                                              l5988 154E                                                l6796 0733  
                                              l6788 06EF                                                l6892 141C  
                                              l6884 13BA                                                l6876 1358  
                                              l6868 1305                                                l6948 1DB5  
                                              l6964 103B                                                l6956 1018  
                                              l6972 104F                                                _ADON 00F8  
                                              l5998 1562                                                l6798 0737  
                                              l6894 142B                                                l6886 13C9  
                                              l6878 1367                                                l6966 1041  
                                              l6958 101E                                                l6888 13EB  
                                              l6896 142C                                                l6968 1047  
                                              l6898 1E97                                                _CHS0 00FB  
                                              _CHS1 00FC                                                _CHS2 00FD  
                                              STR_1 0009                                                u4000 12D3  
                                              u4001 12D2                                                u4100 14EE  
                                              u4020 1460                                                u4005 12CF  
                                              u4101 14ED                                                u4021 145F  
                                              u4014 12DA                                                u4110 14FF  
                                              u4030 146F                                                u4015 12D8  
                                              u4111 14FE                                                u4031 146E  
                                              u4200 15DC                                                u4120 1517  
                                              u4040 1482                                                u5000 0671  
                                              u4201 15DB                                                u4121 1516  
                                              u4041 1481                                                u5001 0670  
                                              u4130 1531                                                u5010 0688  
                                              u4131 1530                                                u4115 14FB  
                                              u4035 146B                                                u5011 0687  
                                              u4140 155B                                                u4220 1DD6  
                                              u4300 00B7                                                u5100 07FE  
                                              u5020 06C7                                                u4205 15D8  
                                              u4141 155A                                                u4125 1513  
                                              u4045 147E                                                u4221 1DD5  
                                              u4301 00B6                                                u5101 07FD  
                                              u5021 06C6                                                u5005 066D  
                                              u4214 15E5                                                u4150 1575  
                                              u4070 14B9                                                u4054 1495  
                                              u4230 1DE2                                                u4310 00CD  
                                              u5030 06EE                                                u5110 1102  
                                              u4215 15E3                                                u4151 1574  
                                              u4135 152D                                                u4071 14B8  
                                              u4055 1493                                                u4231 1DE1  
                                              u4311 00CC                                                u5031 06ED  
                                              u5015 0684                                                u4064 149F  
                                              u4320 00E3                                                u4400 1F85  
                                              u5040 0705                                                u5120 12F8  
                                              u5200 1EE7                                                u4145 1557  
                                              u4065 149D                                                u4225 1DD2  
                                              u4321 00E2                                                u4305 00B3  
                                              u4401 1F84                                                u5105 07FA  
                                              u5041 0704                                                u5025 06C3  
                                              u5201 1EE6                                                u4170 15A2  
                                              u4090 14E6                                                u4250 1E09  
                                              u4330 1E31                                                u4410 1F98  
                                              u5050 0744                                                u5130 1449  
                                              u5210 1EFE                                                u4171 15A1  
                                              u4155 1571                                                u4091 14E5  
                                              u4075 14B5                                                u4251 1E08  
                                              u4235 1DDE                                                u4315 00C9  
                                              u4331 1E30                                                u4411 1F97  
                                              u5051 0743                                                u5035 06EA  
                                              u5131 1448                                                u5211 1EFD  
                                              u4180 15AA                                                u4164 157E  
                                              u4084 14C2                                                u4244 1DE8  
                                              u4340 1E59                                                u4420 1FC1  
                                              u4500 09AD                                                u5060 076B  
                                              u5140 144F                                                u5220 1F04  
                                              u4181 15A9                                                u4165 157C  
                                              u4085 14C0                                                u4245 1DE6  
                                              u4325 00DF                                                u4341 1E58  
                                              u4405 1F81                                                u4421 1FC0  
                                              u4501 09AC                                                u5061 076A  
                                              u5045 0701                                                u5141 144E  
                                              u5221 1F03                                                u4190 15BB  
                                              u4270 005B                                                u4350 1E6D  
                                              u4430 1FD5                                                u4510 09E1  
                                              u5070 0782                                                u5230 1F0A  
                                              u5150 1EA1                                                u4191 15BA  
                                              u4175 159E                                                u4095 14E2  
                                              u4255 1E05                                                u4271 005A  
                                              u4351 1E6C                                                u4335 1E2D  
                                              u4431 1FD4                                                u4415 1F94  
                                              u4511 09E0                                                u5071 0781  
                                              u5055 0740                                                u5151 1EA0  
                                              u4264 1E10                                                u4280 006E  
                                              u4360 1E95                                                u4440 1FFE  
                                              u4600 1758                                                u4520 1604  
                                              u5080 07C0                                                u5160 1EB0  
                                              u5240 1D7E                                                u4265 1E0E  
                                              u4281 006D                                                u4361 1E94  
                                              u4345 1E55                                                u4441 1FFD  
                                              u4425 1FBD                                                u4505 09A9  
                                              u4601 1757                                                u5081 07BF  
                                              u5065 0767                                                u5161 1EAF  
                                              u5241 1D7D                                                u3730 1D19  
                                              u4290 0081                                                u4370 1F1F  
                                              u4450 1078                                                u4610 1778  
                                              u4530 163E                                                u5090 07E7  
                                              u5170 1ED3                                                u5250 1D86  
                                              u3731 1D18                                                u4195 15B7  
                                              u4291 0080                                                u4275 0057  
                                              u4355 1E69                                                u4371 1F1E  
                                              u4435 1FD1                                                u4515 09DD  
                                              u4611 1777                                                u4531 163D  
                                              u5091 07E6                                                u5075 077E  
                                              u5307 019C                                                u5171 1ED2  
                                              u5251 1D85                                                u3740 1D59  
                                              u3900 11F1                                                u4380 1F48  
                                              u4460 10AA                                                u4620 17B7  
                                              u4540 1665                                                u4700 01D8  
                                              u5180 1EDA                                                u5260 1D8C  
                                              u3901 11F0                                                u4285 006A  
                                              u4365 1E91                                                u4381 1F47  
                                              u4445 1FFA                                                u4461 10A9  
                                              u4621 17B6                                                u4605 1754  
                                              u4541 1664                                                u5085 07BC  
                                              u5317 020C                                                u4701 01D7  
                                              u5181 1ED9                                                u5165 1EAC  
                                              u5261 1D8B                                                u5245 1D7A  
                                              u3750 1D6B                                                u4390 1F5C  
                                              u4470 10DE                                                u4630 17DE  
                                              u4550 167C                                                u4710 01EF  
                                              u5190 1EE0                                                u5270 1DC2  
                                              u3751 1D6A                                                u4295 007D  
                                              u4391 1F5B                                                u4375 1F1B  
                                              u4471 10DD                                                u4631 17DD  
                                              u4615 1774                                                u4551 167B  
                                              u4535 163A                                                u5095 07E3  
                                              u5407 0635                                                u5327 0276  
                                              u4711 01EE                                                u5191 1EDF  
                                              u5175 1ECF                                                u5271 1DC1  
                                              u3840 1CEC                                                u3920 1215  
                                              u4480 10F5                                                u4640 17FE  
                                              u4560 16B0                                                u4800 0333  
                                              u4720 0221                                                u3745 1D4C  
                                              u3841 1CEB                                                u3921 1214  
                                              u3905 11ED                                                u4385 1F44  
                                              u4481 10F4                                                u4465 10A6  
                                              u4641 17FD                                                u4625 17B3  
                                              u4561 16AF                                                u4545 1661  
                                              u5417 06B2                                                u4801 0332  
                                              u5337 02E0                                                u4721 0220  
                                              u4705 01D4                                                u3746 1D4D  
                                              u3930 1229                                                u3914 11F9  
                                              u4490 080A                                                u4570 16D7  
                                              u4810 0365                                                u4730 0248  
                                              u4650 00F3                                                u3755 1D67  
                                              u3747 1D52                                                u3931 1228  
                                              u3915 11F7                                                u4395 1F58  
                                              u4475 10DA                                                u5507 08B5  
                                              u4635 17DA                                                u4571 16D6  
                                              u4555 1678                                                u5427 072F  
                                              u4811 0364                                                u5347 0350  
                                              u4731 0247                                                u4715 01EB  
                                              u5275 1DBE                                                u3748 1D53  
                                              u3940 123D                                                u4580 16F7  
                                              u4900 04D3                                                u4820 038C  
                                              u4740 025F                                                u4660 013C  
                                              u3749 1D58                                                u3941 123C  
                                              u3925 1211                                                u5517 08E0  
                                              u4645 17FA                                                u4581 16F6  
                                              u4565 16AC                                                u5437 07AB  
                                              u4901 04D2                                                u5357 03C5  
                                              u4821 038B                                                u4805 032F  
                                              u4741 025E                                                u4725 021D  
                                              u4661 013B                                                u3870 1D06  
                                              u3950 1257                                                u4590 1731  
                                              u4910 04FA                                                u4830 03A3  
                                              u4750 028B                                                u4670 0163  
                                              u3871 1D05                                                u3855 1CF3  
                                              u3951 1256                                                u5607 15EE  
                                              u5527 090B                                                u4591 1730  
                                              u4575 16D3                                                u5447 1627  
                                              u4911 04F9                                                u5367 0441  
                                              u4831 03A2                                                u4815 0361  
                                              u4751 028A                                                u4735 0244  
                                              u4671 0162                                                u5287 1DA8  
                                              u3880 001C                                                u3960 127B  
                                              u4920 0511                                                u4840 03DA  
                                              u4760 02B2                                                u4680 017A  
                                              u3865 1CFA                                                u3881 001B  
                                              u3961 127A                                                u3945 1239  
                                              u5617 121E                                                u5537 093C  
                                              u4585 16F3                                                u5457 1699  
                                              u4921 0510                                                u4905 04CF  
                                              u5377 04BE                                                u4841 03D9  
                                              u4825 0388                                                u4761 02B1  
                                              u4745 025B                                                u4681 0179  
                                              u4665 0138                                                u5297 0127  
                                              u3970 1295                                                u3890 11E2  
                                              u4930 0550                                                u4850 0401  
                                              u4770 02C9                                                u4690 01B1  
                                              u5627 129E                                                u3971 1294  
                                              u3955 1253                                                u3891 11E1  
                                              u5547 0973                                                u4595 172D  
                                              u5467 171A                                                u4931 054F  
                                              u5387 053B                                                u4915 04F6  
                                              u4851 0400                                                u4835 039F  
                                              u4771 02C8                                                u4755 0287  
                                              u4691 01B0                                                u4675 015F  
                                              u3980 12A9                                                u4940 0577  
                                              u4860 0418                                                u4780 02F5  
                                              u5637 12E5                                                u3981 12A8  
                                              u3965 1277                                                u5557 09C5  
                                              u5477 17A2                                                u5397 05B8  
                                              u4941 0576                                                u4925 050D  
                                              u4861 0417                                                u4845 03D6  
                                              u4781 02F4                                                u4765 02AE  
                                              u4685 0176                                                u3990 12B8  
                                              u4950 058E                                                u4870 0456  
                                              u4790 031C                                                u3991 12B7  
                                              u3975 1291                                                u5567 10C2  
                                              u5487 084D                                                u4951 058D  
                                              u4935 054C                                                u4871 0455  
                                              u4855 03FD                                                u4791 031B  
                                              u4775 02C5                                                u4695 01AD  
                                              u4960 05CD                                                u4880 047D  
                                              u5577 1E1B                                                u5497 0884  
                                              u4961 05CC                                                u4945 0573  
                                              u4881 047C                                                u4865 0414  
                                              u4785 02F1                                                u4970 05F4  
                                              u4890 0494                                                u3995 12B4  
                                              u5587 14CB                                                u4971 05F3  
                                              u4955 058A                                                u4891 0493  
                                              u4875 0452                                                u4795 0318  
                                              u4980 060B                                                u5597 1587  
                                              u4981 060A                                                u4965 05C9  
                                              u4885 0479                                                u4990 064A  
                                              u4991 0649                                                u4975 05F0  
                                              u4895 0490                                                u4985 0607  
                                              u4995 0646                                                _WREN 0C62  
                  __end_of_moving_point_in_sequence 00E5                                     ??_get_adc_value 0072  
                                              _dice 1D6D                                                _main 1004  
                                              btemp 007E                                                start 0000  
                                             ?_dice 0070                                               _ADCS0 00FE  
                                             _ADCS1 00FF                                               ?_main 0070  
                                             _EEADR 010D                                               _CARRY 0018  
                                             _PCFG0 04F8                                               _PCFG1 04F9  
                                             _PCFG2 04FA                                               _PCFG3 04FB  
                                     show_mode@mode 0030                                               _PORTA 0005  
                                             _PORTB 0006                                               _PORTC 0007  
                                             _PORTD 0008                                               _PORTE 0009  
                                             _TRISA 0085                                               _TRISB 0086  
                                             _TRISC 0087                                               _TRISD 0088  
                                             _TRISE 0089                    show_pattern_on_a_plane@adc_delay 0020  
                                             _delay 1D3B                                     __end_of_io_init 1CE5  
                                             dice@i 007C                                               pclath 000A  
                                             status 0003                                               wtemp0 007E  
                         plane_left_to_right@i_3012 0027                                        __end_of_dice 1DC4  
                                      __end_of_main 106D                                              ??_dice 003A  
                                            ??_main 004A                                      show_mode@F1153 0064  
                                            ?_delay 0076                                    choose_dice@F1183 00E6  
                                            _ADRESH 001E                                              _ADRESL 009E  
                                            _EEDATA 010C                                              _EECON1 018C  
                                            _EECON2 018D                                __size_of_choose_dice 0164  
                              __size_of_choose_mode 0077                        ??_flying_character_of_a_word 0075  
                  __size_of_show_pattern_on_a_plane 01A5                                        ?_set_a_plane 0070  
                                      ?_set_a_point 0070                                              ___wmul 1CE5  
                                    expansion_box@i 0030                                      expansion_box@j 0038  
                 __size_of_moving_point_in_sequence 009B                           ?_moving_point_in_sequence 0070  
                                            clrloop 1CA0                                           ??_io_init 0070  
                      get_adc_value@local_adc_value 0074                 __size_of_flying_character_of_a_word 008A  
                              plane_left_to_right@i 0025                            __size_of_delay_using_adc 0037  
                         moving_point_in_sequence@i 0025                           moving_point_in_sequence@j 0027  
                         moving_point_in_sequence@k 0029                                     _choose_alphabet 09E3  
                              flying_alphabet@F1155 0054                                      __pcstackCOMMON 0070  
                          expansion_box@box_pattern 0042                                       __end_of_delay 1D6D  
                       __end_of_plane_bottom_to_top 2000                               _plane_forward_to_back 1F0E  
                                           ??_delay 007A                                  expansion_box@F1188 0190  
                                        __pbssBANK0 004C                                          __pbssBANK1 00E6  
                                        __pbssBANK3 0190                              __size_of_expansion_box 020A  
                       __end_of_plane_left_to_right 1E97                                          __pmaintext 1004  
                                           ?___wmul 0070                                       rotate_plane@i 00A0  
                                     rotate_plane@j 00BE                                  __size_of_show_mode 00E4  
                __end_of_flying_character_of_a_word 10F7                          _flying_character_of_a_word 106D  
                           _show_pattern_on_a_plane 1451                             __end_of_choose_alphabet 1000  
                                 ??_delay_using_adc 0020                               __end_of_get_adc_value 1D3B  
                                 choose_dice@number 0031                                __size_of_set_a_plane 0112  
                              __size_of_set_a_point 005C                              plane_forward_to_back@i 0026  
                                   __size_of___wmul 002A                              ?_plane_forward_to_back 0070  
                                     _expansion_box 15F6                                             _io_init 1CC5  
                   flying_character_of_a_word@F1162 005C                                end_of_initialization 1CC1  
                        rotate_plane@rotate_pattern 00DE                                   __end_of_show_mode 11DB  
                                    ?_expansion_box 0070                       choose_alphabet@alphabet_array 0070  
                                     ??_choose_dice 0075                                       ??_choose_mode 007C  
                         ??_show_pattern_on_a_plane 0072                                    ?_choose_alphabet 0070  
                                rotate_plane@i_3070 00A8                                  rotate_plane@i_3080 00B2  
                                rotate_plane@i_3072 00AA                                  rotate_plane@i_3064 00A2  
                                rotate_plane@i_3090 00BC                                  rotate_plane@i_3082 00B4  
                                rotate_plane@i_3074 00AC                                  rotate_plane@i_3066 00A4  
                                rotate_plane@i_3084 00B6                                  rotate_plane@i_3076 00AE  
                                rotate_plane@i_3068 00A6                                  rotate_plane@i_3086 00B8  
                                rotate_plane@i_3078 00B0                                  rotate_plane@i_3088 00BA  
                                rotate_plane@j_3071 00C6                                  rotate_plane@j_3081 00D0  
                                rotate_plane@j_3073 00C8                                  rotate_plane@j_3065 00C0  
                                rotate_plane@j_3091 00DA                                  rotate_plane@j_3083 00D2  
                                rotate_plane@j_3075 00CA                                  rotate_plane@j_3067 00C2  
                                rotate_plane@j_3085 00D4                                  rotate_plane@j_3077 00CC  
                                rotate_plane@j_3069 00C4                                  rotate_plane@j_3087 00D6  
                                rotate_plane@j_3079 00CE                                  rotate_plane@j_3089 00D8  
                                    __end_of___wmul 1D0F                         plane_forward_to_back@i_3018 0028  
                                     ?_rotate_plane 0070                             choose_dice@dice_pattern 0032  
                     show_pattern_on_a_plane@i_2167 002E                       show_pattern_on_a_plane@j_2170 0029  
                     show_pattern_on_a_plane@j_2168 0023                       show_pattern_on_a_plane@j_2169 0025  
                               start_initialization 1CA7  contraction_expansion_square_ri@square_ring_pattern 0032  
                               __end_of_choose_dice 1451                              choose_dice@temp_switch 0030  
                               __end_of_choose_mode 1F0E                     __end_of_show_pattern_on_a_plane 15F6  
                          _moving_point_in_sequence 004A                                            ??___wmul 0074  
                                   ??_expansion_box 0075                                      ??_rotate_plane 0075  
                      __size_of_plane_bottom_to_top 0079                                     _delay_using_adc 0013  
                                     __pcstackBANK0 0020                                       __pcstackBANK1 00A0  
                             show_mode@mode_pattern 0031                            show_pattern_on_a_plane@i 002C  
                          show_pattern_on_a_plane@j 0027                         ?_flying_character_of_a_word 0070  
                               expansion_box@i_3052 0032                                 expansion_box@i_3054 0034  
                               expansion_box@i_3056 0036                                 expansion_box@j_3053 003A  
                               expansion_box@j_3055 003C                                 expansion_box@j_3057 003E  
                           ??_plane_forward_to_back 0025                                   expansion_box@time 0040  
                                         __ptext540 0000                                           __ptext541 1D6D  
                                         __ptext550 1F0E                                           __ptext542 1E97  
                                         __ptext551 1E20                                           __ptext543 12ED  
                                         __ptext560 1D0F                                           __ptext552 004A  
                                         __ptext544 10F7                                           __ptext561 1CC5  
                                         __ptext553 1DC4                                           __ptext545 00E5  
                                         __ptext562 0000                                           __ptext554 1451  
                                         __ptext546 15F6                                           __ptext555 11DB  
                                         __ptext547 0802                                           __ptext556 0013  
                                         __ptext548 106D                                           __ptext557 1CE5  
                                         __ptext549 1F87                                           __ptext558 09E3  
                                         __ptext559 1D3B                        __size_of_plane_left_to_right 0077  
                                         __pstrings 0003                                            ?_io_init 0070  
                                       _choose_dice 12ED                                      __size_of_delay 0032  
                                       _choose_mode 1E97                                           delay@time 0076  
                                     ??_set_a_plane 0071                                       ??_set_a_point 0076  
                                    ___wmul@product 0074                      flying_character_of_a_word@word 0030  
                                         _show_mode 10F7                             __end_of_delay_using_adc 004A  
                                       __stringbase 0008                                   ___wmul@multiplier 0070  
                                 rotate_plane@F1204 0198                              __size_of_get_adc_value 002C  
           __end_of_contraction_expansion_square_ri 09E3            __size_of_contraction_expansion_square_ri 01E1  
                 ??_contraction_expansion_square_ri 0075                    ?_contraction_expansion_square_ri 0070  
                   _contraction_expansion_square_ri 0802                                __end_of_rotate_plane 0800  
                               __end_of_set_a_plane 12ED                                 __end_of_set_a_point 1E20  
                              choose_mode@temp_mode 003B                                          ?_show_mode 0070  
                                      set_a_plane@j 0073                                        set_a_point@j 0078  
                                      set_a_point@x 0070                                        set_a_point@y 0072  
                                      set_a_point@z 0074                                    __size_of_io_init 0020  
                        ??_moving_point_in_sequence 007E                                       __size_of_dice 0057  
                                     __size_of_main 0069                                 _plane_bottom_to_top 1F87  
                                     _get_adc_value 1D0F                                            clear_ram 1C9F  
                          __size_of_choose_alphabet 061D                    contraction_expansion_square_ri@i 0030  
                                          main@mode 004B                                    ?_delay_using_adc 0070  
              contraction_expansion_square_ri@F1168 004C                            ?_show_pattern_on_a_plane 0070  
                                  rotate_plane@time 00DC                                ?_plane_bottom_to_top 0070  
                          delay_using_adc@adc_delay 0022                                 _plane_left_to_right 1E20  
                                       _set_a_plane 11DB                                         _set_a_point 1DC4  
                                    ?_get_adc_value 0070                                           stringcode 0003  
                              delay_using_adc@scale 0024                      __size_of_plane_forward_to_back 0079  
                     __end_of_plane_forward_to_back 1F87                show_pattern_on_a_plane@pattern_array 0071  
                                       ??_show_mode 0075                               __end_of_expansion_box 1800  
                              ?_plane_left_to_right 0070                             choose_alphabet@alphabet 0072  
                                      choose_mode@i 0039                               ??_plane_bottom_to_top 0025  
        flying_character_of_a_word@alphabet_pattern 0035                                            stringdir 0003  
                                          stringtab 0003                                        ?_choose_dice 0070  
                                      ?_choose_mode 0070                         flying_character_of_a_word@i 0031  
                       flying_character_of_a_word@j 0033                               __size_of_rotate_plane 071B  
                      show_pattern_on_a_plane@layer 002B                        show_pattern_on_a_plane@scale 0022  
                      show_pattern_on_a_plane@plane 0070  
